
/home/warits/src/coding/irom_dev/infotm-irom-release/out/vmirom:     file format elf32-littlearm


Disassembly of section .text:

00000000 <_start>:
       0:	ea000012 	b	50 <reset>
       4:	ebfffffe 	bl	4 <_start+0x4>
       8:	ebfffffe 	bl	8 <_start+0x8>
       c:	ebfffffe 	bl	c <_start+0xc>
      10:	ebfffffe 	bl	10 <_start+0x10>
      14:	ebfffffe 	bl	14 <_start+0x14>
      18:	ebfffffe 	bl	18 <_start+0x18>
      1c:	ebfffffe 	bl	1c <_start+0x1c>
      20:	00000000 	.word	0x00000000
      24:	00000001 	.word	0x00000001
      28:	00000002 	.word	0x00000002
      2c:	00000003 	.word	0x00000003
      30:	00000004 	.word	0x00000004
      34:	00000005 	.word	0x00000005
      38:	00000006 	.word	0x00000006
      3c:	00000007 	.word	0x00000007

00000040 <_armboot_start>:
      40:	00000000 	.word	0x00000000

00000044 <_bss_start>:
      44:	3c00a120 	.word	0x3c00a120

00000048 <_bss_end>:
      48:	3c00b02c 	.word	0x3c00b02c

0000004c <__stack>:
      4c:	3c009fe0 	.word	0x3c009fe0

00000050 <reset>:
      50:	e10f0000 	mrs	r0, CPSR
      54:	e3c0001f 	bic	r0, r0, #31	; 0x1f
      58:	e38000d3 	orr	r0, r0, #211	; 0xd3
      5c:	e129f000 	msr	CPSR_fc, r0
      60:	eb00000e 	bl	a0 <core_init_crit>
      64:	ee100fb0 	mrc	15, 0, r0, cr0, cr0, {5}
      68:	e7e10050 	ubfx	r0, r0, #0, #2
      6c:	e3500000 	cmp	r0, #0	; 0x0
      70:	1a000019 	bne	dc <core_hold>
      74:	e51fd030 	ldr	sp, [pc, #-48]	; 4c <__stack>
      78:	eb0004d1 	bl	13c4 <chip_test>
      7c:	e51f0040 	ldr	r0, [pc, #-64]	; 44 <_bss_start>
      80:	e51f1040 	ldr	r1, [pc, #-64]	; 48 <_bss_end>
      84:	e3a02000 	mov	r2, #0	; 0x0

00000088 <clbss_l>:
      88:	e5802000 	str	r2, [r0]
      8c:	e2800004 	add	r0, r0, #4	; 0x4
      90:	e1500001 	cmp	r0, r1
      94:	1afffffb 	bne	88 <clbss_l>
      98:	e51ff004 	ldr	pc, [pc, #-4]	; 9c <_main>

0000009c <_main>:
      9c:	00000668 	.word	0x00000668

000000a0 <core_init_crit>:
      a0:	e3a00000 	mov	r0, #0	; 0x0
      a4:	ee080f17 	mcr	15, 0, r0, cr8, cr7, {0}
      a8:	ee070f15 	mcr	15, 0, r0, cr7, cr5, {0}
      ac:	ee110f10 	mrc	15, 0, r0, cr1, cr0, {0}
      b0:	e3c00a02 	bic	r0, r0, #8192	; 0x2000
      b4:	e3c00007 	bic	r0, r0, #7	; 0x7
      b8:	e3800002 	orr	r0, r0, #2	; 0x2
      bc:	e3800b02 	orr	r0, r0, #2048	; 0x800
      c0:	ee010f10 	mcr	15, 0, r0, cr1, cr0, {0}
      c4:	e59f1070 	ldr	r1, [pc, #112]	; 13c <low_power+0x8>
      c8:	e59f0070 	ldr	r0, [pc, #112]	; 140 <low_power+0xc>
      cc:	e5810034 	str	r0, [r1, #52]
      d0:	e59f006c 	ldr	r0, [pc, #108]	; 144 <low_power+0x10>
      d4:	e5810034 	str	r0, [r1, #52]
      d8:	e1a0f00e 	mov	pc, lr

000000dc <core_hold>:
      dc:	e59f3064 	ldr	r3, [pc, #100]	; 148 <low_power+0x14>
      e0:	e5931000 	ldr	r1, [r3]
      e4:	e3a0203b 	mov	r2, #59	; 0x3b
      e8:	e1510002 	cmp	r1, r2
      ec:	1a000010 	bne	134 <low_power>
      f0:	e593100c 	ldr	r1, [r3, #12]
      f4:	e1a02401 	lsl	r2, r1, #8
      f8:	e5931008 	ldr	r1, [r3, #8]
      fc:	e1822001 	orr	r2, r2, r1
     100:	e1a02402 	lsl	r2, r2, #8
     104:	e5931004 	ldr	r1, [r3, #4]
     108:	e1822001 	orr	r2, r2, r1
     10c:	e1a01402 	lsl	r1, r2, #8
     110:	e1a02100 	lsl	r2, r0, #2
     114:	e0821001 	add	r1, r2, r1
     118:	e3a02001 	mov	r2, #1	; 0x1
     11c:	e5812000 	str	r2, [r1]
     120:	f57ff04f 	.word	0xf57ff04f

00000124 <hold_l>:
     124:	e5910000 	ldr	r0, [r1]
     128:	e3500001 	cmp	r0, #1	; 0x1
     12c:	0afffffc 	beq	124 <hold_l>
     130:	e1a0f000 	mov	pc, r0

00000134 <low_power>:
     134:	e320f003 	.word	0xe320f003
     138:	eafffffe 	b	138 <low_power+0x4>
     13c:	21b00600 	.word	0x21b00600
     140:	12345678 	.word	0x12345678
     144:	87654321 	.word	0x87654321
     148:	21e09c2c 	.word	0x21e09c2c
     14c:	e1a00000 	.word	0xe1a00000

00000150 <init_data_section>:
     150:	e59f1010 	ldr	r1, [pc, #16]	; 168 <init_data_section+0x18>
     154:	e59f0010 	ldr	r0, [pc, #16]	; 16c <init_data_section+0x1c>
     158:	e1510000 	cmp	r1, r0
     15c:	012fff1e 	bxeq	lr
     160:	e59f2008 	ldr	r2, [pc, #8]	; 170 <init_data_section+0x20>
     164:	ea000515 	b	15c0 <memcpy>
     168:	0001b43c 	.word	0x0001b43c
     16c:	3c00a000 	.word	0x3c00a000
     170:	00000108 	.word	0x00000108

00000174 <bl_get_binary>:
     174:	e92d4ff0 	push	{r4, r5, r6, r7, r8, r9, sl, fp, lr}
     178:	e1a0a000 	mov	sl, r0
     17c:	e24dd00c 	sub	sp, sp, #12	; 0xc
     180:	e1a00001 	mov	r0, r1
     184:	e59f10c0 	ldr	r1, [pc, #192]	; 24c <bl_get_binary+0xd8>
     188:	e1a06002 	mov	r6, r2
     18c:	e1a08003 	mov	r8, r3
     190:	eb000cf3 	bl	3564 <vs_is_device>
     194:	e2504000 	subs	r4, r0, #0	; 0x0
     198:	1a00000c 	bne	1d0 <bl_get_binary+0x5c>
     19c:	e896000c 	ldm	r6, {r2, r3}
     1a0:	e1a0000a 	mov	r0, sl
     1a4:	e58d8000 	str	r8, [sp]
     1a8:	e58d4004 	str	r4, [sp, #4]
     1ac:	eb000d05 	bl	35c8 <vs_read>
     1b0:	e1500008 	cmp	r0, r8
     1b4:	1a000021 	bne	240 <bl_get_binary+0xcc>
     1b8:	e896000c 	ldm	r6, {r2, r3}
     1bc:	e0922000 	adds	r2, r2, r0
     1c0:	e0a33fc0 	adc	r3, r3, r0, asr #31
     1c4:	e886000c 	stm	r6, {r2, r3}
     1c8:	e1a00004 	mov	r0, r4
     1cc:	ea00001c 	b	244 <bl_get_binary+0xd0>
     1d0:	e3a00000 	mov	r0, #0	; 0x0
     1d4:	eb00200b 	bl	8208 <nand_get_config>
     1d8:	e2507000 	subs	r7, r0, #0	; 0x0
     1dc:	03e00033 	mvneq	r0, #51	; 0x33
     1e0:	0a000017 	beq	244 <bl_get_binary+0xd0>
     1e4:	e3a04000 	mov	r4, #0	; 0x0
     1e8:	e1a05004 	mov	r5, r4
     1ec:	e1a0b004 	mov	fp, r4
     1f0:	e3e094ff 	mvn	r9, #-16777216	; 0xff000000
     1f4:	e5971014 	ldr	r1, [r7, #20]
     1f8:	e896000c 	ldm	r6, {r2, r3}
     1fc:	e08a0005 	add	r0, sl, r5
     200:	e88d0802 	stm	sp, {r1, fp}
     204:	eb000cef 	bl	35c8 <vs_read>
     208:	e896000c 	ldm	r6, {r2, r3}
     20c:	e5971014 	ldr	r1, [r7, #20]
     210:	e1500001 	cmp	r0, r1
     214:	00815005 	addeq	r5, r1, r5
     218:	e0922001 	adds	r2, r2, r1
     21c:	e2a33000 	adc	r3, r3, #0	; 0x0
     220:	e1550008 	cmp	r5, r8
     224:	e886000c 	stm	r6, {r2, r3}
     228:	a3a00000 	movge	r0, #0	; 0x0
     22c:	aa000004 	bge	244 <bl_get_binary+0xd0>
     230:	e5973014 	ldr	r3, [r7, #20]
     234:	e0844003 	add	r4, r4, r3
     238:	e1540009 	cmp	r4, r9
     23c:	daffffec 	ble	1f4 <bl_get_binary+0x80>
     240:	e3e00001 	mvn	r0, #1	; 0x1
     244:	e28dd00c 	add	sp, sp, #12	; 0xc
     248:	e8bd8ff0 	pop	{r4, r5, r6, r7, r8, r9, sl, fp, pc}
     24c:	000186e4 	.word	0x000186e4

00000250 <bl_check_data>:
     250:	e92d4030 	push	{r4, r5, lr}
     254:	e5903004 	ldr	r3, [r0, #4]
     258:	e24dd004 	sub	sp, sp, #4	; 0x4
     25c:	e1b03e23 	lsrs	r3, r3, #28
     260:	e1a04000 	mov	r4, r0
     264:	e1a05001 	mov	r5, r1
     268:	0a000002 	beq	278 <bl_check_data+0x28>
     26c:	e1a00001 	mov	r0, r1
     270:	e594200c 	ldr	r2, [r4, #12]
     274:	eb000d7b 	bl	3868 <ss_aes_data>
     278:	e1a00004 	mov	r0, r4
     27c:	e1a01005 	mov	r1, r5
     280:	e28dd004 	add	sp, sp, #4	; 0x4
     284:	e8bd4030 	pop	{r4, r5, lr}
     288:	ea00065e 	b	1c08 <isi_check_data_separate>

0000028c <bl_check_header>:
     28c:	e92d4010 	push	{r4, lr}
     290:	e1a04000 	mov	r4, r0
     294:	eb000631 	bl	1b60 <isi_check_header>
     298:	e3500000 	cmp	r0, #0	; 0x0
     29c:	08bd8010 	popeq	{r4, pc}
     2a0:	e59f3034 	ldr	r3, [pc, #52]	; 2dc <bl_check_header+0x50>
     2a4:	e59f0034 	ldr	r0, [pc, #52]	; 2e0 <bl_check_header+0x54>
     2a8:	e1a0e00f 	mov	lr, pc
     2ac:	e593f000 	ldr	pc, [r3]
     2b0:	e3a00000 	mov	r0, #0	; 0x0
     2b4:	e59f2028 	ldr	r2, [pc, #40]	; 2e4 <bl_check_header+0x58>
     2b8:	e1a01000 	mov	r1, r0
     2bc:	eb000d83 	bl	38d0 <ss_aes_init>
     2c0:	e1a00004 	mov	r0, r4
     2c4:	e1a01004 	mov	r1, r4
     2c8:	e3a02c02 	mov	r2, #512	; 0x200
     2cc:	eb000d65 	bl	3868 <ss_aes_data>
     2d0:	e1a00004 	mov	r0, r4
     2d4:	e8bd4010 	pop	{r4, lr}
     2d8:	ea000620 	b	1b60 <isi_check_header>
     2dc:	3c00a94c 	.word	0x3c00a94c
     2e0:	000186e8 	.word	0x000186e8
     2e4:	3c00a000 	.word	0x3c00a000

000002e8 <bl_load_isi>:
     2e8:	e92d41f0 	push	{r4, r5, r6, r7, r8, lr}
     2ec:	e1a07001 	mov	r7, r1
     2f0:	e24ddc02 	sub	sp, sp, #512	; 0x200
     2f4:	e1a04000 	mov	r4, r0
     2f8:	e3a01001 	mov	r1, #1	; 0x1
     2fc:	e1a00007 	mov	r0, r7
     300:	e1a08002 	mov	r8, r2
     304:	e1a06003 	mov	r6, r3
     308:	eb000c01 	bl	3314 <vs_assign_by_id>
     30c:	e2505000 	subs	r5, r0, #0	; 0x0
     310:	0a000008 	beq	338 <bl_load_isi+0x50>
     314:	e59f315c 	ldr	r3, [pc, #348]	; 478 <bl_load_isi+0x190>
     318:	e1a00007 	mov	r0, r7
     31c:	e5934000 	ldr	r4, [r3]
     320:	eb000c40 	bl	3428 <vs_device_name>
     324:	e1a02005 	mov	r2, r5
     328:	e1a01000 	mov	r1, r0
     32c:	e59f0148 	ldr	r0, [pc, #328]	; 47c <bl_load_isi+0x194>
     330:	e12fff34 	blx	r4
     334:	ea00004c 	b	46c <bl_load_isi+0x184>
     338:	e1a00004 	mov	r0, r4
     33c:	e1a01007 	mov	r1, r7
     340:	e1a02008 	mov	r2, r8
     344:	e3a03902 	mov	r3, #32768	; 0x8000
     348:	ebffff89 	bl	174 <bl_get_binary>
     34c:	e2505000 	subs	r5, r0, #0	; 0x0
     350:	1a00003c 	bne	448 <bl_load_isi+0x160>
     354:	e1a00004 	mov	r0, r4
     358:	ebffffcb 	bl	28c <bl_check_header>
     35c:	e2505000 	subs	r5, r0, #0	; 0x0
     360:	0a000005 	beq	37c <bl_load_isi+0x94>
     364:	e59f0114 	ldr	r0, [pc, #276]	; 480 <bl_load_isi+0x198>
     368:	e1a01005 	mov	r1, r5
     36c:	e59f3104 	ldr	r3, [pc, #260]	; 478 <bl_load_isi+0x190>
     370:	e1a0e00f 	mov	lr, pc
     374:	e593f000 	ldr	pc, [r3]
     378:	ea00003b 	b	46c <bl_load_isi+0x184>
     37c:	e5943004 	ldr	r3, [r4, #4]
     380:	e3c334ff 	bic	r3, r3, #-16777216	; 0xff000000
     384:	e2433002 	sub	r3, r3, #2	; 0x2
     388:	e3530001 	cmp	r3, #1	; 0x1
     38c:	9a000006 	bls	3ac <bl_load_isi+0xc4>
     390:	e1a01005 	mov	r1, r5
     394:	e59f00e8 	ldr	r0, [pc, #232]	; 484 <bl_load_isi+0x19c>
     398:	e59f30d8 	ldr	r3, [pc, #216]	; 478 <bl_load_isi+0x190>
     39c:	e1a0e00f 	mov	lr, pc
     3a0:	e593f000 	ldr	pc, [r3]
     3a4:	e3e0500b 	mvn	r5, #11	; 0xb
     3a8:	ea00002f 	b	46c <bl_load_isi+0x184>
     3ac:	e594300c 	ldr	r3, [r4, #12]
     3b0:	e3560000 	cmp	r6, #0	; 0x0
     3b4:	e2435c7e 	sub	r5, r3, #32256	; 0x7e00
     3b8:	0a000005 	beq	3d4 <bl_load_isi+0xec>
     3bc:	e3550000 	cmp	r5, #0	; 0x0
     3c0:	d1a00004 	movle	r0, r4
     3c4:	c3e0500c 	mvngt	r5, #12	; 0xc
     3c8:	d2801c02 	addle	r1, r0, #512	; 0x200
     3cc:	ca000026 	bgt	46c <bl_load_isi+0x184>
     3d0:	ea000023 	b	464 <bl_load_isi+0x17c>
     3d4:	e5946010 	ldr	r6, [r4, #16]
     3d8:	e3760107 	cmn	r6, #-1073741823	; 0xc0000001
     3dc:	9a000008 	bls	404 <bl_load_isi+0x11c>
     3e0:	eb001092 	bl	4630 <cdbg_dram_enabled>
     3e4:	e3500000 	cmp	r0, #0	; 0x0
     3e8:	1a000005 	bne	404 <bl_load_isi+0x11c>
     3ec:	e59f0094 	ldr	r0, [pc, #148]	; 488 <bl_load_isi+0x1a0>
     3f0:	e59f3080 	ldr	r3, [pc, #128]	; 478 <bl_load_isi+0x190>
     3f4:	e1a0e00f 	mov	lr, pc
     3f8:	e593f000 	ldr	pc, [r3]
     3fc:	e3e05014 	mvn	r5, #20	; 0x14
     400:	ea000019 	b	46c <bl_load_isi+0x184>
     404:	e1a01004 	mov	r1, r4
     408:	e1a0000d 	mov	r0, sp
     40c:	e3a02c02 	mov	r2, #512	; 0x200
     410:	eb00046a 	bl	15c0 <memcpy>
     414:	e3550000 	cmp	r5, #0	; 0x0
     418:	e2841c02 	add	r1, r4, #512	; 0x200
     41c:	da00000b 	ble	450 <bl_load_isi+0x168>
     420:	e3a02c7e 	mov	r2, #32256	; 0x7e00
     424:	e1a00006 	mov	r0, r6
     428:	eb00046d 	bl	15e4 <memmove>
     42c:	e1a03005 	mov	r3, r5
     430:	e1a01007 	mov	r1, r7
     434:	e1a02008 	mov	r2, r8
     438:	e2860c7e 	add	r0, r6, #32256	; 0x7e00
     43c:	ebffff4c 	bl	174 <bl_get_binary>
     440:	e2505000 	subs	r5, r0, #0	; 0x0
     444:	0a000004 	beq	45c <bl_load_isi+0x174>
     448:	e59f003c 	ldr	r0, [pc, #60]	; 48c <bl_load_isi+0x1a4>
     44c:	eaffffc5 	b	368 <bl_load_isi+0x80>
     450:	e594200c 	ldr	r2, [r4, #12]
     454:	e1a00006 	mov	r0, r6
     458:	eb000461 	bl	15e4 <memmove>
     45c:	e1a01006 	mov	r1, r6
     460:	e1a0000d 	mov	r0, sp
     464:	ebffff79 	bl	250 <bl_check_data>
     468:	e1a05000 	mov	r5, r0
     46c:	e1a00005 	mov	r0, r5
     470:	e28ddc02 	add	sp, sp, #512	; 0x200
     474:	e8bd81f0 	pop	{r4, r5, r6, r7, r8, pc}
     478:	3c00a94c 	.word	0x3c00a94c
     47c:	000186f5 	.word	0x000186f5
     480:	00018739 	.word	0x00018739
     484:	00018756 	.word	0x00018756
     488:	00018771 	.word	0x00018771
     48c:	00018719 	.word	0x00018719

00000490 <try_boot>:
     490:	e92d4030 	push	{r4, r5, lr}
     494:	e3a03000 	mov	r3, #0	; 0x0
     498:	e24dd014 	sub	sp, sp, #20	; 0x14
     49c:	e3a02602 	mov	r2, #2097152	; 0x200000
     4a0:	e58d3008 	str	r3, [sp, #8]
     4a4:	e3a03000 	mov	r3, #0	; 0x0
     4a8:	e88d000c 	stm	sp, {r2, r3}
     4ac:	eb0000b3 	bl	780 <boot_device>
     4b0:	e58d000c 	str	r0, [sp, #12]
     4b4:	eb000bb4 	bl	338c <vs_device_bootable>
     4b8:	e3500000 	cmp	r0, #0	; 0x0
     4bc:	1a000007 	bne	4e0 <try_boot+0x50>
     4c0:	e59f3148 	ldr	r3, [pc, #328]	; 610 <try_boot+0x180>
     4c4:	e59d000c 	ldr	r0, [sp, #12]
     4c8:	e5934000 	ldr	r4, [r3]
     4cc:	eb000bd5 	bl	3428 <vs_device_name>
     4d0:	e1a01000 	mov	r1, r0
     4d4:	e59f0138 	ldr	r0, [pc, #312]	; 614 <try_boot+0x184>
     4d8:	e12fff34 	blx	r4
     4dc:	ea000049 	b	608 <try_boot+0x178>
     4e0:	e59d000c 	ldr	r0, [sp, #12]
     4e4:	eb000bc5 	bl	3400 <vs_device_boot0>
     4e8:	e3500000 	cmp	r0, #0	; 0x0
     4ec:	13a02000 	movne	r2, #0	; 0x0
     4f0:	13a03000 	movne	r3, #0	; 0x0
     4f4:	188d000c 	stmne	sp, {r2, r3}
     4f8:	e3a03000 	mov	r3, #0	; 0x0
     4fc:	e59d100c 	ldr	r1, [sp, #12]
     500:	e1a0200d 	mov	r2, sp
     504:	e3a0030f 	mov	r0, #1006632960	; 0x3c000000
     508:	ebffff76 	bl	2e8 <bl_load_isi>
     50c:	e3500000 	cmp	r0, #0	; 0x0
     510:	03a0330f 	moveq	r3, #1006632960	; 0x3c000000
     514:	05933008 	ldreq	r3, [r3, #8]
     518:	e3a00001 	mov	r0, #1	; 0x1
     51c:	03c33102 	biceq	r3, r3, #-2147483648	; 0x80000000
     520:	13a05000 	movne	r5, #0	; 0x0
     524:	03a05001 	moveq	r5, #1	; 0x1
     528:	058d3008 	streq	r3, [sp, #8]
     52c:	eb0002d4 	bl	1084 <ecfg_check_flag>
     530:	e3500000 	cmp	r0, #0	; 0x0
     534:	1a000011 	bne	580 <try_boot+0xf0>
     538:	eb000266 	bl	ed8 <get_reset_stats>
     53c:	e3500000 	cmp	r0, #0	; 0x0
     540:	13500002 	cmpne	r0, #2	; 0x2
     544:	e1a04000 	mov	r4, r0
     548:	1a00000c 	bne	580 <try_boot+0xf0>
     54c:	e3a0330f 	mov	r3, #1006632960	; 0x3c000000
     550:	e5933008 	ldr	r3, [r3, #8]
     554:	e3530000 	cmp	r3, #0	; 0x0
     558:	aa000002 	bge	568 <try_boot+0xd8>
     55c:	e3a00001 	mov	r0, #1	; 0x1
     560:	e59f10b0 	ldr	r1, [pc, #176]	; 618 <try_boot+0x188>
     564:	eb001047 	bl	4688 <cdbg_verify_burn_enable>
     568:	e3540002 	cmp	r4, #2	; 0x2
     56c:	1a000001 	bne	578 <try_boot+0xe8>
     570:	e28d0008 	add	r0, sp, #8	; 0x8
     574:	eb000264 	bl	f0c <update_mask_on_reset>
     578:	e59d0008 	ldr	r0, [sp, #8]
     57c:	eb001300 	bl	5184 <burn>
     580:	e3550000 	cmp	r5, #0	; 0x0
     584:	0a00001f 	beq	608 <try_boot+0x178>
     588:	e3a0330f 	mov	r3, #1006632960	; 0x3c000000
     58c:	e5933004 	ldr	r3, [r3, #4]
     590:	e3c334ff 	bic	r3, r3, #-16777216	; 0xff000000
     594:	e3530002 	cmp	r3, #2	; 0x2
     598:	1a000016 	bne	5f8 <try_boot+0x168>
     59c:	e3a01001 	mov	r1, #1	; 0x1
     5a0:	e59f0074 	ldr	r0, [pc, #116]	; 61c <try_boot+0x18c>
     5a4:	eb00109b 	bl	4818 <cdbg_do_config>
     5a8:	eb00024a 	bl	ed8 <get_reset_stats>
     5ac:	e3500001 	cmp	r0, #1	; 0x1
     5b0:	1a000000 	bne	5b8 <try_boot+0x128>
     5b4:	eb001059 	bl	4720 <cdbg_restore_os>
     5b8:	e28d000c 	add	r0, sp, #12	; 0xc
     5bc:	e1a0100d 	mov	r1, sp
     5c0:	eb001025 	bl	465c <cdbg_boot_redirect>
     5c4:	e1a0200d 	mov	r2, sp
     5c8:	e3a0030f 	mov	r0, #1006632960	; 0x3c000000
     5cc:	e59d100c 	ldr	r1, [sp, #12]
     5d0:	e3a03000 	mov	r3, #0	; 0x0
     5d4:	ebffff43 	bl	2e8 <bl_load_isi>
     5d8:	e3500000 	cmp	r0, #0	; 0x0
     5dc:	0a000005 	beq	5f8 <try_boot+0x168>
     5e0:	e1a01000 	mov	r1, r0
     5e4:	e59f3024 	ldr	r3, [pc, #36]	; 610 <try_boot+0x180>
     5e8:	e59f0030 	ldr	r0, [pc, #48]	; 620 <try_boot+0x190>
     5ec:	e1a0e00f 	mov	lr, pc
     5f0:	e593f000 	ldr	pc, [r3]
     5f4:	ea000003 	b	608 <try_boot+0x178>
     5f8:	e3a0330f 	mov	r3, #1006632960	; 0x3c000000
     5fc:	e5930014 	ldr	r0, [r3, #20]
     600:	eb00102b 	bl	46b4 <cdbg_jump>
     604:	eafffffe 	b	604 <try_boot+0x174>
     608:	eb001065 	bl	47a4 <cdbg_shell>
     60c:	eafffffe 	b	60c <try_boot+0x17c>
     610:	3c00a94c 	.word	0x3c00a94c
     614:	00018794 	.word	0x00018794
     618:	3c000100 	.word	0x3c000100
     61c:	3c000200 	.word	0x3c000200
     620:	000187ae 	.word	0x000187ae

00000624 <initialization>:
     624:	e52de004 	push	{lr}		; (str lr, [sp, #-4]!)
     628:	e24dd004 	sub	sp, sp, #4	; 0x4
     62c:	ebfffec7 	bl	150 <init_data_section>
     630:	eb000279 	bl	101c <init_efuse>
     634:	eb00002d 	bl	6f0 <init_xom>
     638:	eb000259 	bl	fa4 <init_mux>
     63c:	eb000103 	bl	a50 <init_lowlevel>
     640:	eb00021f 	bl	ec4 <init_igps_ram>
     644:	eb000507 	bl	1a68 <init_malloc>
     648:	eb002d00 	bl	ba50 <init_timer>
     64c:	eb002c80 	bl	b854 <init_serial>
     650:	eb0017da 	bl	65c0 <init_mmc>
     654:	eb001f40 	bl	835c <init_nand>
     658:	eb00023e 	bl	f58 <init_crypto>
     65c:	e3a00000 	mov	r0, #0	; 0x0
     660:	e28dd004 	add	sp, sp, #4	; 0x4
     664:	e8bd8000 	pop	{pc}

00000668 <main>:
     668:	e52de004 	push	{lr}		; (str lr, [sp, #-4]!)
     66c:	e3a00000 	mov	r0, #0	; 0x0
     670:	e24dd004 	sub	sp, sp, #4	; 0x4
     674:	eb000fd8 	bl	45dc <cdbg_log_toggle>
     678:	ebffffe9 	bl	624 <initialization>
     67c:	e3a00001 	mov	r0, #1	; 0x1
     680:	eb000fd5 	bl	45dc <cdbg_log_toggle>
     684:	e59f0018 	ldr	r0, [pc, #24]	; 6a4 <main+0x3c>
     688:	e59f3018 	ldr	r3, [pc, #24]	; 6a8 <main+0x40>
     68c:	e1a0e00f 	mov	lr, pc
     690:	e593f000 	ldr	pc, [r3]
     694:	e3a00000 	mov	r0, #0	; 0x0
     698:	eb000fcf 	bl	45dc <cdbg_log_toggle>
     69c:	ebffff7b 	bl	490 <try_boot>
     6a0:	eafffffe 	b	6a0 <main+0x38>
     6a4:	000187d1 	.word	0x000187d1
     6a8:	3c00a94c 	.word	0x3c00a94c

000006ac <get_xom>:
     6ac:	e3500000 	cmp	r0, #0	; 0x0
     6b0:	059f301c 	ldreq	r3, [pc, #28]	; 6d4 <get_xom+0x28>
     6b4:	159f301c 	ldrne	r3, [pc, #28]	; 6d8 <get_xom+0x2c>
     6b8:	05d3209c 	ldrbeq	r2, [r3, #156]
     6bc:	05d33098 	ldrbeq	r3, [r3, #152]
     6c0:	11d300b0 	ldrhne	r0, [r3]
     6c4:	01a033a3 	lsreq	r3, r3, #7
     6c8:	01833082 	orreq	r3, r3, r2, lsl #1
     6cc:	0203001f 	andeq	r0, r3, #31	; 0x1f
     6d0:	e12fff1e 	bx	lr
     6d4:	21e09100 	.word	0x21e09100
     6d8:	3c00a120 	.word	0x3c00a120

000006dc <set_xom>:
     6dc:	e59f3008 	ldr	r3, [pc, #8]	; 6ec <set_xom+0x10>
     6e0:	e200001f 	and	r0, r0, #31	; 0x1f
     6e4:	e1c300b0 	strh	r0, [r3]
     6e8:	e12fff1e 	bx	lr
     6ec:	3c00a120 	.word	0x3c00a120

000006f0 <init_xom>:
     6f0:	e59f301c 	ldr	r3, [pc, #28]	; 714 <init_xom+0x24>
     6f4:	e5d3209c 	ldrb	r2, [r3, #156]
     6f8:	e5d33098 	ldrb	r3, [r3, #152]
     6fc:	e1a033a3 	lsr	r3, r3, #7
     700:	e1833082 	orr	r3, r3, r2, lsl #1
     704:	e59f200c 	ldr	r2, [pc, #12]	; 718 <init_xom+0x28>
     708:	e203301f 	and	r3, r3, #31	; 0x1f
     70c:	e1c230b0 	strh	r3, [r2]
     710:	e12fff1e 	bx	lr
     714:	21e09100 	.word	0x21e09100
     718:	3c00a120 	.word	0x3c00a120

0000071c <boot_info>:
     71c:	e92d4010 	push	{r4, lr}
     720:	eb000263 	bl	10b4 <ecfg_paras>
     724:	e1a04000 	mov	r4, r0
     728:	e3a00b01 	mov	r0, #1024	; 0x400
     72c:	eb000254 	bl	1084 <ecfg_check_flag>
     730:	e59f3040 	ldr	r3, [pc, #64]	; 778 <boot_info+0x5c>
     734:	e3500000 	cmp	r0, #0	; 0x0
     738:	11d330b0 	ldrhne	r3, [r3]
     73c:	1203301f 	andne	r3, r3, #31	; 0x1f
     740:	1a000005 	bne	75c <boot_info+0x40>
     744:	e1d320b0 	ldrh	r2, [r3]
     748:	e2423010 	sub	r3, r2, #16	; 0x10
     74c:	e6ff3073 	uxth	r3, r3
     750:	e353000b 	cmp	r3, #11	; 0xb
     754:	9a000004 	bls	76c <boot_info+0x50>
     758:	e202301f 	and	r3, r2, #31	; 0x1f
     75c:	e59f2018 	ldr	r2, [pc, #24]	; 77c <boot_info+0x60>
     760:	e1a03083 	lsl	r3, r3, #1
     764:	e19200b3 	ldrh	r0, [r2, r3]
     768:	e8bd8010 	pop	{r4, pc}
     76c:	e1a03082 	lsl	r3, r2, #1
     770:	e19400b3 	ldrh	r0, [r4, r3]
     774:	e8bd8010 	pop	{r4, pc}
     778:	3c00a120 	.word	0x3c00a120
     77c:	000182f0 	.word	0x000182f0

00000780 <boot_device>:
     780:	e52de004 	push	{lr}		; (str lr, [sp, #-4]!)
     784:	e24dd004 	sub	sp, sp, #4	; 0x4
     788:	ebffffe3 	bl	71c <boot_info>
     78c:	e1a00620 	lsr	r0, r0, #12
     790:	e6ff0070 	uxth	r0, r0
     794:	e28dd004 	add	sp, sp, #4	; 0x4
     798:	e8bd8000 	pop	{pc}

0000079c <set_pll>:
     79c:	e3500003 	cmp	r0, #3	; 0x3
     7a0:	e92d45f0 	push	{r4, r5, r6, r7, r8, sl, lr}
     7a4:	e1a02001 	mov	r2, r1
     7a8:	88bd85f0 	pophi	{r4, r5, r6, r7, r8, sl, pc}
     7ac:	e3a03018 	mov	r3, #24	; 0x18
     7b0:	e0030093 	mul	r3, r3, r0
     7b4:	e59f808c 	ldr	r8, [pc, #140]	; 848 <set_pll+0xac>
     7b8:	e59f108c 	ldr	r1, [pc, #140]	; 84c <set_pll+0xb0>
     7bc:	e59f008c 	ldr	r0, [pc, #140]	; 850 <set_pll+0xb4>
     7c0:	e59fc08c 	ldr	ip, [pc, #140]	; 854 <set_pll+0xb8>
     7c4:	e59f408c 	ldr	r4, [pc, #140]	; 858 <set_pll+0xbc>
     7c8:	e59fa08c 	ldr	sl, [pc, #140]	; 85c <set_pll+0xc0>
     7cc:	e0838008 	add	r8, r3, r8
     7d0:	e083c00c 	add	ip, r3, ip
     7d4:	e0831001 	add	r1, r3, r1
     7d8:	e3a07001 	mov	r7, #1	; 0x1
     7dc:	e0830000 	add	r0, r3, r0
     7e0:	e1a06422 	lsr	r6, r2, #8
     7e4:	e0834004 	add	r4, r3, r4
     7e8:	e3a05000 	mov	r5, #0	; 0x0
     7ec:	e6ef2072 	uxtb	r2, r2
     7f0:	e083a00a 	add	sl, r3, sl
     7f4:	e3a03002 	mov	r3, #2	; 0x2
     7f8:	e5c87000 	strb	r7, [r8]
     7fc:	e5c12000 	strb	r2, [r1]
     800:	e5c06000 	strb	r6, [r0]
     804:	e5cc5000 	strb	r5, [ip]
     808:	e5c43000 	strb	r3, [r4]
     80c:	e0833007 	add	r3, r3, r7
     810:	e5c83000 	strb	r3, [r8]
     814:	e1a02005 	mov	r2, r5
     818:	e5cc7000 	strb	r7, [ip]
     81c:	e3011a0a 	movw	r1, #6666	; 0x1a0a
     820:	ea000001 	b	82c <set_pll+0x90>
     824:	e1520001 	cmp	r2, r1
     828:	0a000003 	beq	83c <set_pll+0xa0>
     82c:	e5da3000 	ldrb	r3, [sl]
     830:	e2822001 	add	r2, r2, #1	; 0x1
     834:	e3130001 	tst	r3, #1	; 0x1
     838:	0afffff9 	beq	824 <set_pll+0x88>
     83c:	e3a03002 	mov	r3, #2	; 0x2
     840:	e5883000 	str	r3, [r8]
     844:	e8bd85f0 	pop	{r4, r5, r6, r7, r8, sl, pc}
     848:	21e0a00c 	.word	0x21e0a00c
     84c:	21e0a000 	.word	0x21e0a000
     850:	21e0a004 	.word	0x21e0a004
     854:	21e0a010 	.word	0x21e0a010
     858:	21e0a008 	.word	0x21e0a008
     85c:	21e0a014 	.word	0x21e0a014

00000860 <set_clk_divider>:
     860:	e3500005 	cmp	r0, #5	; 0x5
     864:	812fff1e 	bxhi	lr
     868:	e59fc020 	ldr	ip, [pc, #32]	; 890 <set_clk_divider+0x30>
     86c:	e1a03280 	lsl	r3, r0, #5
     870:	e083c00c 	add	ip, r3, ip
     874:	e3a02000 	mov	r2, #0	; 0x0
     878:	e7d13002 	ldrb	r3, [r1, r2]
     87c:	e2822001 	add	r2, r2, #1	; 0x1
     880:	e3520008 	cmp	r2, #8	; 0x8
     884:	e4cc3004 	strb	r3, [ip], #4
     888:	1afffffa 	bne	878 <set_clk_divider+0x18>
     88c:	e12fff1e 	bx	lr
     890:	21e0a070 	.word	0x21e0a070

00000894 <module_set_clock>:
     894:	e3a03001 	mov	r3, #1	; 0x1
     898:	e580300c 	str	r3, [r0, #12]
     89c:	e2011007 	and	r1, r1, #7	; 0x7
     8a0:	e3a03000 	mov	r3, #0	; 0x0
     8a4:	e5801000 	str	r1, [r0]
     8a8:	e5802004 	str	r2, [r0, #4]
     8ac:	e580300c 	str	r3, [r0, #12]
     8b0:	e12fff1e 	bx	lr

000008b4 <set_clk>:
     8b4:	e92d45f0 	push	{r4, r5, r6, r7, r8, sl, lr}
     8b8:	e1d010b2 	ldrh	r1, [r0, #2]
     8bc:	e24dd004 	sub	sp, sp, #4	; 0x4
     8c0:	e3510000 	cmp	r1, #0	; 0x0
     8c4:	e1a04000 	mov	r4, r0
     8c8:	0a000001 	beq	8d4 <set_clk+0x20>
     8cc:	e3a00001 	mov	r0, #1	; 0x1
     8d0:	ebffffb1 	bl	79c <set_pll>
     8d4:	e1d410b4 	ldrh	r1, [r4, #4]
     8d8:	e3510000 	cmp	r1, #0	; 0x0
     8dc:	0a000001 	beq	8e8 <set_clk+0x34>
     8e0:	e3a00002 	mov	r0, #2	; 0x2
     8e4:	ebffffac 	bl	79c <set_pll>
     8e8:	e1d410b6 	ldrh	r1, [r4, #6]
     8ec:	e3510000 	cmp	r1, #0	; 0x0
     8f0:	0a000001 	beq	8fc <set_clk+0x48>
     8f4:	e3a00003 	mov	r0, #3	; 0x3
     8f8:	ebffffa7 	bl	79c <set_pll>
     8fc:	e59f3108 	ldr	r3, [pc, #264]	; a0c <set_clk+0x158>
     900:	e3a01001 	mov	r1, #1	; 0x1
     904:	e3a00000 	mov	r0, #0	; 0x0
     908:	e3a02003 	mov	r2, #3	; 0x3
     90c:	e583119c 	str	r1, [r3, #412]
     910:	e3a0400b 	mov	r4, #11	; 0xb
     914:	e5830190 	str	r0, [r3, #400]
     918:	e1a06002 	mov	r6, r2
     91c:	e5832194 	str	r2, [r3, #404]
     920:	e2822010 	add	r2, r2, #16	; 0x10
     924:	e583019c 	str	r0, [r3, #412]
     928:	e3a0c002 	mov	ip, #2	; 0x2
     92c:	e583125c 	str	r1, [r3, #604]
     930:	e5831250 	str	r1, [r3, #592]
     934:	e5834254 	str	r4, [r3, #596]
     938:	e583025c 	str	r0, [r3, #604]
     93c:	e583127c 	str	r1, [r3, #636]
     940:	e5831270 	str	r1, [r3, #624]
     944:	e5834274 	str	r4, [r3, #628]
     948:	e583027c 	str	r0, [r3, #636]
     94c:	e58312cc 	str	r1, [r3, #716]
     950:	e58312c0 	str	r1, [r3, #704]
     954:	e58322c4 	str	r2, [r3, #708]
     958:	e3a0200f 	mov	r2, #15	; 0xf
     95c:	e58302cc 	str	r0, [r3, #716]
     960:	e583124c 	str	r1, [r3, #588]
     964:	e583c240 	str	ip, [r3, #576]
     968:	e5832244 	str	r2, [r3, #580]
     96c:	e3a02005 	mov	r2, #5	; 0x5
     970:	e583024c 	str	r0, [r3, #588]
     974:	e59f5094 	ldr	r5, [pc, #148]	; a10 <set_clk+0x15c>
     978:	e58312fc 	str	r1, [r3, #764]
     97c:	e59fa090 	ldr	sl, [pc, #144]	; a14 <set_clk+0x160>
     980:	e583c2f0 	str	ip, [r3, #752]
     984:	e58322f4 	str	r2, [r3, #756]
     988:	e2822014 	add	r2, r2, #20	; 0x14
     98c:	e58302fc 	str	r0, [r3, #764]
     990:	e1a08001 	mov	r8, r1
     994:	e58312dc 	str	r1, [r3, #732]
     998:	e1a07000 	mov	r7, r0
     99c:	e583c2d0 	str	ip, [r3, #720]
     9a0:	e58342d4 	str	r4, [r3, #724]
     9a4:	e58302dc 	str	r0, [r3, #732]
     9a8:	e583129c 	str	r1, [r3, #668]
     9ac:	e583c290 	str	ip, [r3, #656]
     9b0:	e5832294 	str	r2, [r3, #660]
     9b4:	e583029c 	str	r0, [r3, #668]
     9b8:	e5858000 	str	r8, [r5]
     9bc:	e505600c 	str	r6, [r5, #-12]
     9c0:	e5056008 	str	r6, [r5, #-8]
     9c4:	e4857010 	str	r7, [r5], #16
     9c8:	e155000a 	cmp	r5, sl
     9cc:	e3a01001 	mov	r1, #1	; 0x1
     9d0:	e3a02003 	mov	r2, #3	; 0x3
     9d4:	e3a00000 	mov	r0, #0	; 0x0
     9d8:	1afffff6 	bne	9b8 <set_clk+0x104>
     9dc:	e59f3028 	ldr	r3, [pc, #40]	; a0c <set_clk+0x158>
     9e0:	e583132c 	str	r1, [r3, #812]
     9e4:	e5832320 	str	r2, [r3, #800]
     9e8:	e5832324 	str	r2, [r3, #804]
     9ec:	e583032c 	str	r0, [r3, #812]
     9f0:	e583126c 	str	r1, [r3, #620]
     9f4:	e5832260 	str	r2, [r3, #608]
     9f8:	e2822010 	add	r2, r2, #16	; 0x10
     9fc:	e5832264 	str	r2, [r3, #612]
     a00:	e583026c 	str	r0, [r3, #620]
     a04:	e28dd004 	add	sp, sp, #4	; 0x4
     a08:	e8bd85f0 	pop	{r4, r5, r6, r7, r8, sl, pc}
     a0c:	21e0a000 	.word	0x21e0a000
     a10:	21e0a13c 	.word	0x21e0a13c
     a14:	21e0a19c 	.word	0x21e0a19c

00000a18 <module_enable>:
     a18:	e3a020ff 	mov	r2, #255	; 0xff
     a1c:	e3a01000 	mov	r1, #0	; 0x0
     a20:	e3a03011 	mov	r3, #17	; 0x11
     a24:	e580100c 	str	r1, [r0, #12]
     a28:	e5802000 	str	r2, [r0]
     a2c:	e5802004 	str	r2, [r0, #4]
     a30:	e5803008 	str	r3, [r0, #8]
     a34:	e5903008 	ldr	r3, [r0, #8]
     a38:	e3c33010 	bic	r3, r3, #16	; 0x10
     a3c:	e5803008 	str	r3, [r0, #8]
     a40:	e5802018 	str	r2, [r0, #24]
     a44:	e5801000 	str	r1, [r0]
     a48:	e580200c 	str	r2, [r0, #12]
     a4c:	e12fff1e 	bx	lr

00000a50 <init_lowlevel>:
     a50:	e52de004 	push	{lr}		; (str lr, [sp, #-4]!)
     a54:	e24dd044 	sub	sp, sp, #68	; 0x44
     a58:	e3a01000 	mov	r1, #0	; 0x0
     a5c:	e3a02040 	mov	r2, #64	; 0x40
     a60:	e1a0000d 	mov	r0, sp
     a64:	eb0002cd 	bl	15a0 <memset>
     a68:	e3a03063 	mov	r3, #99	; 0x63
     a6c:	e5cd3010 	strb	r3, [sp, #16]
     a70:	e3e03073 	mvn	r3, #115	; 0x73
     a74:	e5cd3011 	strb	r3, [sp, #17]
     a78:	e28330a5 	add	r3, r3, #165	; 0xa5
     a7c:	e5cd3012 	strb	r3, [sp, #18]
     a80:	e3a0301f 	mov	r3, #31	; 0x1f
     a84:	e5cd3018 	strb	r3, [sp, #24]
     a88:	e283305d 	add	r3, r3, #93	; 0x5d
     a8c:	e5cd3019 	strb	r3, [sp, #25]
     a90:	e3e0300f 	mvn	r3, #15	; 0xf
     a94:	e5cd301a 	strb	r3, [sp, #26]
     a98:	e2833020 	add	r3, r3, #32	; 0x20
     a9c:	e5cd3020 	strb	r3, [sp, #32]
     aa0:	e2833032 	add	r3, r3, #50	; 0x32
     aa4:	e5cd3021 	strb	r3, [sp, #33]
     aa8:	e3a03002 	mov	r3, #2	; 0x2
     aac:	e5cd3029 	strb	r3, [sp, #41]
     ab0:	e3e0301f 	mvn	r3, #31	; 0x1f
     ab4:	e5cd3030 	strb	r3, [sp, #48]
     ab8:	e3e0307c 	mvn	r3, #124	; 0x7c
     abc:	e5cd3031 	strb	r3, [sp, #49]
     ac0:	e283308c 	add	r3, r3, #140	; 0x8c
     ac4:	e3a02008 	mov	r2, #8	; 0x8
     ac8:	e5cd3032 	strb	r3, [sp, #50]
     acc:	e3a03001 	mov	r3, #1	; 0x1
     ad0:	e5cd202a 	strb	r2, [sp, #42]
     ad4:	e58d3038 	str	r3, [sp, #56]
     ad8:	e5cd2022 	strb	r2, [sp, #34]
     adc:	e3a01000 	mov	r1, #0	; 0x0
     ae0:	e3e00000 	mvn	r0, #0	; 0x0
     ae4:	e59f3044 	ldr	r3, [pc, #68]	; b30 <init_lowlevel+0xe0>
     ae8:	e1a02101 	lsl	r2, r1, #2
     aec:	e2811001 	add	r1, r1, #1	; 0x1
     af0:	e0823003 	add	r3, r2, r3
     af4:	e3510008 	cmp	r1, #8	; 0x8
     af8:	e5830000 	str	r0, [r3]
     afc:	1afffff8 	bne	ae4 <init_lowlevel+0x94>
     b00:	e3012042 	movw	r2, #4162	; 0x1042
     b04:	e28d0040 	add	r0, sp, #64	; 0x40
     b08:	e3013031 	movw	r3, #4145	; 0x1031
     b0c:	e16024b0 	strh	r2, [r0, #-64]!
     b10:	e1cd30b4 	strh	r3, [sp, #4]
     b14:	e1a0000d 	mov	r0, sp
     b18:	e302304f 	movw	r3, #8271	; 0x204f
     b1c:	e1cd30b2 	strh	r3, [sp, #2]
     b20:	e1cd20b6 	strh	r2, [sp, #6]
     b24:	ebffff62 	bl	8b4 <set_clk>
     b28:	e28dd044 	add	sp, sp, #68	; 0x44
     b2c:	e8bd8000 	pop	{pc}
     b30:	21b01180 	.word	0x21b01180

00000b34 <pads_states>:
     b34:	e2002007 	and	r2, r0, #7	; 0x7
     b38:	e3a03001 	mov	r3, #1	; 0x1
     b3c:	e1a02213 	lsl	r2, r3, r2
     b40:	e3500000 	cmp	r0, #0	; 0x0
     b44:	e2803007 	add	r3, r0, #7	; 0x7
     b48:	b1a00003 	movlt	r0, r3
     b4c:	e1a001c0 	asr	r0, r0, #3
     b50:	e59f302c 	ldr	r3, [pc, #44]	; b84 <pads_states+0x50>
     b54:	e1a01100 	lsl	r1, r0, #2
     b58:	e0813003 	add	r3, r1, r3
     b5c:	e5933000 	ldr	r3, [r3]
     b60:	e0130002 	ands	r0, r3, r2
     b64:	012fff1e 	bxeq	lr
     b68:	e59f3018 	ldr	r3, [pc, #24]	; b88 <pads_states+0x54>
     b6c:	e0813003 	add	r3, r1, r3
     b70:	e5933000 	ldr	r3, [r3]
     b74:	e1130002 	tst	r3, r2
     b78:	13a00001 	movne	r0, #1	; 0x1
     b7c:	03a00002 	moveq	r0, #2	; 0x2
     b80:	e12fff1e 	bx	lr
     b84:	21e09064 	.word	0x21e09064
     b88:	21e090b4 	.word	0x21e090b4

00000b8c <pads_chmod>:
     b8c:	e92d4ff0 	push	{r4, r5, r6, r7, r8, r9, sl, fp, lr}
     b90:	e1b07840 	asrs	r7, r0, #16
     b94:	e1a00800 	lsl	r0, r0, #16
     b98:	03a03000 	moveq	r3, #0	; 0x0
     b9c:	13a03001 	movne	r3, #1	; 0x1
     ba0:	e1a00820 	lsr	r0, r0, #16
     ba4:	e1570000 	cmp	r7, r0
     ba8:	a3a03000 	movge	r3, #0	; 0x0
     bac:	b2033001 	andlt	r3, r3, #1	; 0x1
     bb0:	e3530000 	cmp	r3, #0	; 0x0
     bb4:	e24dd004 	sub	sp, sp, #4	; 0x4
     bb8:	e1a06001 	mov	r6, r1
     bbc:	e1a09002 	mov	r9, r2
     bc0:	1a000048 	bne	ce8 <pads_chmod+0x15c>
     bc4:	e3570000 	cmp	r7, #0	; 0x0
     bc8:	01a07000 	moveq	r7, r0
     bcc:	e1a05000 	mov	r5, r0
     bd0:	e240801f 	sub	r8, r0, #31	; 0x1f
     bd4:	e59fb114 	ldr	fp, [pc, #276]	; cf0 <pads_chmod+0x164>
     bd8:	e3a0a001 	mov	sl, #1	; 0x1
     bdc:	ea00003f 	b	ce0 <pads_chmod+0x154>
     be0:	e3550000 	cmp	r5, #0	; 0x0
     be4:	e2853007 	add	r3, r5, #7	; 0x7
     be8:	a1a03005 	movge	r3, r5
     bec:	e3580006 	cmp	r8, #6	; 0x6
     bf0:	e1a011c3 	asr	r1, r3, #3
     bf4:	959b3008 	ldrls	r3, [fp, #8]
     bf8:	e205c007 	and	ip, r5, #7	; 0x7
     bfc:	9183381a 	orrls	r3, r3, sl, lsl r8
     c00:	958b3008 	strls	r3, [fp, #8]
     c04:	e3560001 	cmp	r6, #1	; 0x1
     c08:	0a00000a 	beq	c38 <pads_chmod+0xac>
     c0c:	e3560002 	cmp	r6, #2	; 0x2
     c10:	0a000015 	beq	c6c <pads_chmod+0xe0>
     c14:	e3560000 	cmp	r6, #0	; 0x0
     c18:	1a000029 	bne	cc4 <pads_chmod+0x138>
     c1c:	e59f30d0 	ldr	r3, [pc, #208]	; cf4 <pads_chmod+0x168>
     c20:	e1a02101 	lsl	r2, r1, #2
     c24:	e0823003 	add	r3, r2, r3
     c28:	e5932000 	ldr	r2, [r3]
     c2c:	e1c22c1a 	bic	r2, r2, sl, lsl ip
     c30:	e5832000 	str	r2, [r3]
     c34:	ea000027 	b	cd8 <pads_chmod+0x14c>
     c38:	e1a0cc16 	lsl	ip, r6, ip
     c3c:	e59f20b0 	ldr	r2, [pc, #176]	; cf4 <pads_chmod+0x168>
     c40:	e1a00101 	lsl	r0, r1, #2
     c44:	e0802002 	add	r2, r0, r2
     c48:	e5923000 	ldr	r3, [r2]
     c4c:	e59f10a4 	ldr	r1, [pc, #164]	; cf8 <pads_chmod+0x16c>
     c50:	e183300c 	orr	r3, r3, ip
     c54:	e5823000 	str	r3, [r2]
     c58:	e0801001 	add	r1, r0, r1
     c5c:	e5913000 	ldr	r3, [r1]
     c60:	e183300c 	orr	r3, r3, ip
     c64:	e5813000 	str	r3, [r1]
     c68:	ea00001a 	b	cd8 <pads_chmod+0x14c>
     c6c:	e1a00c1a 	lsl	r0, sl, ip
     c70:	e59f207c 	ldr	r2, [pc, #124]	; cf4 <pads_chmod+0x168>
     c74:	e1a01101 	lsl	r1, r1, #2
     c78:	e0812002 	add	r2, r1, r2
     c7c:	e5923000 	ldr	r3, [r2]
     c80:	e59fc070 	ldr	ip, [pc, #112]	; cf8 <pads_chmod+0x16c>
     c84:	e1833000 	orr	r3, r3, r0
     c88:	e5823000 	str	r3, [r2]
     c8c:	e081c00c 	add	ip, r1, ip
     c90:	e59c3000 	ldr	r3, [ip]
     c94:	e1e04000 	mvn	r4, r0
     c98:	e59f205c 	ldr	r2, [pc, #92]	; cfc <pads_chmod+0x170>
     c9c:	e0033004 	and	r3, r3, r4
     ca0:	e58c3000 	str	r3, [ip]
     ca4:	e3590000 	cmp	r9, #0	; 0x0
     ca8:	e0812002 	add	r2, r1, r2
     cac:	15923000 	ldrne	r3, [r2]
     cb0:	05923000 	ldreq	r3, [r2]
     cb4:	11833000 	orrne	r3, r3, r0
     cb8:	00033004 	andeq	r3, r3, r4
     cbc:	e58c3000 	str	r3, [ip]
     cc0:	ea000004 	b	cd8 <pads_chmod+0x14c>
     cc4:	e59f0034 	ldr	r0, [pc, #52]	; d00 <pads_chmod+0x174>
     cc8:	e1a01006 	mov	r1, r6
     ccc:	e59f3030 	ldr	r3, [pc, #48]	; d04 <pads_chmod+0x178>
     cd0:	e1a0e00f 	mov	lr, pc
     cd4:	e593f000 	ldr	pc, [r3]
     cd8:	e2855001 	add	r5, r5, #1	; 0x1
     cdc:	e2888001 	add	r8, r8, #1	; 0x1
     ce0:	e1550007 	cmp	r5, r7
     ce4:	daffffbd 	ble	be0 <pads_chmod+0x54>
     ce8:	e28dd004 	add	sp, sp, #4	; 0x4
     cec:	e8bd8ff0 	pop	{r4, r5, r6, r7, r8, r9, sl, fp, pc}
     cf0:	21e09000 	.word	0x21e09000
     cf4:	21e09064 	.word	0x21e09064
     cf8:	21e090b4 	.word	0x21e090b4
     cfc:	21e09104 	.word	0x21e09104
     d00:	000187d6 	.word	0x000187d6
     d04:	3c00a94c 	.word	0x3c00a94c

00000d08 <pads_pull>:
     d08:	e92d45f0 	push	{r4, r5, r6, r7, r8, sl, lr}
     d0c:	e1b06840 	asrs	r6, r0, #16
     d10:	e1a00800 	lsl	r0, r0, #16
     d14:	03a03000 	moveq	r3, #0	; 0x0
     d18:	13a03001 	movne	r3, #1	; 0x1
     d1c:	e1a00820 	lsr	r0, r0, #16
     d20:	e1560000 	cmp	r6, r0
     d24:	a3a03000 	movge	r3, #0	; 0x0
     d28:	b2033001 	andlt	r3, r3, #1	; 0x1
     d2c:	e3530000 	cmp	r3, #0	; 0x0
     d30:	e1a0a001 	mov	sl, r1
     d34:	e1a08002 	mov	r8, r2
     d38:	18bd85f0 	popne	{r4, r5, r6, r7, r8, sl, pc}
     d3c:	e3560000 	cmp	r6, #0	; 0x0
     d40:	01a06000 	moveq	r6, r0
     d44:	e1a01000 	mov	r1, r0
     d48:	e240501f 	sub	r5, r0, #31	; 0x1f
     d4c:	e3a07001 	mov	r7, #1	; 0x1
     d50:	ea00001e 	b	dd0 <pads_pull+0xc8>
     d54:	e3510000 	cmp	r1, #0	; 0x0
     d58:	e2813007 	add	r3, r1, #7	; 0x7
     d5c:	a1a03001 	movge	r3, r1
     d60:	e1a031c3 	asr	r3, r3, #3
     d64:	e35a0000 	cmp	sl, #0	; 0x0
     d68:	e1a00103 	lsl	r0, r3, #2
     d6c:	e2014007 	and	r4, r1, #7	; 0x7
     d70:	059f2064 	ldreq	r2, [pc, #100]	; ddc <pads_pull+0xd4>
     d74:	00802002 	addeq	r2, r0, r2
     d78:	05923000 	ldreq	r3, [r2]
     d7c:	01c33417 	biceq	r3, r3, r7, lsl r4
     d80:	0a00000f 	beq	dc4 <pads_pull+0xbc>
     d84:	e3550006 	cmp	r5, #6	; 0x6
     d88:	859f2050 	ldrhi	r2, [pc, #80]	; de0 <pads_pull+0xd8>
     d8c:	959f2050 	ldrls	r2, [pc, #80]	; de4 <pads_pull+0xdc>
     d90:	80802002 	addhi	r2, r0, r2
     d94:	91a0c005 	movls	ip, r5
     d98:	81a0c004 	movhi	ip, r4
     d9c:	e3580000 	cmp	r8, #0	; 0x0
     da0:	15923000 	ldrne	r3, [r2]
     da4:	05923000 	ldreq	r3, [r2]
     da8:	11833c17 	orrne	r3, r3, r7, lsl ip
     dac:	01c33c17 	biceq	r3, r3, r7, lsl ip
     db0:	e5823000 	str	r3, [r2]
     db4:	e59f2020 	ldr	r2, [pc, #32]	; ddc <pads_pull+0xd4>
     db8:	e0802002 	add	r2, r0, r2
     dbc:	e5923000 	ldr	r3, [r2]
     dc0:	e1833417 	orr	r3, r3, r7, lsl r4
     dc4:	e5823000 	str	r3, [r2]
     dc8:	e2811001 	add	r1, r1, #1	; 0x1
     dcc:	e2855001 	add	r5, r5, #1	; 0x1
     dd0:	e1510006 	cmp	r1, r6
     dd4:	daffffde 	ble	d54 <pads_pull+0x4c>
     dd8:	e8bd85f0 	pop	{r4, r5, r6, r7, r8, sl, pc}
     ddc:	21e09014 	.word	0x21e09014
     de0:	21e091a4 	.word	0x21e091a4
     de4:	21e0900c 	.word	0x21e0900c

00000de8 <pads_setpin>:
     de8:	e92d41f0 	push	{r4, r5, r6, r7, r8, lr}
     dec:	e1b06840 	asrs	r6, r0, #16
     df0:	e1a00800 	lsl	r0, r0, #16
     df4:	03a03000 	moveq	r3, #0	; 0x0
     df8:	13a03001 	movne	r3, #1	; 0x1
     dfc:	e1a00820 	lsr	r0, r0, #16
     e00:	e1560000 	cmp	r6, r0
     e04:	a3a03000 	movge	r3, #0	; 0x0
     e08:	b2033001 	andlt	r3, r3, #1	; 0x1
     e0c:	e3530000 	cmp	r3, #0	; 0x0
     e10:	e1a07001 	mov	r7, r1
     e14:	18bd81f0 	popne	{r4, r5, r6, r7, r8, pc}
     e18:	e3560000 	cmp	r6, #0	; 0x0
     e1c:	01a06000 	moveq	r6, r0
     e20:	e3a08001 	mov	r8, #1	; 0x1
     e24:	ea000010 	b	e6c <pads_setpin+0x84>
     e28:	e3500000 	cmp	r0, #0	; 0x0
     e2c:	a1a03000 	movge	r3, r0
     e30:	e1a031c3 	asr	r3, r3, #3
     e34:	e1a03103 	lsl	r3, r3, #2
     e38:	e3570000 	cmp	r7, #0	; 0x0
     e3c:	e0834004 	add	r4, r3, r4
     e40:	e0831001 	add	r1, r3, r1
     e44:	e0835005 	add	r5, r3, r5
     e48:	e083c00c 	add	ip, r3, ip
     e4c:	15913000 	ldrne	r3, [r1]
     e50:	05943000 	ldreq	r3, [r4]
     e54:	e2002007 	and	r2, r0, #7	; 0x7
     e58:	11833218 	orrne	r3, r3, r8, lsl r2
     e5c:	01c33218 	biceq	r3, r3, r8, lsl r2
     e60:	158c3000 	strne	r3, [ip]
     e64:	05853000 	streq	r3, [r5]
     e68:	e2800001 	add	r0, r0, #1	; 0x1
     e6c:	e59f4018 	ldr	r4, [pc, #24]	; e8c <pads_setpin+0xa4>
     e70:	e59f5018 	ldr	r5, [pc, #24]	; e90 <pads_setpin+0xa8>
     e74:	e1500006 	cmp	r0, r6
     e78:	e1a01004 	mov	r1, r4
     e7c:	e2803007 	add	r3, r0, #7	; 0x7
     e80:	e1a0c005 	mov	ip, r5
     e84:	daffffe7 	ble	e28 <pads_setpin+0x40>
     e88:	e8bd81f0 	pop	{r4, r5, r6, r7, r8, pc}
     e8c:	21e09104 	.word	0x21e09104
     e90:	21e090b4 	.word	0x21e090b4

00000e94 <pads_getpin>:
     e94:	e6ff3070 	uxth	r3, r0
     e98:	e59f2020 	ldr	r2, [pc, #32]	; ec0 <pads_getpin+0x2c>
     e9c:	e1a031c3 	asr	r3, r3, #3
     ea0:	e0822103 	add	r2, r2, r3, lsl #2
     ea4:	e2000007 	and	r0, r0, #7	; 0x7
     ea8:	e3a03001 	mov	r3, #1	; 0x1
     eac:	e0022013 	and	r2, r2, r3, lsl r0
     eb0:	e5920000 	ldr	r0, [r2]
     eb4:	e2500000 	subs	r0, r0, #0	; 0x0
     eb8:	13a00001 	movne	r0, #1	; 0x1
     ebc:	e12fff1e 	bx	lr
     ec0:	21e09154 	.word	0x21e09154

00000ec4 <init_igps_ram>:
     ec4:	e59f3008 	ldr	r3, [pc, #8]	; ed4 <init_igps_ram+0x10>
     ec8:	e3a02001 	mov	r2, #1	; 0x1
     ecc:	e5832c10 	str	r2, [r3, #3088]
     ed0:	e12fff1e 	bx	lr
     ed4:	21e0a000 	.word	0x21e0a000

00000ed8 <get_reset_stats>:
     ed8:	e59f2028 	ldr	r2, [pc, #40]	; f08 <get_reset_stats+0x30>
     edc:	e5923c10 	ldr	r3, [r2, #3088]
     ee0:	e2130002 	ands	r0, r3, #2	; 0x2
     ee4:	012fff1e 	bxeq	lr
     ee8:	e5920c2c 	ldr	r0, [r2, #3116]
     eec:	e3100001 	tst	r0, #1	; 0x1
     ef0:	03a00001 	moveq	r0, #1	; 0x1
     ef4:	012fff1e 	bxeq	lr
     ef8:	e3500037 	cmp	r0, #55	; 0x37
     efc:	03a00002 	moveq	r0, #2	; 0x2
     f00:	13a00003 	movne	r0, #3	; 0x3
     f04:	e12fff1e 	bx	lr
     f08:	21e09000 	.word	0x21e09000

00000f0c <update_mask_on_reset>:
     f0c:	e59f3018 	ldr	r3, [pc, #24]	; f2c <update_mask_on_reset+0x20>
     f10:	e5932c30 	ldr	r2, [r3, #3120]
     f14:	e3120080 	tst	r2, #128	; 0x80
     f18:	13a03001 	movne	r3, #1	; 0x1
     f1c:	1202200f 	andne	r2, r2, #15	; 0xf
     f20:	11e03213 	mvnne	r3, r3, lsl r2
     f24:	15803000 	strne	r3, [r0]
     f28:	e12fff1e 	bx	lr
     f2c:	21e09000 	.word	0x21e09000

00000f30 <get_wakeup_entry>:
     f30:	e59f301c 	ldr	r3, [pc, #28]	; f54 <get_wakeup_entry+0x24>
     f34:	e5931c38 	ldr	r1, [r3, #3128]
     f38:	e5932c34 	ldr	r2, [r3, #3124]
     f3c:	e5930c30 	ldr	r0, [r3, #3120]
     f40:	e1822401 	orr	r2, r2, r1, lsl #8
     f44:	e5933c2c 	ldr	r3, [r3, #3116]
     f48:	e1800402 	orr	r0, r0, r2, lsl #8
     f4c:	e1830400 	orr	r0, r3, r0, lsl #8
     f50:	e12fff1e 	bx	lr
     f54:	21e09000 	.word	0x21e09000

00000f58 <init_crypto>:
     f58:	e52de004 	push	{lr}		; (str lr, [sp, #-4]!)
     f5c:	e3a00801 	mov	r0, #65536	; 0x10000
     f60:	e24dd004 	sub	sp, sp, #4	; 0x4
     f64:	eb000046 	bl	1084 <ecfg_check_flag>
     f68:	e3500000 	cmp	r0, #0	; 0x0
     f6c:	0a000009 	beq	f98 <init_crypto+0x40>
     f70:	e59f0028 	ldr	r0, [pc, #40]	; fa0 <init_crypto+0x48>
     f74:	ebfffea7 	bl	a18 <module_enable>
     f78:	e3a00000 	mov	r0, #0	; 0x0
     f7c:	e3a01001 	mov	r1, #1	; 0x1
     f80:	eb000c05 	bl	3f9c <security_cke_control>
     f84:	e3a00001 	mov	r0, #1	; 0x1
     f88:	e1a01000 	mov	r1, r0
     f8c:	e28dd004 	add	sp, sp, #4	; 0x4
     f90:	e49de004 	pop	{lr}		; (ldr lr, [sp], #4)
     f94:	ea000c00 	b	3f9c <security_cke_control>
     f98:	e28dd004 	add	sp, sp, #4	; 0x4
     f9c:	e8bd8000 	pop	{pc}
     fa0:	21e28800 	.word	0x21e28800

00000fa4 <init_mux>:
     fa4:	e52de004 	push	{lr}		; (str lr, [sp, #-4]!)
     fa8:	e3a00001 	mov	r0, #1	; 0x1
     fac:	e24dd004 	sub	sp, sp, #4	; 0x4
     fb0:	ebfffdbd 	bl	6ac <get_xom>
     fb4:	e2403001 	sub	r3, r0, #1	; 0x1
     fb8:	e3530002 	cmp	r3, #2	; 0x2
     fbc:	93a00017 	movls	r0, #23	; 0x17
     fc0:	9a000009 	bls	fec <init_mux+0x48>
     fc4:	e2403004 	sub	r3, r0, #4	; 0x4
     fc8:	e3530002 	cmp	r3, #2	; 0x2
     fcc:	8a000002 	bhi	fdc <init_mux+0x38>
     fd0:	ebfffdd1 	bl	71c <boot_info>
     fd4:	e200001f 	and	r0, r0, #31	; 0x1f
     fd8:	ea000003 	b	fec <init_mux+0x48>
     fdc:	e2403014 	sub	r3, r0, #20	; 0x14
     fe0:	e3530007 	cmp	r3, #7	; 0x7
     fe4:	93a0000b 	movls	r0, #11	; 0xb
     fe8:	83a0001b 	movhi	r0, #27	; 0x1b
     fec:	e28dd004 	add	sp, sp, #4	; 0x4
     ff0:	e49de004 	pop	{lr}		; (ldr lr, [sp], #4)
     ff4:	ea0000ee 	b	13b4 <set_mux>

00000ff8 <module_reset>:
     ff8:	e3a030ff 	mov	r3, #255	; 0xff
     ffc:	e5803000 	str	r3, [r0]
    1000:	e92d4010 	push	{r4, lr}
    1004:	e1a04000 	mov	r4, r0
    1008:	e3a0000a 	mov	r0, #10	; 0xa
    100c:	eb002a4b 	bl	b940 <udelay>
    1010:	e3a03000 	mov	r3, #0	; 0x0
    1014:	e5843000 	str	r3, [r4]
    1018:	e8bd8010 	pop	{r4, pc}

0000101c <init_efuse>:
    101c:	e59f204c 	ldr	r2, [pc, #76]	; 1070 <init_efuse+0x54>
    1020:	e5923000 	ldr	r3, [r2]
    1024:	e2133001 	ands	r3, r3, #1	; 0x1
    1028:	1afffffc 	bne	1020 <init_efuse+0x4>
    102c:	e59f1040 	ldr	r1, [pc, #64]	; 1074 <init_efuse+0x58>
    1030:	e59f0040 	ldr	r0, [pc, #64]	; 1078 <init_efuse+0x5c>
    1034:	e1a02003 	mov	r2, r3
    1038:	e4913004 	ldr	r3, [r1], #4
    103c:	e7c03002 	strb	r3, [r0, r2]
    1040:	e2822001 	add	r2, r2, #1	; 0x1
    1044:	e3520038 	cmp	r2, #56	; 0x38
    1048:	1afffffa 	bne	1038 <init_efuse+0x1c>
    104c:	e59f1028 	ldr	r1, [pc, #40]	; 107c <init_efuse+0x60>
    1050:	e59f0028 	ldr	r0, [pc, #40]	; 1080 <init_efuse+0x64>
    1054:	e3a02000 	mov	r2, #0	; 0x0
    1058:	e4913004 	ldr	r3, [r1], #4
    105c:	e7c03002 	strb	r3, [r0, r2]
    1060:	e2822001 	add	r2, r2, #1	; 0x1
    1064:	e3520006 	cmp	r2, #6	; 0x6
    1068:	1afffffa 	bne	1058 <init_efuse+0x3c>
    106c:	e12fff1e 	bx	lr
    1070:	21e0d000 	.word	0x21e0d000
    1074:	21e0d9b4 	.word	0x21e0d9b4
    1078:	3c00a950 	.word	0x3c00a950
    107c:	21e0d99c 	.word	0x21e0d99c
    1080:	3c00a128 	.word	0x3c00a128

00001084 <ecfg_check_flag>:
    1084:	e59f1024 	ldr	r1, [pc, #36]	; 10b0 <ecfg_check_flag+0x2c>
    1088:	e3073259 	movw	r3, #29273	; 0x7259
    108c:	e1d120b8 	ldrh	r2, [r1, #8]
    1090:	e1520003 	cmp	r2, r3
    1094:	13a00001 	movne	r0, #1	; 0x1
    1098:	112fff1e 	bxne	lr
    109c:	e5913000 	ldr	r3, [r1]
    10a0:	e1100003 	tst	r0, r3
    10a4:	13a00000 	movne	r0, #0	; 0x0
    10a8:	03a00001 	moveq	r0, #1	; 0x1
    10ac:	e12fff1e 	bx	lr
    10b0:	3c00a950 	.word	0x3c00a950

000010b4 <ecfg_paras>:
    10b4:	e59f0000 	ldr	r0, [pc, #0]	; 10bc <ecfg_paras+0x8>
    10b8:	e12fff1e 	bx	lr
    10bc:	3c00a950 	.word	0x3c00a950

000010c0 <efuse_mac>:
    10c0:	e59f3004 	ldr	r3, [pc, #4]	; 10cc <efuse_mac+0xc>
    10c4:	e8930003 	ldm	r3, {r0, r1}
    10c8:	e12fff1e 	bx	lr
    10cc:	3c00a128 	.word	0x3c00a128

000010d0 <efuse_info>:
    10d0:	e92d40f0 	push	{r4, r5, r6, r7, lr}
    10d4:	e1a04000 	mov	r4, r0
    10d8:	e24dd004 	sub	sp, sp, #4	; 0x4
    10dc:	e59f6144 	ldr	r6, [pc, #324]	; 1228 <efuse_info+0x158>
    10e0:	e59f0144 	ldr	r0, [pc, #324]	; 122c <efuse_info+0x15c>
    10e4:	e1a0e00f 	mov	lr, pc
    10e8:	e596f000 	ldr	pc, [r6]
    10ec:	e59f013c 	ldr	r0, [pc, #316]	; 1230 <efuse_info+0x160>
    10f0:	e1a0e00f 	mov	lr, pc
    10f4:	e596f000 	ldr	pc, [r6]
    10f8:	e3540000 	cmp	r4, #0	; 0x0
    10fc:	0a00003c 	beq	11f4 <efuse_info+0x124>
    1100:	e59f412c 	ldr	r4, [pc, #300]	; 1234 <efuse_info+0x164>
    1104:	e59f012c 	ldr	r0, [pc, #300]	; 1238 <efuse_info+0x168>
    1108:	e5941000 	ldr	r1, [r4]
    110c:	e1a0e00f 	mov	lr, pc
    1110:	e596f000 	ldr	pc, [r6]
    1114:	e5d41004 	ldrb	r1, [r4, #4]
    1118:	e59f011c 	ldr	r0, [pc, #284]	; 123c <efuse_info+0x16c>
    111c:	e1a0e00f 	mov	lr, pc
    1120:	e596f000 	ldr	pc, [r6]
    1124:	e5d41005 	ldrb	r1, [r4, #5]
    1128:	e59f0110 	ldr	r0, [pc, #272]	; 1240 <efuse_info+0x170>
    112c:	e1a0e00f 	mov	lr, pc
    1130:	e596f000 	ldr	pc, [r6]
    1134:	e5d41006 	ldrb	r1, [r4, #6]
    1138:	e59f0104 	ldr	r0, [pc, #260]	; 1244 <efuse_info+0x174>
    113c:	e1a0e00f 	mov	lr, pc
    1140:	e596f000 	ldr	pc, [r6]
    1144:	e5d41007 	ldrb	r1, [r4, #7]
    1148:	e59f00f8 	ldr	r0, [pc, #248]	; 1248 <efuse_info+0x178>
    114c:	e1a0e00f 	mov	lr, pc
    1150:	e596f000 	ldr	pc, [r6]
    1154:	e1d410b8 	ldrh	r1, [r4, #8]
    1158:	e59f00ec 	ldr	r0, [pc, #236]	; 124c <efuse_info+0x17c>
    115c:	e1a0e00f 	mov	lr, pc
    1160:	e596f000 	ldr	pc, [r6]
    1164:	e1d410ba 	ldrh	r1, [r4, #10]
    1168:	e59f00e0 	ldr	r0, [pc, #224]	; 1250 <efuse_info+0x180>
    116c:	e1a0e00f 	mov	lr, pc
    1170:	e596f000 	ldr	pc, [r6]
    1174:	e1d410bc 	ldrh	r1, [r4, #12]
    1178:	e59f00d4 	ldr	r0, [pc, #212]	; 1254 <efuse_info+0x184>
    117c:	e1a0e00f 	mov	lr, pc
    1180:	e596f000 	ldr	pc, [r6]
    1184:	e1d410be 	ldrh	r1, [r4, #14]
    1188:	e59f00c8 	ldr	r0, [pc, #200]	; 1258 <efuse_info+0x188>
    118c:	e1a0e00f 	mov	lr, pc
    1190:	e596f000 	ldr	pc, [r6]
    1194:	e1a05004 	mov	r5, r4
    1198:	e3a04000 	mov	r4, #0	; 0x0
    119c:	e1a01004 	mov	r1, r4
    11a0:	e5952010 	ldr	r2, [r5, #16]
    11a4:	e2844001 	add	r4, r4, #1	; 0x1
    11a8:	e59f00ac 	ldr	r0, [pc, #172]	; 125c <efuse_info+0x18c>
    11ac:	e1a0e00f 	mov	lr, pc
    11b0:	e596f000 	ldr	pc, [r6]
    11b4:	e3540004 	cmp	r4, #4	; 0x4
    11b8:	e2855004 	add	r5, r5, #4	; 0x4
    11bc:	1afffff6 	bne	119c <efuse_info+0xcc>
    11c0:	e59f6060 	ldr	r6, [pc, #96]	; 1228 <efuse_info+0x158>
    11c4:	e59f5068 	ldr	r5, [pc, #104]	; 1234 <efuse_info+0x164>
    11c8:	e284400c 	add	r4, r4, #12	; 0xc
    11cc:	e1a03084 	lsl	r3, r4, #1
    11d0:	e1a01004 	mov	r1, r4
    11d4:	e19520b3 	ldrh	r2, [r5, r3]
    11d8:	e2844001 	add	r4, r4, #1	; 0x1
    11dc:	e59f007c 	ldr	r0, [pc, #124]	; 1260 <efuse_info+0x190>
    11e0:	e1a0e00f 	mov	lr, pc
    11e4:	e596f000 	ldr	pc, [r6]
    11e8:	e354001c 	cmp	r4, #28	; 0x1c
    11ec:	1afffff6 	bne	11cc <efuse_info+0xfc>
    11f0:	ea00000a 	b	1220 <efuse_info+0x150>
    11f4:	e59f4068 	ldr	r4, [pc, #104]	; 1264 <efuse_info+0x194>
    11f8:	e59f7068 	ldr	r7, [pc, #104]	; 1268 <efuse_info+0x198>
    11fc:	e1a05006 	mov	r5, r6
    1200:	e5942000 	ldr	r2, [r4]
    1204:	e1a01004 	mov	r1, r4
    1208:	e59f005c 	ldr	r0, [pc, #92]	; 126c <efuse_info+0x19c>
    120c:	e2844004 	add	r4, r4, #4	; 0x4
    1210:	e1a0e00f 	mov	lr, pc
    1214:	e595f000 	ldr	pc, [r5]
    1218:	e1540007 	cmp	r4, r7
    121c:	1afffff7 	bne	1200 <efuse_info+0x130>
    1220:	e28dd004 	add	sp, sp, #4	; 0x4
    1224:	e8bd80f0 	pop	{r4, r5, r6, r7, pc}
    1228:	3c00a94c 	.word	0x3c00a94c
    122c:	000187ed 	.word	0x000187ed
    1230:	0001a0aa 	.word	0x0001a0aa
    1234:	3c00a950 	.word	0x3c00a950
    1238:	00018802 	.word	0x00018802
    123c:	00018811 	.word	0x00018811
    1240:	00018820 	.word	0x00018820
    1244:	00018833 	.word	0x00018833
    1248:	00018842 	.word	0x00018842
    124c:	00018857 	.word	0x00018857
    1250:	8864      	.short	0x8864
    1252:	0001      	.short	0x0001
    1254:	00018874 	.word	0x00018874
    1258:	00018885 	.word	0x00018885
    125c:	00018897 	.word	0x00018897
    1260:	000188a7 	.word	0x000188a7
    1264:	21e0d9b4 	.word	0x21e0d9b4
    1268:	21e0da94 	.word	0x21e0da94
    126c:	000188b8 	.word	0x000188b8

00001270 <module_get_clock>:
    1270:	e59f3100 	ldr	r3, [pc, #256]	; 1378 <module_get_clock+0x108>
    1274:	e1500003 	cmp	r0, r3
    1278:	0a000036 	beq	1358 <module_get_clock+0xe8>
    127c:	8a000014 	bhi	12d4 <module_get_clock+0x64>
    1280:	e2433050 	sub	r3, r3, #80	; 0x50
    1284:	e1500003 	cmp	r0, r3
    1288:	0a000032 	beq	1358 <module_get_clock+0xe8>
    128c:	8a000005 	bhi	12a8 <module_get_clock+0x38>
    1290:	e3500001 	cmp	r0, #1	; 0x1
    1294:	059f00e0 	ldreq	r0, [pc, #224]	; 137c <module_get_clock+0x10c>
    1298:	012fff1e 	bxeq	lr
    129c:	359f00dc 	ldrcc	r0, [pc, #220]	; 1380 <module_get_clock+0x110>
    12a0:	312fff1e 	bxcc	lr
    12a4:	ea000003 	b	12b8 <module_get_clock+0x48>
    12a8:	e59f30d4 	ldr	r3, [pc, #212]	; 1384 <module_get_clock+0x114>
    12ac:	e1500003 	cmp	r0, r3
    12b0:	0a000028 	beq	1358 <module_get_clock+0xe8>
    12b4:	8a000001 	bhi	12c0 <module_get_clock+0x50>
    12b8:	e2433010 	sub	r3, r3, #16	; 0x10
    12bc:	ea000023 	b	1350 <module_get_clock+0xe0>
    12c0:	e59f30c0 	ldr	r3, [pc, #192]	; 1388 <module_get_clock+0x118>
    12c4:	e1500003 	cmp	r0, r3
    12c8:	12833010 	addne	r3, r3, #16	; 0x10
    12cc:	1a00001f 	bne	1350 <module_get_clock+0xe0>
    12d0:	ea000020 	b	1358 <module_get_clock+0xe8>
    12d4:	e59f30b0 	ldr	r3, [pc, #176]	; 138c <module_get_clock+0x11c>
    12d8:	e1500003 	cmp	r0, r3
    12dc:	059f00ac 	ldreq	r0, [pc, #172]	; 1390 <module_get_clock+0x120>
    12e0:	012fff1e 	bxeq	lr
    12e4:	8a00000b 	bhi	1318 <module_get_clock+0xa8>
    12e8:	e2433040 	sub	r3, r3, #64	; 0x40
    12ec:	e1500003 	cmp	r0, r3
    12f0:	0a00001e 	beq	1370 <module_get_clock+0x100>
    12f4:	92433010 	subls	r3, r3, #16	; 0x10
    12f8:	9a000003 	bls	130c <module_get_clock+0x9c>
    12fc:	e59f3090 	ldr	r3, [pc, #144]	; 1394 <module_get_clock+0x124>
    1300:	e1500003 	cmp	r0, r3
    1304:	0a000019 	beq	1370 <module_get_clock+0x100>
    1308:	e2833010 	add	r3, r3, #16	; 0x10
    130c:	e1500003 	cmp	r0, r3
    1310:	1a000012 	bne	1360 <module_get_clock+0xf0>
    1314:	ea000015 	b	1370 <module_get_clock+0x100>
    1318:	e59f3078 	ldr	r3, [pc, #120]	; 1398 <module_get_clock+0x128>
    131c:	e1500003 	cmp	r0, r3
    1320:	059f0074 	ldreq	r0, [pc, #116]	; 139c <module_get_clock+0x12c>
    1324:	012fff1e 	bxeq	lr
    1328:	8a000003 	bhi	133c <module_get_clock+0xcc>
    132c:	e2433010 	sub	r3, r3, #16	; 0x10
    1330:	e1500003 	cmp	r0, r3
    1334:	1a000009 	bne	1360 <module_get_clock+0xf0>
    1338:	ea00000a 	b	1368 <module_get_clock+0xf8>
    133c:	e59f305c 	ldr	r3, [pc, #92]	; 13a0 <module_get_clock+0x130>
    1340:	e1500003 	cmp	r0, r3
    1344:	059f0058 	ldreq	r0, [pc, #88]	; 13a4 <module_get_clock+0x134>
    1348:	012fff1e 	bxeq	lr
    134c:	e2833030 	add	r3, r3, #48	; 0x30
    1350:	e1500003 	cmp	r0, r3
    1354:	1a000001 	bne	1360 <module_get_clock+0xf0>
    1358:	e59f0048 	ldr	r0, [pc, #72]	; 13a8 <module_get_clock+0x138>
    135c:	e12fff1e 	bx	lr
    1360:	e3a00000 	mov	r0, #0	; 0x0
    1364:	e12fff1e 	bx	lr
    1368:	e59f003c 	ldr	r0, [pc, #60]	; 13ac <module_get_clock+0x13c>
    136c:	e12fff1e 	bx	lr
    1370:	e59f0038 	ldr	r0, [pc, #56]	; 13b0 <module_get_clock+0x140>
    1374:	e12fff1e 	bx	lr
    1378:	21e0a190 	.word	0x21e0a190
    137c:	0ff95b00 	.word	0x0ff95b00
    1380:	07fcad80 	.word	0x07fcad80
    1384:	21e0a160 	.word	0x21e0a160
    1388:	21e0a170 	.word	0x21e0a170
    138c:	21e0a290 	.word	0x21e0a290
    1390:	0160203b 	.word	0x0160203b
    1394:	21e0a260 	.word	0x21e0a260
    1398:	21e0a2d0 	.word	0x21e0a2d0
    139c:	02faf080 	.word	0x02faf080
    13a0:	21e0a2f0 	.word	0x21e0a2f0
    13a4:	05f5e100 	.word	0x05f5e100
    13a8:	0bfb0440 	.word	0x0bfb0440
    13ac:	016e3600 	.word	0x016e3600
    13b0:	02625a00 	.word	0x02625a00

000013b4 <set_mux>:
    13b4:	e59f3004 	ldr	r3, [pc, #4]	; 13c0 <set_mux+0xc>
    13b8:	e5830000 	str	r0, [r3]
    13bc:	e12fff1e 	bx	lr
    13c0:	21e09000 	.word	0x21e09000

000013c4 <chip_test>:
    13c4:	e59f0028 	ldr	r0, [pc, #40]	; 13f4 <end+0x4>
    13c8:	e5901000 	ldr	r1, [r0]
    13cc:	e59f0024 	ldr	r0, [pc, #36]	; 13f8 <end+0x8>
    13d0:	e5902000 	ldr	r2, [r0]
    13d4:	e1a01081 	lsl	r1, r1, #1
    13d8:	e1a023a2 	lsr	r2, r2, #7
    13dc:	e1811002 	orr	r1, r1, r2
    13e0:	e201101f 	and	r1, r1, #31	; 0x1f
    13e4:	e351001f 	cmp	r1, #31	; 0x1f
    13e8:	1a000000 	bne	13f0 <end>
    13ec:	e3a0f30f 	mov	pc, #1006632960	; 0x3c000000

000013f0 <end>:
    13f0:	e1a0f00e 	mov	pc, lr
    13f4:	21e0919c 	.word	0x21e0919c
    13f8:	21e09198 	.word	0x21e09198

000013fc <strcpy>:
    13fc:	e3a02000 	mov	r2, #0	; 0x0
    1400:	e7d13002 	ldrb	r3, [r1, r2]
    1404:	e3530000 	cmp	r3, #0	; 0x0
    1408:	e7c03002 	strb	r3, [r0, r2]
    140c:	e2822001 	add	r2, r2, #1	; 0x1
    1410:	1afffffa 	bne	1400 <strcpy+0x4>
    1414:	e12fff1e 	bx	lr

00001418 <strncpy>:
    1418:	e3a0c000 	mov	ip, #0	; 0x0
    141c:	e3520000 	cmp	r2, #0	; 0x0
    1420:	e2422001 	sub	r2, r2, #1	; 0x1
    1424:	012fff1e 	bxeq	lr
    1428:	e7d1300c 	ldrb	r3, [r1, ip]
    142c:	e3530000 	cmp	r3, #0	; 0x0
    1430:	e7c0300c 	strb	r3, [r0, ip]
    1434:	e28cc001 	add	ip, ip, #1	; 0x1
    1438:	1afffff7 	bne	141c <strncpy+0x4>
    143c:	e12fff1e 	bx	lr

00001440 <strncat>:
    1440:	e92d4030 	push	{r4, r5, lr}
    1444:	e2525000 	subs	r5, r2, #0	; 0x0
    1448:	e1a04001 	mov	r4, r1
    144c:	11a0c000 	movne	ip, r0
    1450:	1a000001 	bne	145c <strncat+0x1c>
    1454:	e8bd8030 	pop	{r4, r5, pc}
    1458:	e28cc001 	add	ip, ip, #1	; 0x1
    145c:	e5dc3000 	ldrb	r3, [ip]
    1460:	e3530000 	cmp	r3, #0	; 0x0
    1464:	1afffffb 	bne	1458 <strncat+0x18>
    1468:	ea000004 	b	1480 <strncat+0x40>
    146c:	e1550002 	cmp	r5, r2
    1470:	1a000004 	bne	1488 <strncat+0x48>
    1474:	e3a03000 	mov	r3, #0	; 0x0
    1478:	e5cc3000 	strb	r3, [ip]
    147c:	e8bd8030 	pop	{r4, r5, pc}
    1480:	e1a02003 	mov	r2, r3
    1484:	e1a0100c 	mov	r1, ip
    1488:	e7d43002 	ldrb	r3, [r4, r2]
    148c:	e28cc001 	add	ip, ip, #1	; 0x1
    1490:	e3530000 	cmp	r3, #0	; 0x0
    1494:	e7c13002 	strb	r3, [r1, r2]
    1498:	e2822001 	add	r2, r2, #1	; 0x1
    149c:	1afffff2 	bne	146c <strncat+0x2c>
    14a0:	e8bd8030 	pop	{r4, r5, pc}

000014a4 <strcmp>:
    14a4:	e92d4010 	push	{r4, lr}
    14a8:	e3a02000 	mov	r2, #0	; 0x0
    14ac:	e1a04000 	mov	r4, r0
    14b0:	e7d4c002 	ldrb	ip, [r4, r2]
    14b4:	e7d13002 	ldrb	r3, [r1, r2]
    14b8:	e2822001 	add	r2, r2, #1	; 0x1
    14bc:	e063300c 	rsb	r3, r3, ip
    14c0:	e6ef0073 	uxtb	r0, r3
    14c4:	e3500000 	cmp	r0, #0	; 0x0
    14c8:	1a000001 	bne	14d4 <strcmp+0x30>
    14cc:	e35c0000 	cmp	ip, #0	; 0x0
    14d0:	1afffff6 	bne	14b0 <strcmp+0xc>
    14d4:	e6af0070 	sxtb	r0, r0
    14d8:	e8bd8010 	pop	{r4, pc}

000014dc <strncmp>:
    14dc:	e92d4030 	push	{r4, r5, lr}
    14e0:	e3a0c000 	mov	ip, #0	; 0x0
    14e4:	e1a05000 	mov	r5, r0
    14e8:	e1a04001 	mov	r4, r1
    14ec:	ea000009 	b	1518 <strncmp+0x3c>
    14f0:	e7d5100c 	ldrb	r1, [r5, ip]
    14f4:	e7d4300c 	ldrb	r3, [r4, ip]
    14f8:	e2422001 	sub	r2, r2, #1	; 0x1
    14fc:	e0633001 	rsb	r3, r3, r1
    1500:	e6ef0073 	uxtb	r0, r3
    1504:	e3500000 	cmp	r0, #0	; 0x0
    1508:	e28cc001 	add	ip, ip, #1	; 0x1
    150c:	1a000004 	bne	1524 <strncmp+0x48>
    1510:	e3510000 	cmp	r1, #0	; 0x0
    1514:	0a000002 	beq	1524 <strncmp+0x48>
    1518:	e3520000 	cmp	r2, #0	; 0x0
    151c:	1afffff3 	bne	14f0 <strncmp+0x14>
    1520:	e1a00002 	mov	r0, r2
    1524:	e6af0070 	sxtb	r0, r0
    1528:	e8bd8030 	pop	{r4, r5, pc}

0000152c <strchr>:
    152c:	e1a03000 	mov	r3, r0
    1530:	e6ef1071 	uxtb	r1, r1
    1534:	ea000002 	b	1544 <strchr+0x18>
    1538:	e3500000 	cmp	r0, #0	; 0x0
    153c:	012fff1e 	bxeq	lr
    1540:	e2833001 	add	r3, r3, #1	; 0x1
    1544:	e5d30000 	ldrb	r0, [r3]
    1548:	e1500001 	cmp	r0, r1
    154c:	1afffff9 	bne	1538 <strchr+0xc>
    1550:	e1a00003 	mov	r0, r3
    1554:	e12fff1e 	bx	lr

00001558 <strlen>:
    1558:	e1a02000 	mov	r2, r0
    155c:	ea000000 	b	1564 <strlen+0xc>
    1560:	e2800001 	add	r0, r0, #1	; 0x1
    1564:	e5d03000 	ldrb	r3, [r0]
    1568:	e3530000 	cmp	r3, #0	; 0x0
    156c:	1afffffb 	bne	1560 <strlen+0x8>
    1570:	e0620000 	rsb	r0, r2, r0
    1574:	e12fff1e 	bx	lr

00001578 <strnlen>:
    1578:	e3a02000 	mov	r2, #0	; 0x0
    157c:	e1510002 	cmp	r1, r2
    1580:	e080c002 	add	ip, r0, r2
    1584:	0a000003 	beq	1598 <strnlen+0x20>
    1588:	e7d03002 	ldrb	r3, [r0, r2]
    158c:	e2822001 	add	r2, r2, #1	; 0x1
    1590:	e3530000 	cmp	r3, #0	; 0x0
    1594:	1afffff8 	bne	157c <strnlen+0x4>
    1598:	e060000c 	rsb	r0, r0, ip
    159c:	e12fff1e 	bx	lr

000015a0 <memset>:
    15a0:	e3a03000 	mov	r3, #0	; 0x0
    15a4:	ea000001 	b	15b0 <memset+0x10>
    15a8:	e7c01003 	strb	r1, [r0, r3]
    15ac:	e2833001 	add	r3, r3, #1	; 0x1
    15b0:	e3520000 	cmp	r2, #0	; 0x0
    15b4:	e2422001 	sub	r2, r2, #1	; 0x1
    15b8:	1afffffa 	bne	15a8 <memset+0x8>
    15bc:	e12fff1e 	bx	lr

000015c0 <memcpy>:
    15c0:	e3a0c000 	mov	ip, #0	; 0x0
    15c4:	ea000002 	b	15d4 <memcpy+0x14>
    15c8:	e7d1300c 	ldrb	r3, [r1, ip]
    15cc:	e7c0300c 	strb	r3, [r0, ip]
    15d0:	e28cc001 	add	ip, ip, #1	; 0x1
    15d4:	e3520000 	cmp	r2, #0	; 0x0
    15d8:	e2422001 	sub	r2, r2, #1	; 0x1
    15dc:	1afffff9 	bne	15c8 <memcpy+0x8>
    15e0:	e12fff1e 	bx	lr

000015e4 <memmove>:
    15e4:	e1500001 	cmp	r0, r1
    15e8:	e92d4010 	push	{r4, lr}
    15ec:	08bd8010 	popeq	{r4, pc}
    15f0:	93a0c000 	movls	ip, #0	; 0x0
    15f4:	9a000003 	bls	1608 <memmove+0x24>
    15f8:	ea000006 	b	1618 <memmove+0x34>
    15fc:	e7d1300c 	ldrb	r3, [r1, ip]
    1600:	e7c0300c 	strb	r3, [r0, ip]
    1604:	e28cc001 	add	ip, ip, #1	; 0x1
    1608:	e3520000 	cmp	r2, #0	; 0x0
    160c:	e2422001 	sub	r2, r2, #1	; 0x1
    1610:	1afffff9 	bne	15fc <memmove+0x18>
    1614:	e8bd8010 	pop	{r4, pc}
    1618:	e0814002 	add	r4, r1, r2
    161c:	e3a0c000 	mov	ip, #0	; 0x0
    1620:	e0801002 	add	r1, r0, r2
    1624:	ea000001 	b	1630 <memmove+0x4c>
    1628:	e7d4300c 	ldrb	r3, [r4, ip]
    162c:	e7c1300c 	strb	r3, [r1, ip]
    1630:	e3520000 	cmp	r2, #0	; 0x0
    1634:	e24cc001 	sub	ip, ip, #1	; 0x1
    1638:	e2422001 	sub	r2, r2, #1	; 0x1
    163c:	1afffff9 	bne	1628 <memmove+0x44>
    1640:	e8bd8010 	pop	{r4, pc}

00001644 <memcmp>:
    1644:	e92d4030 	push	{r4, r5, lr}
    1648:	e3a0c000 	mov	ip, #0	; 0x0
    164c:	e1a04001 	mov	r4, r1
    1650:	e1a05000 	mov	r5, r0
    1654:	e1a01002 	mov	r1, r2
    1658:	ea000005 	b	1674 <memcmp+0x30>
    165c:	e7d5200c 	ldrb	r2, [r5, ip]
    1660:	e7d4300c 	ldrb	r3, [r4, ip]
    1664:	e28cc001 	add	ip, ip, #1	; 0x1
    1668:	e0520003 	subs	r0, r2, r3
    166c:	18bd8030 	popne	{r4, r5, pc}
    1670:	e2411001 	sub	r1, r1, #1	; 0x1
    1674:	e3510000 	cmp	r1, #0	; 0x0
    1678:	1afffff7 	bne	165c <memcmp+0x18>
    167c:	e1a00001 	mov	r0, r1
    1680:	e8bd8030 	pop	{r4, r5, pc}

00001684 <so_m_isused>:
    1684:	e5903004 	ldr	r3, [r0, #4]
    1688:	e3130103 	tst	r3, #-1073741824	; 0xc0000000
    168c:	03a00000 	moveq	r0, #0	; 0x0
    1690:	13a00001 	movne	r0, #1	; 0x1
    1694:	e12fff1e 	bx	lr

00001698 <so_m_set_used>:
    1698:	e5903004 	ldr	r3, [r0, #4]
    169c:	e3833101 	orr	r3, r3, #1073741824	; 0x40000000
    16a0:	e5803004 	str	r3, [r0, #4]
    16a4:	e12fff1e 	bx	lr

000016a8 <so_m_unset_used>:
    16a8:	e5903004 	ldr	r3, [r0, #4]
    16ac:	e3c33103 	bic	r3, r3, #-1073741824	; 0xc0000000
    16b0:	e5803004 	str	r3, [r0, #4]
    16b4:	e12fff1e 	bx	lr

000016b8 <so_m_get_size>:
    16b8:	e5900004 	ldr	r0, [r0, #4]
    16bc:	e3c00103 	bic	r0, r0, #-1073741824	; 0xc0000000
    16c0:	e12fff1e 	bx	lr

000016c4 <so_m_set_size>:
    16c4:	e5903004 	ldr	r3, [r0, #4]
    16c8:	e3c11103 	bic	r1, r1, #-1073741824	; 0xc0000000
    16cc:	e2033103 	and	r3, r3, #-1073741824	; 0xc0000000
    16d0:	e1811003 	orr	r1, r1, r3
    16d4:	e5801004 	str	r1, [r0, #4]
    16d8:	e12fff1e 	bx	lr

000016dc <so_m_alloc>:
    16dc:	e59f3048 	ldr	r3, [pc, #72]	; 172c <so_m_alloc+0x50>
    16e0:	e3a02000 	mov	r2, #0	; 0x0
    16e4:	e593c000 	ldr	ip, [r3]
    16e8:	e5931008 	ldr	r1, [r3, #8]
    16ec:	ea000007 	b	1710 <so_m_alloc+0x34>
    16f0:	e5903004 	ldr	r3, [r0, #4]
    16f4:	e3530000 	cmp	r3, #0	; 0x0
    16f8:	1a000004 	bne	1710 <so_m_alloc+0x34>
    16fc:	e59f2028 	ldr	r2, [pc, #40]	; 172c <so_m_alloc+0x50>
    1700:	e5923004 	ldr	r3, [r2, #4]
    1704:	e2433001 	sub	r3, r3, #1	; 0x1
    1708:	e5823004 	str	r3, [r2, #4]
    170c:	e12fff1e 	bx	lr
    1710:	e152000c 	cmp	r2, ip
    1714:	e1a00001 	mov	r0, r1
    1718:	e2822001 	add	r2, r2, #1	; 0x1
    171c:	e2811010 	add	r1, r1, #16	; 0x10
    1720:	3afffff2 	bcc	16f0 <so_m_alloc+0x14>
    1724:	e3a00000 	mov	r0, #0	; 0x0
    1728:	e12fff1e 	bx	lr
    172c:	3c00a98c 	.word	0x3c00a98c

00001730 <so_m_remove>:
    1730:	e3a03000 	mov	r3, #0	; 0x0
    1734:	e59f2014 	ldr	r2, [pc, #20]	; 1750 <so_m_remove+0x20>
    1738:	e5803000 	str	r3, [r0]
    173c:	e5803004 	str	r3, [r0, #4]
    1740:	e5923004 	ldr	r3, [r2, #4]
    1744:	e2833001 	add	r3, r3, #1	; 0x1
    1748:	e5823004 	str	r3, [r2, #4]
    174c:	e12fff1e 	bx	lr
    1750:	3c00a98c 	.word	0x3c00a98c

00001754 <malloc>:
    1754:	e3500000 	cmp	r0, #0	; 0x0
    1758:	e92d4070 	push	{r4, r5, r6, lr}
    175c:	0a000047 	beq	1880 <malloc+0x12c>
    1760:	e59f1120 	ldr	r1, [pc, #288]	; 1888 <malloc+0x134>
    1764:	e280301f 	add	r3, r0, #31	; 0x1f
    1768:	e5b12014 	ldr	r2, [r1, #20]!
    176c:	e3c3401f 	bic	r4, r3, #31	; 0x1f
    1770:	e2425008 	sub	r5, r2, #8	; 0x8
    1774:	ea000009 	b	17a0 <malloc+0x4c>
    1778:	e5953004 	ldr	r3, [r5, #4]
    177c:	e2130103 	ands	r0, r3, #-1073741824	; 0xc0000000
    1780:	e3c32103 	bic	r2, r3, #-1073741824	; 0xc0000000
    1784:	1a000003 	bne	1798 <malloc+0x44>
    1788:	e1520004 	cmp	r2, r4
    178c:	3a000001 	bcc	1798 <malloc+0x44>
    1790:	9a000030 	bls	1858 <malloc+0x104>
    1794:	ea000005 	b	17b0 <malloc+0x5c>
    1798:	e5953008 	ldr	r3, [r5, #8]
    179c:	e2435008 	sub	r5, r3, #8	; 0x8
    17a0:	e2853008 	add	r3, r5, #8	; 0x8
    17a4:	e1530001 	cmp	r3, r1
    17a8:	1afffff2 	bne	1778 <malloc+0x24>
    17ac:	ea000033 	b	1880 <malloc+0x12c>
    17b0:	e59f30d0 	ldr	r3, [pc, #208]	; 1888 <malloc+0x134>
    17b4:	e1a01000 	mov	r1, r0
    17b8:	e5932008 	ldr	r2, [r3, #8]
    17bc:	e5930000 	ldr	r0, [r3]
    17c0:	ea00000a 	b	17f0 <malloc+0x9c>
    17c4:	e5923004 	ldr	r3, [r2, #4]
    17c8:	e2822010 	add	r2, r2, #16	; 0x10
    17cc:	e3530000 	cmp	r3, #0	; 0x0
    17d0:	1a000006 	bne	17f0 <malloc+0x9c>
    17d4:	e59f20ac 	ldr	r2, [pc, #172]	; 1888 <malloc+0x134>
    17d8:	e3560000 	cmp	r6, #0	; 0x0
    17dc:	e5923004 	ldr	r3, [r2, #4]
    17e0:	e2433001 	sub	r3, r3, #1	; 0x1
    17e4:	e5823004 	str	r3, [r2, #4]
    17e8:	1a000005 	bne	1804 <malloc+0xb0>
    17ec:	ea000023 	b	1880 <malloc+0x12c>
    17f0:	e1510000 	cmp	r1, r0
    17f4:	e1a06002 	mov	r6, r2
    17f8:	e2811001 	add	r1, r1, #1	; 0x1
    17fc:	3afffff0 	bcc	17c4 <malloc+0x70>
    1800:	ea00001e 	b	1880 <malloc+0x12c>
    1804:	e5953004 	ldr	r3, [r5, #4]
    1808:	e5962004 	ldr	r2, [r6, #4]
    180c:	e0643003 	rsb	r3, r4, r3
    1810:	e2022103 	and	r2, r2, #-1073741824	; 0xc0000000
    1814:	e3c33103 	bic	r3, r3, #-1073741824	; 0xc0000000
    1818:	e1833002 	orr	r3, r3, r2
    181c:	e5863004 	str	r3, [r6, #4]
    1820:	e5951000 	ldr	r1, [r5]
    1824:	e5950004 	ldr	r0, [r5, #4]
    1828:	e1a0c005 	mov	ip, r5
    182c:	e1a03006 	mov	r3, r6
    1830:	e0841001 	add	r1, r4, r1
    1834:	e3c42103 	bic	r2, r4, #-1073741824	; 0xc0000000
    1838:	e2000103 	and	r0, r0, #-1073741824	; 0xc0000000
    183c:	e5bc4008 	ldr	r4, [ip, #8]!
    1840:	e4831008 	str	r1, [r3], #8
    1844:	e1822000 	orr	r2, r2, r0
    1848:	e5864008 	str	r4, [r6, #8]
    184c:	e5843004 	str	r3, [r4, #4]
    1850:	e985000c 	stmib	r5, {r2, r3}
    1854:	e586c00c 	str	ip, [r6, #12]
    1858:	e5953004 	ldr	r3, [r5, #4]
    185c:	e59f1024 	ldr	r1, [pc, #36]	; 1888 <malloc+0x134>
    1860:	e3833101 	orr	r3, r3, #1073741824	; 0x40000000
    1864:	e5853004 	str	r3, [r5, #4]
    1868:	e5912010 	ldr	r2, [r1, #16]
    186c:	e3c33103 	bic	r3, r3, #-1073741824	; 0xc0000000
    1870:	e0833002 	add	r3, r3, r2
    1874:	e5813010 	str	r3, [r1, #16]
    1878:	e5950000 	ldr	r0, [r5]
    187c:	e8bd8070 	pop	{r4, r5, r6, pc}
    1880:	e3a00000 	mov	r0, #0	; 0x0
    1884:	e8bd8070 	pop	{r4, r5, r6, pc}
    1888:	3c00a98c 	.word	0x3c00a98c

0000188c <__sOMERGe>:
    188c:	e5902004 	ldr	r2, [r0, #4]
    1890:	e92d4030 	push	{r4, r5, lr}
    1894:	e3120103 	tst	r2, #-1073741824	; 0xc0000000
    1898:	e1a05000 	mov	r5, r0
    189c:	e1a0c001 	mov	ip, r1
    18a0:	18bd8030 	popne	{r4, r5, pc}
    18a4:	e5913004 	ldr	r3, [r1, #4]
    18a8:	e2134103 	ands	r4, r3, #-1073741824	; 0xc0000000
    18ac:	18bd8030 	popne	{r4, r5, pc}
    18b0:	e0823003 	add	r3, r2, r3
    18b4:	e3c33103 	bic	r3, r3, #-1073741824	; 0xc0000000
    18b8:	e59f0030 	ldr	r0, [pc, #48]	; 18f0 <__sOMERGe+0x64>
    18bc:	e5853004 	str	r3, [r5, #4]
    18c0:	e5814000 	str	r4, [r1]
    18c4:	e5814004 	str	r4, [r1, #4]
    18c8:	e5903004 	ldr	r3, [r0, #4]
    18cc:	e591100c 	ldr	r1, [r1, #12]
    18d0:	e59c2008 	ldr	r2, [ip, #8]
    18d4:	e2833001 	add	r3, r3, #1	; 0x1
    18d8:	e5812000 	str	r2, [r1]
    18dc:	e5821004 	str	r1, [r2, #4]
    18e0:	e5803004 	str	r3, [r0, #4]
    18e4:	e58c4008 	str	r4, [ip, #8]
    18e8:	e58c400c 	str	r4, [ip, #12]
    18ec:	e8bd8030 	pop	{r4, r5, pc}
    18f0:	3c00a98c 	.word	0x3c00a98c

000018f4 <free>:
    18f4:	e3500000 	cmp	r0, #0	; 0x0
    18f8:	159f2090 	ldrne	r2, [pc, #144]	; 1990 <free+0x9c>
    18fc:	e92d4010 	push	{r4, lr}
    1900:	15b23014 	ldrne	r3, [r2, #20]!
    1904:	1a000004 	bne	191c <free+0x28>
    1908:	e8bd8010 	pop	{r4, pc}
    190c:	e5943000 	ldr	r3, [r4]
    1910:	e1500003 	cmp	r0, r3
    1914:	0a000005 	beq	1930 <free+0x3c>
    1918:	e5943008 	ldr	r3, [r4, #8]
    191c:	e2434008 	sub	r4, r3, #8	; 0x8
    1920:	e2843008 	add	r3, r4, #8	; 0x8
    1924:	e1530002 	cmp	r3, r2
    1928:	1afffff7 	bne	190c <free+0x18>
    192c:	e8bd8010 	pop	{r4, pc}
    1930:	e5943004 	ldr	r3, [r4, #4]
    1934:	e3130103 	tst	r3, #-1073741824	; 0xc0000000
    1938:	08bd8010 	popeq	{r4, pc}
    193c:	e3c33103 	bic	r3, r3, #-1073741824	; 0xc0000000
    1940:	e59f1048 	ldr	r1, [pc, #72]	; 1990 <free+0x9c>
    1944:	e5843004 	str	r3, [r4, #4]
    1948:	e5912010 	ldr	r2, [r1, #16]
    194c:	e5940008 	ldr	r0, [r4, #8]
    1950:	e0632002 	rsb	r2, r3, r2
    1954:	e59f3038 	ldr	r3, [pc, #56]	; 1994 <free+0xa0>
    1958:	e5812010 	str	r2, [r1, #16]
    195c:	e1500003 	cmp	r0, r3
    1960:	0a000002 	beq	1970 <free+0x7c>
    1964:	e2401008 	sub	r1, r0, #8	; 0x8
    1968:	e1a00004 	mov	r0, r4
    196c:	ebffffc6 	bl	188c <__sOMERGe>
    1970:	e594000c 	ldr	r0, [r4, #12]
    1974:	e59f3018 	ldr	r3, [pc, #24]	; 1994 <free+0xa0>
    1978:	e1500003 	cmp	r0, r3
    197c:	08bd8010 	popeq	{r4, pc}
    1980:	e2400008 	sub	r0, r0, #8	; 0x8
    1984:	e1a01004 	mov	r1, r4
    1988:	e8bd4010 	pop	{r4, lr}
    198c:	eaffffbe 	b	188c <__sOMERGe>
    1990:	3c00a98c 	.word	0x3c00a98c
    1994:	3c00a9a0 	.word	0x3c00a9a0

00001998 <__sOINFo>:
    1998:	e92d40f0 	push	{r4, r5, r6, r7, lr}
    199c:	e59f50a8 	ldr	r5, [pc, #168]	; 1a4c <__sOINFo+0xb4>
    19a0:	e24dd004 	sub	sp, sp, #4	; 0x4
    19a4:	e59f60a4 	ldr	r6, [pc, #164]	; 1a50 <__sOINFo+0xb8>
    19a8:	e8950006 	ldm	r5, {r1, r2}
    19ac:	e59f00a0 	ldr	r0, [pc, #160]	; 1a54 <__sOINFo+0xbc>
    19b0:	e1a0e00f 	mov	lr, pc
    19b4:	e596f000 	ldr	pc, [r6]
    19b8:	e2853008 	add	r3, r5, #8	; 0x8
    19bc:	e8930098 	ldm	r3, {r3, r4, r7}
    19c0:	e2444b01 	sub	r4, r4, #1024	; 0x400
    19c4:	e0634004 	rsb	r4, r3, r4
    19c8:	e3a00064 	mov	r0, #100	; 0x64
    19cc:	e1a01004 	mov	r1, r4
    19d0:	e0000790 	mul	r0, r0, r7
    19d4:	eb00572d 	bl	17690 <__aeabi_uidiv>
    19d8:	e1a01004 	mov	r1, r4
    19dc:	e1a03000 	mov	r3, r0
    19e0:	e1a02007 	mov	r2, r7
    19e4:	e59f006c 	ldr	r0, [pc, #108]	; 1a58 <__sOINFo+0xc0>
    19e8:	e1a0e00f 	mov	lr, pc
    19ec:	e596f000 	ldr	pc, [r6]
    19f0:	e59f0064 	ldr	r0, [pc, #100]	; 1a5c <__sOINFo+0xc4>
    19f4:	e1a0e00f 	mov	lr, pc
    19f8:	e596f000 	ldr	pc, [r6]
    19fc:	e59f005c 	ldr	r0, [pc, #92]	; 1a60 <__sOINFo+0xc8>
    1a00:	e1a0e00f 	mov	lr, pc
    1a04:	e596f000 	ldr	pc, [r6]
    1a08:	e5b53014 	ldr	r3, [r5, #20]!
    1a0c:	ea000007 	b	1a30 <__sOINFo+0x98>
    1a10:	e8940006 	ldm	r4, {r1, r2}
    1a14:	e3120103 	tst	r2, #-1073741824	; 0xc0000000
    1a18:	03a03000 	moveq	r3, #0	; 0x0
    1a1c:	13a03001 	movne	r3, #1	; 0x1
    1a20:	e3c22103 	bic	r2, r2, #-1073741824	; 0xc0000000
    1a24:	e1a0e00f 	mov	lr, pc
    1a28:	e596f000 	ldr	pc, [r6]
    1a2c:	e5943008 	ldr	r3, [r4, #8]
    1a30:	e2434008 	sub	r4, r3, #8	; 0x8
    1a34:	e2843008 	add	r3, r4, #8	; 0x8
    1a38:	e1530005 	cmp	r3, r5
    1a3c:	e59f0020 	ldr	r0, [pc, #32]	; 1a64 <__sOINFo+0xcc>
    1a40:	1afffff2 	bne	1a10 <__sOINFo+0x78>
    1a44:	e28dd004 	add	sp, sp, #4	; 0x4
    1a48:	e8bd80f0 	pop	{r4, r5, r6, r7, pc}
    1a4c:	3c00a98c 	.word	0x3c00a98c
    1a50:	3c00a94c 	.word	0x3c00a94c
    1a54:	000188c8 	.word	0x000188c8
    1a58:	000188e2 	.word	0x000188e2
    1a5c:	00018907 	.word	0x00018907
    1a60:	0001a0ac 	.word	0x0001a0ac
    1a64:	00018918 	.word	0x00018918

00001a68 <init_malloc>:
    1a68:	e59f20e4 	ldr	r2, [pc, #228]	; 1b54 <init_malloc+0xec>
    1a6c:	e59f30e4 	ldr	r3, [pc, #228]	; 1b58 <init_malloc+0xf0>
    1a70:	e3c2001f 	bic	r0, r2, #31	; 0x1f
    1a74:	e3c3301f 	bic	r3, r3, #31	; 0x1f
    1a78:	e0602003 	rsb	r2, r0, r3
    1a7c:	e92d4010 	push	{r4, lr}
    1a80:	e59f40d4 	ldr	r4, [pc, #212]	; 1b5c <init_malloc+0xf4>
    1a84:	e3520b01 	cmp	r2, #1024	; 0x400
    1a88:	e5840008 	str	r0, [r4, #8]
    1a8c:	e584300c 	str	r3, [r4, #12]
    1a90:	93e00000 	mvnls	r0, #0	; 0x0
    1a94:	98bd8010 	popls	{r4, pc}
    1a98:	e284c014 	add	ip, r4, #20	; 0x14
    1a9c:	e3a03040 	mov	r3, #64	; 0x40
    1aa0:	e3a01000 	mov	r1, #0	; 0x0
    1aa4:	e3a02b01 	mov	r2, #1024	; 0x400
    1aa8:	e584c018 	str	ip, [r4, #24]
    1aac:	e584c014 	str	ip, [r4, #20]
    1ab0:	e5843004 	str	r3, [r4, #4]
    1ab4:	e5843000 	str	r3, [r4]
    1ab8:	ebfffeb8 	bl	15a0 <memset>
    1abc:	e5940008 	ldr	r0, [r4, #8]
    1ac0:	e594c000 	ldr	ip, [r4]
    1ac4:	e1a01000 	mov	r1, r0
    1ac8:	e3a02000 	mov	r2, #0	; 0x0
    1acc:	ea000006 	b	1aec <init_malloc+0x84>
    1ad0:	e59e3004 	ldr	r3, [lr, #4]
    1ad4:	e3530000 	cmp	r3, #0	; 0x0
    1ad8:	059f207c 	ldreq	r2, [pc, #124]	; 1b5c <init_malloc+0xf4>
    1adc:	05923004 	ldreq	r3, [r2, #4]
    1ae0:	02433001 	subeq	r3, r3, #1	; 0x1
    1ae4:	05823004 	streq	r3, [r2, #4]
    1ae8:	0a000005 	beq	1b04 <init_malloc+0x9c>
    1aec:	e152000c 	cmp	r2, ip
    1af0:	e1a0e001 	mov	lr, r1
    1af4:	e2822001 	add	r2, r2, #1	; 0x1
    1af8:	e2811010 	add	r1, r1, #16	; 0x10
    1afc:	3afffff3 	bcc	1ad0 <init_malloc+0x68>
    1b00:	e3a0e000 	mov	lr, #0	; 0x0
    1b04:	e59fc050 	ldr	ip, [pc, #80]	; 1b5c <init_malloc+0xf4>
    1b08:	e59e2004 	ldr	r2, [lr, #4]
    1b0c:	e59c300c 	ldr	r3, [ip, #12]
    1b10:	e1a0100e 	mov	r1, lr
    1b14:	e2433b01 	sub	r3, r3, #1024	; 0x400
    1b18:	e0603003 	rsb	r3, r0, r3
    1b1c:	e59c4018 	ldr	r4, [ip, #24]
    1b20:	e2022103 	and	r2, r2, #-1073741824	; 0xc0000000
    1b24:	e2800b01 	add	r0, r0, #1024	; 0x400
    1b28:	e3c33103 	bic	r3, r3, #-1073741824	; 0xc0000000
    1b2c:	e4810008 	str	r0, [r1], #8
    1b30:	e1833002 	orr	r3, r3, r2
    1b34:	e28c2014 	add	r2, ip, #20	; 0x14
    1b38:	e58e2008 	str	r2, [lr, #8]
    1b3c:	e58c1018 	str	r1, [ip, #24]
    1b40:	e5841000 	str	r1, [r4]
    1b44:	e58e3004 	str	r3, [lr, #4]
    1b48:	e58e400c 	str	r4, [lr, #12]
    1b4c:	e3a00000 	mov	r0, #0	; 0x0
    1b50:	e8bd8010 	pop	{r4, pc}
    1b54:	3c00c01f 	.word	0x3c00c01f
    1b58:	3c018000 	.word	0x3c018000
    1b5c:	3c00a98c 	.word	0x3c00a98c

00001b60 <isi_check_header>:
    1b60:	e92d4070 	push	{r4, r5, r6, lr}
    1b64:	e5902000 	ldr	r2, [r0]
    1b68:	e59f3088 	ldr	r3, [pc, #136]	; 1bf8 <isi_check_header+0x98>
    1b6c:	e1a05000 	mov	r5, r0
    1b70:	e1520003 	cmp	r2, r3
    1b74:	e24dd008 	sub	sp, sp, #8	; 0x8
    1b78:	13e0001e 	mvnne	r0, #30	; 0x1e
    1b7c:	1a00001b 	bne	1bf0 <isi_check_header+0x90>
    1b80:	e3a06000 	mov	r6, #0	; 0x0
    1b84:	e595401c 	ldr	r4, [r5, #28]
    1b88:	e3a01c02 	mov	r1, #512	; 0x200
    1b8c:	e585601c 	str	r6, [r5, #28]
    1b90:	e1a00006 	mov	r0, r6
    1b94:	eb00086f 	bl	3d58 <hash_init>
    1b98:	e3a01c02 	mov	r1, #512	; 0x200
    1b9c:	e1a00005 	mov	r0, r5
    1ba0:	eb00084e 	bl	3ce0 <hash_data>
    1ba4:	e28d0004 	add	r0, sp, #4	; 0x4
    1ba8:	eb00082e 	bl	3c68 <hash_value>
    1bac:	e585401c 	str	r4, [r5, #28]
    1bb0:	e59d3004 	ldr	r3, [sp, #4]
    1bb4:	e1540003 	cmp	r4, r3
    1bb8:	13e0001f 	mvnne	r0, #31	; 0x1f
    1bbc:	1a00000b 	bne	1bf0 <isi_check_header+0x90>
    1bc0:	e5951004 	ldr	r1, [r5, #4]
    1bc4:	e59f4030 	ldr	r4, [pc, #48]	; 1bfc <isi_check_header+0x9c>
    1bc8:	e3c114ff 	bic	r1, r1, #-16777216	; 0xff000000
    1bcc:	e59f002c 	ldr	r0, [pc, #44]	; 1c00 <isi_check_header+0xa0>
    1bd0:	e1a0e00f 	mov	lr, pc
    1bd4:	e594f000 	ldr	pc, [r4]
    1bd8:	e5d51007 	ldrb	r1, [r5, #7]
    1bdc:	e59f0020 	ldr	r0, [pc, #32]	; 1c04 <isi_check_header+0xa4>
    1be0:	e201100f 	and	r1, r1, #15	; 0xf
    1be4:	e1a0e00f 	mov	lr, pc
    1be8:	e594f000 	ldr	pc, [r4]
    1bec:	e1a00006 	mov	r0, r6
    1bf0:	e28dd008 	add	sp, sp, #8	; 0x8
    1bf4:	e8bd8070 	pop	{r4, r5, r6, pc}
    1bf8:	6973692b 	.word	0x6973692b
    1bfc:	3c00a94c 	.word	0x3c00a94c
    1c00:	00018940 	.word	0x00018940
    1c04:	0001894e 	.word	0x0001894e

00001c08 <isi_check_data_separate>:
    1c08:	e92d4070 	push	{r4, r5, r6, lr}
    1c0c:	e1a05000 	mov	r5, r0
    1c10:	e5d00007 	ldrb	r0, [r0, #7]
    1c14:	e24dd028 	sub	sp, sp, #40	; 0x28
    1c18:	e1a04001 	mov	r4, r1
    1c1c:	e200000f 	and	r0, r0, #15	; 0xf
    1c20:	e595100c 	ldr	r1, [r5, #12]
    1c24:	eb00084b 	bl	3d58 <hash_init>
    1c28:	e28d6008 	add	r6, sp, #8	; 0x8
    1c2c:	e595100c 	ldr	r1, [r5, #12]
    1c30:	e1a00004 	mov	r0, r4
    1c34:	eb000829 	bl	3ce0 <hash_data>
    1c38:	e1a00006 	mov	r0, r6
    1c3c:	eb000809 	bl	3c68 <hash_value>
    1c40:	eb000801 	bl	3c4c <hash_len>
    1c44:	e2854020 	add	r4, r5, #32	; 0x20
    1c48:	e1a02000 	mov	r2, r0
    1c4c:	e1a01004 	mov	r1, r4
    1c50:	e1a00006 	mov	r0, r6
    1c54:	ebfffe7a 	bl	1644 <memcmp>
    1c58:	e3500000 	cmp	r0, #0	; 0x0
    1c5c:	0a000014 	beq	1cb4 <isi_check_data_separate+0xac>
    1c60:	e595100c 	ldr	r1, [r5, #12]
    1c64:	e59f3050 	ldr	r3, [pc, #80]	; 1cbc <isi_check_data_separate+0xb4>
    1c68:	e59f0050 	ldr	r0, [pc, #80]	; 1cc0 <isi_check_data_separate+0xb8>
    1c6c:	e1a0e00f 	mov	lr, pc
    1c70:	e593f000 	ldr	pc, [r3]
    1c74:	eb0007f4 	bl	3c4c <hash_len>
    1c78:	e1a01004 	mov	r1, r4
    1c7c:	e1a03000 	mov	r3, r0
    1c80:	e3a02001 	mov	r2, #1	; 0x1
    1c84:	e1a00004 	mov	r0, r4
    1c88:	e3a04020 	mov	r4, #32	; 0x20
    1c8c:	e58d4000 	str	r4, [sp]
    1c90:	eb0042f7 	bl	12874 <print_buffer>
    1c94:	eb0007ec 	bl	3c4c <hash_len>
    1c98:	e1a01006 	mov	r1, r6
    1c9c:	e1a03000 	mov	r3, r0
    1ca0:	e3a02001 	mov	r2, #1	; 0x1
    1ca4:	e1a00006 	mov	r0, r6
    1ca8:	e58d4000 	str	r4, [sp]
    1cac:	eb0042f0 	bl	12874 <print_buffer>
    1cb0:	e3e00020 	mvn	r0, #32	; 0x20
    1cb4:	e28dd028 	add	sp, sp, #40	; 0x28
    1cb8:	e8bd8070 	pop	{r4, r5, r6, pc}
    1cbc:	3c00a94c 	.word	0x3c00a94c
    1cc0:	00018961 	.word	0x00018961

00001cc4 <isi_check_data>:
    1cc4:	e2801c02 	add	r1, r0, #512	; 0x200
    1cc8:	eaffffce 	b	1c08 <isi_check_data_separate>

00001ccc <isi_check>:
    1ccc:	e92d4010 	push	{r4, lr}
    1cd0:	e1a04000 	mov	r4, r0
    1cd4:	ebffffa1 	bl	1b60 <isi_check_header>
    1cd8:	e3500000 	cmp	r0, #0	; 0x0
    1cdc:	18bd8010 	popne	{r4, pc}
    1ce0:	e1a00004 	mov	r0, r4
    1ce4:	e8bd4010 	pop	{r4, lr}
    1ce8:	eafffff5 	b	1cc4 <isi_check_data>

00001cec <load_serial_ymodem>:
    1cec:	e92d41f0 	push	{r4, r5, r6, r7, r8, lr}
    1cf0:	e24dde41 	sub	sp, sp, #1040	; 0x410
    1cf4:	e28d4b01 	add	r4, sp, #1024	; 0x400
    1cf8:	e284400c 	add	r4, r4, #12	; 0xc
    1cfc:	e3a03002 	mov	r3, #2	; 0x2
    1d00:	e1a07000 	mov	r7, r0
    1d04:	e1a01004 	mov	r1, r4
    1d08:	e28d0b01 	add	r0, sp, #1024	; 0x400
    1d0c:	e58d3404 	str	r3, [sp, #1028]
    1d10:	eb0054a0 	bl	16f98 <xyzModem_stream_open>
    1d14:	e3500000 	cmp	r0, #0	; 0x0
    1d18:	1a000012 	bne	1d68 <load_serial_ymodem+0x7c>
    1d1c:	e1a08004 	mov	r8, r4
    1d20:	e1a05000 	mov	r5, r0
    1d24:	e1a04000 	mov	r4, r0
    1d28:	e1a0600d 	mov	r6, sp
    1d2c:	ea000001 	b	1d38 <load_serial_ymodem+0x4c>
    1d30:	e085500c 	add	r5, r5, ip
    1d34:	ebfffe21 	bl	15c0 <memcpy>
    1d38:	e3a01b01 	mov	r1, #1024	; 0x400
    1d3c:	e1a02008 	mov	r2, r8
    1d40:	e1a0000d 	mov	r0, sp
    1d44:	eb0053ff 	bl	16d48 <xyzModem_stream_read>
    1d48:	e0843007 	add	r3, r4, r7
    1d4c:	e250c000 	subs	ip, r0, #0	; 0x0
    1d50:	e1a0100d 	mov	r1, sp
    1d54:	e1a0200c 	mov	r2, ip
    1d58:	e1a00003 	mov	r0, r3
    1d5c:	e084400c 	add	r4, r4, ip
    1d60:	cafffff2 	bgt	1d30 <load_serial_ymodem+0x44>
    1d64:	ea000007 	b	1d88 <load_serial_ymodem+0x9c>
    1d68:	e59f3054 	ldr	r3, [pc, #84]	; 1dc4 <load_serial_ymodem+0xd8>
    1d6c:	e59d040c 	ldr	r0, [sp, #1036]
    1d70:	e5934000 	ldr	r4, [r3]
    1d74:	eb00507a 	bl	15f64 <xyzModem_error>
    1d78:	e1a01000 	mov	r1, r0
    1d7c:	e59f0044 	ldr	r0, [pc, #68]	; 1dc8 <load_serial_ymodem+0xdc>
    1d80:	e12fff34 	blx	r4
    1d84:	e3a05000 	mov	r5, #0	; 0x0
    1d88:	e28d0b01 	add	r0, sp, #1024	; 0x400
    1d8c:	e280000c 	add	r0, r0, #12	; 0xc
    1d90:	eb00505b 	bl	15f04 <xyzModem_stream_close>
    1d94:	e3a00000 	mov	r0, #0	; 0x0
    1d98:	e59f102c 	ldr	r1, [pc, #44]	; 1dcc <load_serial_ymodem+0xe0>
    1d9c:	eb005309 	bl	169c8 <xyzModem_stream_terminate>
    1da0:	e1a01005 	mov	r1, r5
    1da4:	e59f0024 	ldr	r0, [pc, #36]	; 1dd0 <load_serial_ymodem+0xe4>
    1da8:	e1a02005 	mov	r2, r5
    1dac:	e59f3010 	ldr	r3, [pc, #16]	; 1dc4 <load_serial_ymodem+0xd8>
    1db0:	e1a0e00f 	mov	lr, pc
    1db4:	e593f000 	ldr	pc, [r3]
    1db8:	e1a00007 	mov	r0, r7
    1dbc:	e28dde41 	add	sp, sp, #1040	; 0x410
    1dc0:	e8bd81f0 	pop	{r4, r5, r6, r7, r8, pc}
    1dc4:	3c00a94c 	.word	0x3c00a94c
    1dc8:	00018a5d 	.word	0x00018a5d
    1dcc:	00001dd4 	.word	0x00001dd4
    1dd0:	00018985 	.word	0x00018985

00001dd4 <getcxmodem>:
    1dd4:	e52de004 	push	{lr}		; (str lr, [sp, #-4]!)
    1dd8:	e24dd004 	sub	sp, sp, #4	; 0x4
    1ddc:	eb004cfa 	bl	151cc <tstc>
    1de0:	e3500000 	cmp	r0, #0	; 0x0
    1de4:	1a000002 	bne	1df4 <getcxmodem+0x20>
    1de8:	e3e00000 	mvn	r0, #0	; 0x0
    1dec:	e28dd004 	add	sp, sp, #4	; 0x4
    1df0:	e8bd8000 	pop	{pc}
    1df4:	e28dd004 	add	sp, sp, #4	; 0x4
    1df8:	e49de004 	pop	{lr}		; (ldr lr, [sp], #4)
    1dfc:	ea004cf3 	b	151d0 <getc>

00001e00 <do_load_serial_bin>:
    1e00:	e92d40f0 	push	{r4, r5, r6, r7, lr}
    1e04:	e3520001 	cmp	r2, #1	; 0x1
    1e08:	e24dd00c 	sub	sp, sp, #12	; 0xc
    1e0c:	e1a06002 	mov	r6, r2
    1e10:	e1a07000 	mov	r7, r0
    1e14:	e1a05003 	mov	r5, r3
    1e18:	ca000006 	bgt	1e38 <do_load_serial_bin+0x38>
    1e1c:	e59f0120 	ldr	r0, [pc, #288]	; 1f44 <do_load_serial_bin+0x144>
    1e20:	e3a06000 	mov	r6, #0	; 0x0
    1e24:	e59f311c 	ldr	r3, [pc, #284]	; 1f48 <do_load_serial_bin+0x148>
    1e28:	e1a0e00f 	mov	lr, pc
    1e2c:	e593f000 	ldr	pc, [r3]
    1e30:	e1a04006 	mov	r4, r6
    1e34:	ea00000c 	b	1e6c <do_load_serial_bin+0x6c>
    1e38:	e5930004 	ldr	r0, [r3, #4]
    1e3c:	e3a01000 	mov	r1, #0	; 0x0
    1e40:	e3a02010 	mov	r2, #16	; 0x10
    1e44:	eb004322 	bl	12ad4 <simple_strtoul>
    1e48:	e3560003 	cmp	r6, #3	; 0x3
    1e4c:	e1a04000 	mov	r4, r0
    1e50:	13a06000 	movne	r6, #0	; 0x0
    1e54:	1a000004 	bne	1e6c <do_load_serial_bin+0x6c>
    1e58:	e5950008 	ldr	r0, [r5, #8]
    1e5c:	e3a01000 	mov	r1, #0	; 0x0
    1e60:	e3a02010 	mov	r2, #16	; 0x10
    1e64:	eb00431a 	bl	12ad4 <simple_strtoul>
    1e68:	e1a06000 	mov	r6, r0
    1e6c:	e5950000 	ldr	r0, [r5]
    1e70:	e59f10d4 	ldr	r1, [pc, #212]	; 1f4c <do_load_serial_bin+0x14c>
    1e74:	ebfffd8a 	bl	14a4 <strcmp>
    1e78:	e3500000 	cmp	r0, #0	; 0x0
    1e7c:	1a000007 	bne	1ea0 <do_load_serial_bin+0xa0>
    1e80:	e1a01004 	mov	r1, r4
    1e84:	e59f00c4 	ldr	r0, [pc, #196]	; 1f50 <do_load_serial_bin+0x150>
    1e88:	e59f30b8 	ldr	r3, [pc, #184]	; 1f48 <do_load_serial_bin+0x148>
    1e8c:	e1a0e00f 	mov	lr, pc
    1e90:	e593f000 	ldr	pc, [r3]
    1e94:	e1a00004 	mov	r0, r4
    1e98:	ebffff93 	bl	1cec <load_serial_ymodem>
    1e9c:	ea000025 	b	1f38 <do_load_serial_bin+0x138>
    1ea0:	e5950000 	ldr	r0, [r5]
    1ea4:	e59f10a8 	ldr	r1, [pc, #168]	; 1f54 <do_load_serial_bin+0x154>
    1ea8:	ebfffd7d 	bl	14a4 <strcmp>
    1eac:	e3500000 	cmp	r0, #0	; 0x0
    1eb0:	e59f5090 	ldr	r5, [pc, #144]	; 1f48 <do_load_serial_bin+0x148>
    1eb4:	1a00001b 	bne	1f28 <do_load_serial_bin+0x128>
    1eb8:	e1a02006 	mov	r2, r6
    1ebc:	e59f0094 	ldr	r0, [pc, #148]	; 1f58 <do_load_serial_bin+0x158>
    1ec0:	e1a01004 	mov	r1, r4
    1ec4:	e1a0e00f 	mov	lr, pc
    1ec8:	e595f000 	ldr	pc, [r5]
    1ecc:	e1a00004 	mov	r0, r4
    1ed0:	e1a01006 	mov	r1, r6
    1ed4:	eb00521e 	bl	16754 <control_send>
    1ed8:	e3500000 	cmp	r0, #0	; 0x0
    1edc:	aa000005 	bge	1ef8 <do_load_serial_bin+0xf8>
    1ee0:	e59d0004 	ldr	r0, [sp, #4]
    1ee4:	e5954000 	ldr	r4, [r5]
    1ee8:	eb00501d 	bl	15f64 <xyzModem_error>
    1eec:	e1a01000 	mov	r1, r0
    1ef0:	e59f0064 	ldr	r0, [pc, #100]	; 1f5c <do_load_serial_bin+0x15c>
    1ef4:	e12fff34 	blx	r4
    1ef8:	e28d0004 	add	r0, sp, #4	; 0x4
    1efc:	eb005000 	bl	15f04 <xyzModem_stream_close>
    1f00:	e3a00000 	mov	r0, #0	; 0x0
    1f04:	e59f1054 	ldr	r1, [pc, #84]	; 1f60 <do_load_serial_bin+0x160>
    1f08:	eb0052ae 	bl	169c8 <xyzModem_stream_terminate>
    1f0c:	e1a01006 	mov	r1, r6
    1f10:	e59f004c 	ldr	r0, [pc, #76]	; 1f64 <do_load_serial_bin+0x164>
    1f14:	e1a02006 	mov	r2, r6
    1f18:	e59f3028 	ldr	r3, [pc, #40]	; 1f48 <do_load_serial_bin+0x148>
    1f1c:	e1a0e00f 	mov	lr, pc
    1f20:	e593f000 	ldr	pc, [r3]
    1f24:	ea000003 	b	1f38 <do_load_serial_bin+0x138>
    1f28:	e5971014 	ldr	r1, [r7, #20]
    1f2c:	e59f0034 	ldr	r0, [pc, #52]	; 1f68 <do_load_serial_bin+0x168>
    1f30:	e1a0e00f 	mov	lr, pc
    1f34:	e595f000 	ldr	pc, [r5]
    1f38:	e3a00000 	mov	r0, #0	; 0x0
    1f3c:	e28dd00c 	add	sp, sp, #12	; 0xc
    1f40:	e8bd80f0 	pop	{r4, r5, r6, r7, pc}
    1f44:	000189ad 	.word	0x000189ad
    1f48:	3c00a94c 	.word	0x3c00a94c
    1f4c:	000189c7 	.word	0x000189c7
    1f50:	000189ca 	.word	0x000189ca
    1f54:	00018a0d 	.word	0x00018a0d
    1f58:	00018a10 	.word	0x00018a10
    1f5c:	00018a5d 	.word	0x00018a5d
    1f60:	00001dd4 	.word	0x00001dd4
    1f64:	00018985 	.word	0x00018985
    1f68:	00018a5c 	.word	0x00018a5c

00001f6c <do_mem_cp>:
    1f6c:	e3520004 	cmp	r2, #4	; 0x4
    1f70:	e92d4070 	push	{r4, r5, r6, lr}
    1f74:	e1a04003 	mov	r4, r3
    1f78:	0a000002 	beq	1f88 <do_mem_cp+0x1c>
    1f7c:	eb000377 	bl	2d60 <cmd_usage>
    1f80:	e3a00001 	mov	r0, #1	; 0x1
    1f84:	e8bd8070 	pop	{r4, r5, r6, pc}
    1f88:	e5930004 	ldr	r0, [r3, #4]
    1f8c:	e3a01000 	mov	r1, #0	; 0x0
    1f90:	e3a02010 	mov	r2, #16	; 0x10
    1f94:	eb0042ce 	bl	12ad4 <simple_strtoul>
    1f98:	e3a01000 	mov	r1, #0	; 0x0
    1f9c:	e3a02010 	mov	r2, #16	; 0x10
    1fa0:	e1a06000 	mov	r6, r0
    1fa4:	e5940008 	ldr	r0, [r4, #8]
    1fa8:	eb0042c9 	bl	12ad4 <simple_strtoul>
    1fac:	e3a01000 	mov	r1, #0	; 0x0
    1fb0:	e1a05000 	mov	r5, r0
    1fb4:	e3a02010 	mov	r2, #16	; 0x10
    1fb8:	e594000c 	ldr	r0, [r4, #12]
    1fbc:	eb0042c4 	bl	12ad4 <simple_strtoul>
    1fc0:	e2800003 	add	r0, r0, #3	; 0x3
    1fc4:	e1b00120 	lsrs	r0, r0, #2
    1fc8:	1a000002 	bne	1fd8 <do_mem_cp+0x6c>
    1fcc:	ea000006 	b	1fec <do_mem_cp+0x80>
    1fd0:	e5163004 	ldr	r3, [r6, #-4]
    1fd4:	e5053004 	str	r3, [r5, #-4]
    1fd8:	e3500000 	cmp	r0, #0	; 0x0
    1fdc:	e2866004 	add	r6, r6, #4	; 0x4
    1fe0:	e2400001 	sub	r0, r0, #1	; 0x1
    1fe4:	e2855004 	add	r5, r5, #4	; 0x4
    1fe8:	1afffff8 	bne	1fd0 <do_mem_cp+0x64>
    1fec:	e3a00000 	mov	r0, #0	; 0x0
    1ff0:	e8bd8070 	pop	{r4, r5, r6, pc}

00001ff4 <do_mem_cmp>:
    1ff4:	e92d40f0 	push	{r4, r5, r6, r7, lr}
    1ff8:	e3520004 	cmp	r2, #4	; 0x4
    1ffc:	e24dd00c 	sub	sp, sp, #12	; 0xc
    2000:	e1a04003 	mov	r4, r3
    2004:	0a000002 	beq	2014 <do_mem_cmp+0x20>
    2008:	eb000354 	bl	2d60 <cmd_usage>
    200c:	e3a04001 	mov	r4, #1	; 0x1
    2010:	ea000029 	b	20bc <do_mem_cmp+0xc8>
    2014:	e5930004 	ldr	r0, [r3, #4]
    2018:	e3a01000 	mov	r1, #0	; 0x0
    201c:	e3a02010 	mov	r2, #16	; 0x10
    2020:	eb0042ab 	bl	12ad4 <simple_strtoul>
    2024:	e3a01000 	mov	r1, #0	; 0x0
    2028:	e3a02010 	mov	r2, #16	; 0x10
    202c:	e1a07000 	mov	r7, r0
    2030:	e5940008 	ldr	r0, [r4, #8]
    2034:	eb0042a6 	bl	12ad4 <simple_strtoul>
    2038:	e3a01000 	mov	r1, #0	; 0x0
    203c:	e1a06000 	mov	r6, r0
    2040:	e3a02010 	mov	r2, #16	; 0x10
    2044:	e594000c 	ldr	r0, [r4, #12]
    2048:	eb0042a1 	bl	12ad4 <simple_strtoul>
    204c:	e2800003 	add	r0, r0, #3	; 0x3
    2050:	e1a00120 	lsr	r0, r0, #2
    2054:	e3a05000 	mov	r5, #0	; 0x0
    2058:	ea00000f 	b	209c <do_mem_cmp+0xa8>
    205c:	e5972000 	ldr	r2, [r7]
    2060:	e5963000 	ldr	r3, [r6]
    2064:	e1520003 	cmp	r2, r3
    2068:	0a000008 	beq	2090 <do_mem_cmp+0x9c>
    206c:	e58d3000 	str	r3, [sp]
    2070:	e1a01007 	mov	r1, r7
    2074:	e1a03006 	mov	r3, r6
    2078:	e59f0048 	ldr	r0, [pc, #72]	; 20c8 <do_mem_cmp+0xd4>
    207c:	e59fc048 	ldr	ip, [pc, #72]	; 20cc <do_mem_cmp+0xd8>
    2080:	e1a0e00f 	mov	lr, pc
    2084:	e59cf000 	ldr	pc, [ip]
    2088:	e3a04001 	mov	r4, #1	; 0x1
    208c:	ea000005 	b	20a8 <do_mem_cmp+0xb4>
    2090:	e2855001 	add	r5, r5, #1	; 0x1
    2094:	e2877004 	add	r7, r7, #4	; 0x4
    2098:	e2866004 	add	r6, r6, #4	; 0x4
    209c:	e1500005 	cmp	r0, r5
    20a0:	1affffed 	bne	205c <do_mem_cmp+0x68>
    20a4:	e3a04000 	mov	r4, #0	; 0x0
    20a8:	e1a01005 	mov	r1, r5
    20ac:	e59f001c 	ldr	r0, [pc, #28]	; 20d0 <do_mem_cmp+0xdc>
    20b0:	e59f3014 	ldr	r3, [pc, #20]	; 20cc <do_mem_cmp+0xd8>
    20b4:	e1a0e00f 	mov	lr, pc
    20b8:	e593f000 	ldr	pc, [r3]
    20bc:	e1a00004 	mov	r0, r4
    20c0:	e28dd00c 	add	sp, sp, #12	; 0xc
    20c4:	e8bd80f0 	pop	{r4, r5, r6, r7, pc}
    20c8:	00018b62 	.word	0x00018b62
    20cc:	3c00a94c 	.word	0x3c00a94c
    20d0:	00018b9a 	.word	0x00018b9a

000020d4 <do_mem_mw>:
    20d4:	e92d40f0 	push	{r4, r5, r6, r7, lr}
    20d8:	e1a06002 	mov	r6, r2
    20dc:	e2422003 	sub	r2, r2, #3	; 0x3
    20e0:	e3520001 	cmp	r2, #1	; 0x1
    20e4:	e24dd004 	sub	sp, sp, #4	; 0x4
    20e8:	e1a04003 	mov	r4, r3
    20ec:	9a000002 	bls	20fc <do_mem_mw+0x28>
    20f0:	eb00031a 	bl	2d60 <cmd_usage>
    20f4:	e3a00001 	mov	r0, #1	; 0x1
    20f8:	ea000016 	b	2158 <do_mem_mw+0x84>
    20fc:	e3a01000 	mov	r1, #0	; 0x0
    2100:	e3a02010 	mov	r2, #16	; 0x10
    2104:	e5930004 	ldr	r0, [r3, #4]
    2108:	eb004271 	bl	12ad4 <simple_strtoul>
    210c:	e3a01000 	mov	r1, #0	; 0x0
    2110:	e1a05000 	mov	r5, r0
    2114:	e3a02010 	mov	r2, #16	; 0x10
    2118:	e5940008 	ldr	r0, [r4, #8]
    211c:	eb00426c 	bl	12ad4 <simple_strtoul>
    2120:	e3560004 	cmp	r6, #4	; 0x4
    2124:	e1a07000 	mov	r7, r0
    2128:	13a00001 	movne	r0, #1	; 0x1
    212c:	1a000006 	bne	214c <do_mem_mw+0x78>
    2130:	e594000c 	ldr	r0, [r4, #12]
    2134:	e3a01000 	mov	r1, #0	; 0x0
    2138:	e3a02010 	mov	r2, #16	; 0x10
    213c:	eb004264 	bl	12ad4 <simple_strtoul>
    2140:	ea000001 	b	214c <do_mem_mw+0x78>
    2144:	e5057004 	str	r7, [r5, #-4]
    2148:	e2400001 	sub	r0, r0, #1	; 0x1
    214c:	e3500000 	cmp	r0, #0	; 0x0
    2150:	e2855004 	add	r5, r5, #4	; 0x4
    2154:	1afffffa 	bne	2144 <do_mem_mw+0x70>
    2158:	e28dd004 	add	sp, sp, #4	; 0x4
    215c:	e8bd80f0 	pop	{r4, r5, r6, r7, pc}

00002160 <do_mem_md>:
    2160:	e92d4070 	push	{r4, r5, r6, lr}
    2164:	e3520001 	cmp	r2, #1	; 0x1
    2168:	e24dd008 	sub	sp, sp, #8	; 0x8
    216c:	e1a04002 	mov	r4, r2
    2170:	e1a05003 	mov	r5, r3
    2174:	ca000002 	bgt	2184 <do_mem_md+0x24>
    2178:	eb0002f8 	bl	2d60 <cmd_usage>
    217c:	e3a00001 	mov	r0, #1	; 0x1
    2180:	ea000014 	b	21d8 <do_mem_md+0x78>
    2184:	e5930004 	ldr	r0, [r3, #4]
    2188:	e3a01000 	mov	r1, #0	; 0x0
    218c:	e3a02010 	mov	r2, #16	; 0x10
    2190:	eb00424f 	bl	12ad4 <simple_strtoul>
    2194:	e3540002 	cmp	r4, #2	; 0x2
    2198:	e1a06000 	mov	r6, r0
    219c:	03a030a0 	moveq	r3, #160	; 0xa0
    21a0:	0a000004 	beq	21b8 <do_mem_md+0x58>
    21a4:	e5950008 	ldr	r0, [r5, #8]
    21a8:	e3a01000 	mov	r1, #0	; 0x0
    21ac:	e3a02010 	mov	r2, #16	; 0x10
    21b0:	eb004247 	bl	12ad4 <simple_strtoul>
    21b4:	e1a03000 	mov	r3, r0
    21b8:	e3a0c004 	mov	ip, #4	; 0x4
    21bc:	e1a00006 	mov	r0, r6
    21c0:	e1a0200c 	mov	r2, ip
    21c4:	e1a03123 	lsr	r3, r3, #2
    21c8:	e1a01006 	mov	r1, r6
    21cc:	e58dc000 	str	ip, [sp]
    21d0:	eb0041a7 	bl	12874 <print_buffer>
    21d4:	e3a00000 	mov	r0, #0	; 0x0
    21d8:	e28dd008 	add	sp, sp, #8	; 0x8
    21dc:	e8bd8070 	pop	{r4, r5, r6, pc}

000021e0 <do_nand>:
    21e0:	e3520001 	cmp	r2, #1	; 0x1
    21e4:	e92d4070 	push	{r4, r5, r6, lr}
    21e8:	e1a06002 	mov	r6, r2
    21ec:	e1a05003 	mov	r5, r3
    21f0:	da00001d 	ble	226c <do_nand+0x8c>
    21f4:	e5930004 	ldr	r0, [r3, #4]
    21f8:	e59f1094 	ldr	r1, [pc, #148]	; 2294 <do_nand+0xb4>
    21fc:	e3a02007 	mov	r2, #7	; 0x7
    2200:	ebfffcb5 	bl	14dc <strncmp>
    2204:	e2504000 	subs	r4, r0, #0	; 0x0
    2208:	1a000001 	bne	2214 <do_nand+0x34>
    220c:	eb001e80 	bl	9c14 <ecc_print_stat>
    2210:	ea000006 	b	2230 <do_nand+0x50>
    2214:	e5950004 	ldr	r0, [r5, #4]
    2218:	e59f1078 	ldr	r1, [pc, #120]	; 2298 <do_nand+0xb8>
    221c:	e3a02003 	mov	r2, #3	; 0x3
    2220:	ebfffcad 	bl	14dc <strncmp>
    2224:	e2504000 	subs	r4, r0, #0	; 0x0
    2228:	1a000002 	bne	2238 <do_nand+0x58>
    222c:	eb001b88 	bl	9054 <base_scan_badblocks>
    2230:	e1a00004 	mov	r0, r4
    2234:	e8bd8070 	pop	{r4, r5, r6, pc}
    2238:	e5950004 	ldr	r0, [r5, #4]
    223c:	e59f1058 	ldr	r1, [pc, #88]	; 229c <do_nand+0xbc>
    2240:	e3a02007 	mov	r2, #7	; 0x7
    2244:	ebfffca4 	bl	14dc <strncmp>
    2248:	e2504000 	subs	r4, r0, #0	; 0x0
    224c:	13a00000 	movne	r0, #0	; 0x0
    2250:	18bd8070 	popne	{r4, r5, r6, pc}
    2254:	e3560002 	cmp	r6, #2	; 0x2
    2258:	1a000005 	bne	2274 <do_nand+0x94>
    225c:	e59f003c 	ldr	r0, [pc, #60]	; 22a0 <do_nand+0xc0>
    2260:	e59f303c 	ldr	r3, [pc, #60]	; 22a4 <do_nand+0xc4>
    2264:	e1a0e00f 	mov	lr, pc
    2268:	e593f000 	ldr	pc, [r3]
    226c:	e3e00000 	mvn	r0, #0	; 0x0
    2270:	e8bd8070 	pop	{r4, r5, r6, pc}
    2274:	e3a02010 	mov	r2, #16	; 0x10
    2278:	e1a01004 	mov	r1, r4
    227c:	e5950008 	ldr	r0, [r5, #8]
    2280:	eb004213 	bl	12ad4 <simple_strtoul>
    2284:	e1a01004 	mov	r1, r4
    2288:	eb001c35 	bl	9364 <base_block_markbad>
    228c:	e1a00004 	mov	r0, r4
    2290:	e8bd8070 	pop	{r4, r5, r6, pc}
    2294:	00018c64 	.word	0x00018c64
    2298:	00018c70 	.word	0x00018c70
    229c:	00018c6c 	.word	0x00018c6c
    22a0:	00018c74 	.word	0x00018c74
    22a4:	3c00a94c 	.word	0x3c00a94c

000022a8 <do_sc>:
    22a8:	e92d40f0 	push	{r4, r5, r6, r7, lr}
    22ac:	e3520002 	cmp	r2, #2	; 0x2
    22b0:	e24ddf47 	sub	sp, sp, #284	; 0x11c
    22b4:	0a000002 	beq	22c4 <do_sc+0x1c>
    22b8:	eb0002a8 	bl	2d60 <cmd_usage>
    22bc:	e3a00001 	mov	r0, #1	; 0x1
    22c0:	ea000060 	b	2448 <do_sc+0x1a0>
    22c4:	e5930004 	ldr	r0, [r3, #4]
    22c8:	e3a01000 	mov	r1, #0	; 0x0
    22cc:	e3a02010 	mov	r2, #16	; 0x10
    22d0:	eb0041ff 	bl	12ad4 <simple_strtoul>
    22d4:	e28d4f41 	add	r4, sp, #260	; 0x104
    22d8:	e2844002 	add	r4, r4, #2	; 0x2
    22dc:	e59f116c 	ldr	r1, [pc, #364]	; 2450 <do_sc+0x1a8>
    22e0:	e1a06000 	mov	r6, r0
    22e4:	e3a02012 	mov	r2, #18	; 0x12
    22e8:	e1a00004 	mov	r0, r4
    22ec:	ebfffcb3 	bl	15c0 <memcpy>
    22f0:	e3a01000 	mov	r1, #0	; 0x0
    22f4:	ea000004 	b	230c <do_sc+0x64>
    22f8:	e7d12006 	ldrb	r2, [r1, r6]
    22fc:	e7d43001 	ldrb	r3, [r4, r1]
    2300:	e2811001 	add	r1, r1, #1	; 0x1
    2304:	e1520003 	cmp	r2, r3
    2308:	1a000014 	bne	2360 <do_sc+0xb8>
    230c:	e3510012 	cmp	r1, #18	; 0x12
    2310:	e0815006 	add	r5, r1, r6
    2314:	1afffff7 	bne	22f8 <do_sc+0x50>
    2318:	e2851eff 	add	r1, r5, #4080	; 0xff0
    231c:	e281100f 	add	r1, r1, #15	; 0xf
    2320:	e1a02005 	mov	r2, r5
    2324:	e5d23000 	ldrb	r3, [r2]
    2328:	e353000a 	cmp	r3, #10	; 0xa
    232c:	1a000005 	bne	2348 <do_sc+0xa0>
    2330:	e5d23001 	ldrb	r3, [r2, #1]
    2334:	e353005d 	cmp	r3, #93	; 0x5d
    2338:	1a000002 	bne	2348 <do_sc+0xa0>
    233c:	e5d23002 	ldrb	r3, [r2, #2]
    2340:	e353005d 	cmp	r3, #93	; 0x5d
    2344:	0a000003 	beq	2358 <do_sc+0xb0>
    2348:	e1520001 	cmp	r2, r1
    234c:	e2822001 	add	r2, r2, #1	; 0x1
    2350:	1afffff3 	bne	2324 <do_sc+0x7c>
    2354:	ea000001 	b	2360 <do_sc+0xb8>
    2358:	e3550000 	cmp	r5, #0	; 0x0
    235c:	1a000006 	bne	237c <do_sc+0xd4>
    2360:	e59f00ec 	ldr	r0, [pc, #236]	; 2454 <do_sc+0x1ac>
    2364:	e1a01006 	mov	r1, r6
    2368:	e59f30e8 	ldr	r3, [pc, #232]	; 2458 <do_sc+0x1b0>
    236c:	e1a0e00f 	mov	lr, pc
    2370:	e593f000 	ldr	pc, [r3]
    2374:	e3e00000 	mvn	r0, #0	; 0x0
    2378:	ea000032 	b	2448 <do_sc+0x1a0>
    237c:	e59f40d4 	ldr	r4, [pc, #212]	; 2458 <do_sc+0x1b0>
    2380:	e1a01006 	mov	r1, r6
    2384:	e59f00d0 	ldr	r0, [pc, #208]	; 245c <do_sc+0x1b4>
    2388:	e28d6008 	add	r6, sp, #8	; 0x8
    238c:	e1a0e00f 	mov	lr, pc
    2390:	e594f000 	ldr	pc, [r4]
    2394:	e2466002 	sub	r6, r6, #2	; 0x2
    2398:	e1a07004 	mov	r7, r4
    239c:	ea000000 	b	23a4 <do_sc+0xfc>
    23a0:	e2855001 	add	r5, r5, #1	; 0x1
    23a4:	e5d53000 	ldrb	r3, [r5]
    23a8:	e353002d 	cmp	r3, #45	; 0x2d
    23ac:	1353000a 	cmpne	r3, #10	; 0xa
    23b0:	0afffffa 	beq	23a0 <do_sc+0xf8>
    23b4:	e353005b 	cmp	r3, #91	; 0x5b
    23b8:	0afffff8 	beq	23a0 <do_sc+0xf8>
    23bc:	e353005d 	cmp	r3, #93	; 0x5d
    23c0:	0a000001 	beq	23cc <do_sc+0x124>
    23c4:	e1a02006 	mov	r2, r6
    23c8:	ea000005 	b	23e4 <do_sc+0x13c>
    23cc:	e5d53001 	ldrb	r3, [r5, #1]
    23d0:	e353005d 	cmp	r3, #93	; 0x5d
    23d4:	1afffffa 	bne	23c4 <do_sc+0x11c>
    23d8:	ea00000c 	b	2410 <do_sc+0x168>
    23dc:	e5423001 	strb	r3, [r2, #-1]
    23e0:	e2855001 	add	r5, r5, #1	; 0x1
    23e4:	e5d53000 	ldrb	r3, [r5]
    23e8:	e1a01002 	mov	r1, r2
    23ec:	e353000a 	cmp	r3, #10	; 0xa
    23f0:	1353005d 	cmpne	r3, #93	; 0x5d
    23f4:	03a04000 	moveq	r4, #0	; 0x0
    23f8:	13a04001 	movne	r4, #1	; 0x1
    23fc:	e2822001 	add	r2, r2, #1	; 0x1
    2400:	1afffff5 	bne	23dc <do_sc+0x134>
    2404:	e3550000 	cmp	r5, #0	; 0x0
    2408:	e5c14000 	strb	r4, [r1]
    240c:	1a000005 	bne	2428 <do_sc+0x180>
    2410:	e59f0048 	ldr	r0, [pc, #72]	; 2460 <do_sc+0x1b8>
    2414:	e59f303c 	ldr	r3, [pc, #60]	; 2458 <do_sc+0x1b0>
    2418:	e1a0e00f 	mov	lr, pc
    241c:	e593f000 	ldr	pc, [r3]
    2420:	e3a00000 	mov	r0, #0	; 0x0
    2424:	ea000007 	b	2448 <do_sc+0x1a0>
    2428:	e1a01006 	mov	r1, r6
    242c:	e59f0030 	ldr	r0, [pc, #48]	; 2464 <do_sc+0x1bc>
    2430:	e1a0e00f 	mov	lr, pc
    2434:	e597f000 	ldr	pc, [r7]
    2438:	e1a00006 	mov	r0, r6
    243c:	e1a01004 	mov	r1, r4
    2440:	eb004b9e 	bl	152c0 <run_command>
    2444:	eaffffd6 	b	23a4 <do_sc+0xfc>
    2448:	e28ddf47 	add	sp, sp, #284	; 0x11c
    244c:	e8bd80f0 	pop	{r4, r5, r6, r7, pc}
    2450:	00018530 	.word	0x00018530
    2454:	00018cb3 	.word	0x00018cb3
    2458:	3c00a94c 	.word	0x3c00a94c
    245c:	00018cd0 	.word	0x00018cd0
    2460:	00018ce9 	.word	0x00018ce9
    2464:	00018cf6 	.word	0x00018cf6

00002468 <do_ls>:
    2468:	e52de004 	push	{lr}		; (str lr, [sp, #-4]!)
    246c:	e59f001c 	ldr	r0, [pc, #28]	; 2490 <do_ls+0x28>
    2470:	e24dd004 	sub	sp, sp, #4	; 0x4
    2474:	e59f1018 	ldr	r1, [pc, #24]	; 2494 <do_ls+0x2c>
    2478:	e59f3018 	ldr	r3, [pc, #24]	; 2498 <do_ls+0x30>
    247c:	e1a0e00f 	mov	lr, pc
    2480:	e593f000 	ldr	pc, [r3]
    2484:	e3a00000 	mov	r0, #0	; 0x0
    2488:	e28dd004 	add	sp, sp, #4	; 0x4
    248c:	e8bd8000 	pop	{pc}
    2490:	00018a5d 	.word	0x00018a5d
    2494:	3c00a000 	.word	0x3c00a000
    2498:	3c00a94c 	.word	0x3c00a94c

0000249c <do_reset>:
    249c:	e59f300c 	ldr	r3, [pc, #12]	; 24b0 <do_reset+0x14>
    24a0:	e3a02003 	mov	r2, #3	; 0x3
    24a4:	e5832c00 	str	r2, [r3, #3072]
    24a8:	e3a00000 	mov	r0, #0	; 0x0
    24ac:	e12fff1e 	bx	lr
    24b0:	21e09000 	.word	0x21e09000

000024b4 <do_mux>:
    24b4:	e52de004 	push	{lr}		; (str lr, [sp, #-4]!)
    24b8:	e59f3020 	ldr	r3, [pc, #32]	; 24e0 <do_mux+0x2c>
    24bc:	e24dd004 	sub	sp, sp, #4	; 0x4
    24c0:	e5931000 	ldr	r1, [r3]
    24c4:	e59f0018 	ldr	r0, [pc, #24]	; 24e4 <do_mux+0x30>
    24c8:	e59f3018 	ldr	r3, [pc, #24]	; 24e8 <do_mux+0x34>
    24cc:	e1a0e00f 	mov	lr, pc
    24d0:	e593f000 	ldr	pc, [r3]
    24d4:	e3a00000 	mov	r0, #0	; 0x0
    24d8:	e28dd004 	add	sp, sp, #4	; 0x4
    24dc:	e8bd8000 	pop	{pc}
    24e0:	21e09000 	.word	0x21e09000
    24e4:	00018d1d 	.word	0x00018d1d
    24e8:	3c00a94c 	.word	0x3c00a94c

000024ec <do_pads>:
    24ec:	e92d4030 	push	{r4, r5, lr}
    24f0:	e3520001 	cmp	r2, #1	; 0x1
    24f4:	e24dd004 	sub	sp, sp, #4	; 0x4
    24f8:	da00000b 	ble	252c <do_pads+0x40>
    24fc:	e3a01000 	mov	r1, #0	; 0x0
    2500:	e3a0200a 	mov	r2, #10	; 0xa
    2504:	e5930004 	ldr	r0, [r3, #4]
    2508:	eb004171 	bl	12ad4 <simple_strtoul>
    250c:	e59f3024 	ldr	r3, [pc, #36]	; 2538 <do_pads+0x4c>
    2510:	e1a04000 	mov	r4, r0
    2514:	e5935000 	ldr	r5, [r3]
    2518:	ebfff985 	bl	b34 <pads_states>
    251c:	e1a01004 	mov	r1, r4
    2520:	e1a02000 	mov	r2, r0
    2524:	e59f0010 	ldr	r0, [pc, #16]	; 253c <do_pads+0x50>
    2528:	e12fff35 	blx	r5
    252c:	e3a00000 	mov	r0, #0	; 0x0
    2530:	e28dd004 	add	sp, sp, #4	; 0x4
    2534:	e8bd8030 	pop	{r4, r5, pc}
    2538:	3c00a94c 	.word	0x3c00a94c
    253c:	00018d2a 	.word	0x00018d2a

00002540 <do_mac>:
    2540:	e59f3020 	ldr	r3, [pc, #32]	; 2568 <do_mac+0x28>
    2544:	e92d4010 	push	{r4, lr}
    2548:	e5934000 	ldr	r4, [r3]
    254c:	ebfffadb 	bl	10c0 <efuse_mac>
    2550:	e1a02000 	mov	r2, r0
    2554:	e1a03001 	mov	r3, r1
    2558:	e59f000c 	ldr	r0, [pc, #12]	; 256c <do_mac+0x2c>
    255c:	e12fff34 	blx	r4
    2560:	e3a00000 	mov	r0, #0	; 0x0
    2564:	e8bd8010 	pop	{r4, pc}
    2568:	3c00a94c 	.word	0x3c00a94c
    256c:	00018d3f 	.word	0x00018d3f

00002570 <do_boot>:
    2570:	e52de004 	push	{lr}		; (str lr, [sp, #-4]!)
    2574:	e24dd004 	sub	sp, sp, #4	; 0x4
    2578:	ebfff7c4 	bl	490 <try_boot>
    257c:	e3a00000 	mov	r0, #0	; 0x0
    2580:	e28dd004 	add	sp, sp, #4	; 0x4
    2584:	e8bd8000 	pop	{pc}

00002588 <do_efuse>:
    2588:	e52de004 	push	{lr}		; (str lr, [sp, #-4]!)
    258c:	e3520001 	cmp	r2, #1	; 0x1
    2590:	e24dd004 	sub	sp, sp, #4	; 0x4
    2594:	da000006 	ble	25b4 <do_efuse+0x2c>
    2598:	e5930004 	ldr	r0, [r3, #4]
    259c:	e59f1024 	ldr	r1, [pc, #36]	; 25c8 <do_efuse+0x40>
    25a0:	e3a02002 	mov	r2, #2	; 0x2
    25a4:	ebfffbcc 	bl	14dc <strncmp>
    25a8:	e3500000 	cmp	r0, #0	; 0x0
    25ac:	02800001 	addeq	r0, r0, #1	; 0x1
    25b0:	0a000000 	beq	25b8 <do_efuse+0x30>
    25b4:	e3a00000 	mov	r0, #0	; 0x0
    25b8:	ebfffac4 	bl	10d0 <efuse_info>
    25bc:	e3a00000 	mov	r0, #0	; 0x0
    25c0:	e28dd004 	add	sp, sp, #4	; 0x4
    25c4:	e8bd8000 	pop	{pc}
    25c8:	00018d57 	.word	0x00018d57

000025cc <do_pi>:
    25cc:	e92d4030 	push	{r4, r5, lr}
    25d0:	e3520001 	cmp	r2, #1	; 0x1
    25d4:	e24dd004 	sub	sp, sp, #4	; 0x4
    25d8:	e1a04002 	mov	r4, r2
    25dc:	e1a05003 	mov	r5, r3
    25e0:	da000015 	ble	263c <do_pi+0x70>
    25e4:	e59f10ac 	ldr	r1, [pc, #172]	; 2698 <do_pi+0xcc>
    25e8:	e5930004 	ldr	r0, [r3, #4]
    25ec:	e3a02004 	mov	r2, #4	; 0x4
    25f0:	ebfffbb9 	bl	14dc <strncmp>
    25f4:	e2501000 	subs	r1, r0, #0	; 0x0
    25f8:	1a00000d 	bne	2634 <do_pi+0x68>
    25fc:	e3540002 	cmp	r4, #2	; 0x2
    2600:	01a04001 	moveq	r4, r1
    2604:	0a000003 	beq	2618 <do_pi+0x4c>
    2608:	e5950008 	ldr	r0, [r5, #8]
    260c:	e3a02010 	mov	r2, #16	; 0x10
    2610:	eb00412f 	bl	12ad4 <simple_strtoul>
    2614:	e1a04000 	mov	r4, r0
    2618:	e59f007c 	ldr	r0, [pc, #124]	; 269c <do_pi+0xd0>
    261c:	e1a01004 	mov	r1, r4
    2620:	e59f3078 	ldr	r3, [pc, #120]	; 26a0 <do_pi+0xd4>
    2624:	e1a0e00f 	mov	lr, pc
    2628:	e593f000 	ldr	pc, [r3]
    262c:	e1a00004 	mov	r0, r4
    2630:	eb000ad3 	bl	5184 <burn>
    2634:	e3a04000 	mov	r4, #0	; 0x0
    2638:	ea000013 	b	268c <do_pi+0xc0>
    263c:	e59f0060 	ldr	r0, [pc, #96]	; 26a4 <do_pi+0xd8>
    2640:	eb004a5e 	bl	14fc0 <ius_check_header>
    2644:	e2504000 	subs	r4, r0, #0	; 0x0
    2648:	159f0058 	ldrne	r0, [pc, #88]	; 26a8 <do_pi+0xdc>
    264c:	1a000005 	bne	2668 <do_pi+0x9c>
    2650:	e3a0000d 	mov	r0, #13	; 0xd
    2654:	e3a01001 	mov	r1, #1	; 0x1
    2658:	eb00032d 	bl	3314 <vs_assign_by_id>
    265c:	e2504000 	subs	r4, r0, #0	; 0x0
    2660:	0a000005 	beq	267c <do_pi+0xb0>
    2664:	e59f0040 	ldr	r0, [pc, #64]	; 26ac <do_pi+0xe0>
    2668:	e1a01004 	mov	r1, r4
    266c:	e59f302c 	ldr	r3, [pc, #44]	; 26a0 <do_pi+0xd4>
    2670:	e1a0e00f 	mov	lr, pc
    2674:	e593f000 	ldr	pc, [r3]
    2678:	ea000003 	b	268c <do_pi+0xc0>
    267c:	e59f0020 	ldr	r0, [pc, #32]	; 26a4 <do_pi+0xd8>
    2680:	e3a0100d 	mov	r1, #13	; 0xd
    2684:	e1a02004 	mov	r2, r4
    2688:	eb000a3d 	bl	4f84 <burn_images>
    268c:	e1a00004 	mov	r0, r4
    2690:	e28dd004 	add	sp, sp, #4	; 0x4
    2694:	e8bd8030 	pop	{r4, r5, pc}
    2698:	00018d5a 	.word	0x00018d5a
    269c:	00018d5f 	.word	0x00018d5f
    26a0:	3c00a94c 	.word	0x3c00a94c
    26a4:	40200000 	.word	0x40200000
    26a8:	00018d89 	.word	0x00018d89
    26ac:	00018da9 	.word	0x00018da9

000026b0 <do_spbyte>:
    26b0:	e52de004 	push	{lr}		; (str lr, [sp, #-4]!)
    26b4:	e5930004 	ldr	r0, [r3, #4]
    26b8:	e24dd004 	sub	sp, sp, #4	; 0x4
    26bc:	e3a01000 	mov	r1, #0	; 0x0
    26c0:	e3a0200a 	mov	r2, #10	; 0xa
    26c4:	eb004102 	bl	12ad4 <simple_strtoul>
    26c8:	eb002716 	bl	c328 <spi_set_bytes>
    26cc:	e3a00000 	mov	r0, #0	; 0x0
    26d0:	e28dd004 	add	sp, sp, #4	; 0x4
    26d4:	e8bd8000 	pop	{pc}

000026d8 <do_cfg>:
    26d8:	e52de004 	push	{lr}		; (str lr, [sp, #-4]!)
    26dc:	e5930004 	ldr	r0, [r3, #4]
    26e0:	e24dd004 	sub	sp, sp, #4	; 0x4
    26e4:	e3a01000 	mov	r1, #0	; 0x0
    26e8:	e3a02010 	mov	r2, #16	; 0x10
    26ec:	eb0040f8 	bl	12ad4 <simple_strtoul>
    26f0:	eb0008c5 	bl	4a0c <cdbg_config_isi>
    26f4:	e3a00000 	mov	r0, #0	; 0x0
    26f8:	e28dd004 	add	sp, sp, #4	; 0x4
    26fc:	e8bd8000 	pop	{pc}

00002700 <do_sleep>:
    2700:	e52de004 	push	{lr}		; (str lr, [sp, #-4]!)
    2704:	e3a01000 	mov	r1, #0	; 0x0
    2708:	e24dd004 	sub	sp, sp, #4	; 0x4
    270c:	e3a0200a 	mov	r2, #10	; 0xa
    2710:	e5930004 	ldr	r0, [r3, #4]
    2714:	eb0040ee 	bl	12ad4 <simple_strtoul>
    2718:	e59f3020 	ldr	r3, [pc, #32]	; 2740 <do_sleep+0x40>
    271c:	e0000093 	mul	r0, r3, r0
    2720:	eb002486 	bl	b940 <udelay>
    2724:	e59f0018 	ldr	r0, [pc, #24]	; 2744 <do_sleep+0x44>
    2728:	e59f3018 	ldr	r3, [pc, #24]	; 2748 <do_sleep+0x48>
    272c:	e1a0e00f 	mov	lr, pc
    2730:	e593f000 	ldr	pc, [r3]
    2734:	e3a00000 	mov	r0, #0	; 0x0
    2738:	e28dd004 	add	sp, sp, #4	; 0x4
    273c:	e8bd8000 	pop	{pc}
    2740:	000f4240 	.word	0x000f4240
    2744:	00018dc4 	.word	0x00018dc4
    2748:	3c00a94c 	.word	0x3c00a94c

0000274c <do_go>:
    274c:	e52de004 	push	{lr}		; (str lr, [sp, #-4]!)
    2750:	e5930004 	ldr	r0, [r3, #4]
    2754:	e24dd004 	sub	sp, sp, #4	; 0x4
    2758:	e3a01000 	mov	r1, #0	; 0x0
    275c:	e3a02010 	mov	r2, #16	; 0x10
    2760:	eb0040db 	bl	12ad4 <simple_strtoul>
    2764:	eb0007d2 	bl	46b4 <cdbg_jump>
    2768:	e3a00000 	mov	r0, #0	; 0x0
    276c:	e28dd004 	add	sp, sp, #4	; 0x4
    2770:	e8bd8000 	pop	{pc}

00002774 <do_ml>:
    2774:	e52de004 	push	{lr}		; (str lr, [sp, #-4]!)
    2778:	e24dd004 	sub	sp, sp, #4	; 0x4
    277c:	ebfffc85 	bl	1998 <__sOINFo>
    2780:	e3a00000 	mov	r0, #0	; 0x0
    2784:	e28dd004 	add	sp, sp, #4	; 0x4
    2788:	e8bd8000 	pop	{pc}

0000278c <do_bp>:
    278c:	e92d4030 	push	{r4, r5, lr}
    2790:	e3520001 	cmp	r2, #1	; 0x1
    2794:	e24dd004 	sub	sp, sp, #4	; 0x4
    2798:	da000006 	ble	27b8 <do_bp+0x2c>
    279c:	e5930004 	ldr	r0, [r3, #4]
    27a0:	e3a01000 	mov	r1, #0	; 0x0
    27a4:	e3a02010 	mov	r2, #16	; 0x10
    27a8:	eb0040c9 	bl	12ad4 <simple_strtoul>
    27ac:	e6ff0070 	uxth	r0, r0
    27b0:	ebfff7c9 	bl	6dc <set_xom>
    27b4:	ebfff9fa 	bl	fa4 <init_mux>
    27b8:	e59f404c 	ldr	r4, [pc, #76]	; 280c <do_bp+0x80>
    27bc:	e3a00000 	mov	r0, #0	; 0x0
    27c0:	e5945000 	ldr	r5, [r4]
    27c4:	ebfff7b8 	bl	6ac <get_xom>
    27c8:	e1a01000 	mov	r1, r0
    27cc:	e59f003c 	ldr	r0, [pc, #60]	; 2810 <do_bp+0x84>
    27d0:	e12fff35 	blx	r5
    27d4:	e3a00001 	mov	r0, #1	; 0x1
    27d8:	e5945000 	ldr	r5, [r4]
    27dc:	ebfff7b2 	bl	6ac <get_xom>
    27e0:	e1a01000 	mov	r1, r0
    27e4:	e59f0028 	ldr	r0, [pc, #40]	; 2814 <do_bp+0x88>
    27e8:	e12fff35 	blx	r5
    27ec:	e5944000 	ldr	r4, [r4]
    27f0:	ebfff7c9 	bl	71c <boot_info>
    27f4:	e1a01000 	mov	r1, r0
    27f8:	e59f0018 	ldr	r0, [pc, #24]	; 2818 <do_bp+0x8c>
    27fc:	e12fff34 	blx	r4
    2800:	e3a00000 	mov	r0, #0	; 0x0
    2804:	e28dd004 	add	sp, sp, #4	; 0x4
    2808:	e8bd8030 	pop	{r4, r5, pc}
    280c:	3c00a94c 	.word	0x3c00a94c
    2810:	00018dcf 	.word	0x00018dcf
    2814:	00018de5 	.word	0x00018de5
    2818:	00018dfb 	.word	0x00018dfb

0000281c <output_debug>:
    281c:	e24dd010 	sub	sp, sp, #16	; 0x10
    2820:	e52de004 	push	{lr}		; (str lr, [sp, #-4]!)
    2824:	e24dd004 	sub	sp, sp, #4	; 0x4
    2828:	e28dc008 	add	ip, sp, #8	; 0x8
    282c:	e3700002 	cmn	r0, #2	; 0x2
    2830:	e88c000f 	stm	ip, {r0, r1, r2, r3}
    2834:	e1a01000 	mov	r1, r0
    2838:	0a000012 	beq	2888 <output_debug+0x6c>
    283c:	e3700001 	cmn	r0, #1	; 0x1
    2840:	0a000008 	beq	2868 <output_debug+0x4c>
    2844:	e3700003 	cmn	r0, #3	; 0x3
    2848:	1a000010 	bne	2890 <output_debug+0x74>
    284c:	e59f30a4 	ldr	r3, [pc, #164]	; 28f8 <output_debug+0xdc>
    2850:	e59f00a4 	ldr	r0, [pc, #164]	; 28fc <output_debug+0xe0>
    2854:	e5931000 	ldr	r1, [r3]
    2858:	e59f30a0 	ldr	r3, [pc, #160]	; 2900 <output_debug+0xe4>
    285c:	e1a0e00f 	mov	lr, pc
    2860:	e593f000 	ldr	pc, [r3]
    2864:	ea00001e 	b	28e4 <output_debug+0xc8>
    2868:	e59f3088 	ldr	r3, [pc, #136]	; 28f8 <output_debug+0xdc>
    286c:	e59f0090 	ldr	r0, [pc, #144]	; 2904 <output_debug+0xe8>
    2870:	e5932000 	ldr	r2, [r3]
    2874:	e28d1010 	add	r1, sp, #16	; 0x10
    2878:	e59f3080 	ldr	r3, [pc, #128]	; 2900 <output_debug+0xe4>
    287c:	e1a0e00f 	mov	lr, pc
    2880:	e593f000 	ldr	pc, [r3]
    2884:	ea000016 	b	28e4 <output_debug+0xc8>
    2888:	e59f0078 	ldr	r0, [pc, #120]	; 2908 <output_debug+0xec>
    288c:	ea000003 	b	28a0 <output_debug+0x84>
    2890:	e59d300c 	ldr	r3, [sp, #12]
    2894:	e3530001 	cmp	r3, #1	; 0x1
    2898:	1a000004 	bne	28b0 <output_debug+0x94>
    289c:	e59f0068 	ldr	r0, [pc, #104]	; 290c <output_debug+0xf0>
    28a0:	e59f3058 	ldr	r3, [pc, #88]	; 2900 <output_debug+0xe4>
    28a4:	e1a0e00f 	mov	lr, pc
    28a8:	e593f000 	ldr	pc, [r3]
    28ac:	ea00000c 	b	28e4 <output_debug+0xc8>
    28b0:	e3530002 	cmp	r3, #2	; 0x2
    28b4:	e59fc044 	ldr	ip, [pc, #68]	; 2900 <output_debug+0xe4>
    28b8:	1a000003 	bne	28cc <output_debug+0xb0>
    28bc:	e59f004c 	ldr	r0, [pc, #76]	; 2910 <output_debug+0xf4>
    28c0:	e1a0e00f 	mov	lr, pc
    28c4:	e59cf000 	ldr	pc, [ip]
    28c8:	ea000005 	b	28e4 <output_debug+0xc8>
    28cc:	e59f3024 	ldr	r3, [pc, #36]	; 28f8 <output_debug+0xdc>
    28d0:	e59f003c 	ldr	r0, [pc, #60]	; 2914 <output_debug+0xf8>
    28d4:	e5933000 	ldr	r3, [r3]
    28d8:	e28d2010 	add	r2, sp, #16	; 0x10
    28dc:	e1a0e00f 	mov	lr, pc
    28e0:	e59cf000 	ldr	pc, [ip]
    28e4:	e3a00000 	mov	r0, #0	; 0x0
    28e8:	e28dd004 	add	sp, sp, #4	; 0x4
    28ec:	e49de004 	pop	{lr}		; (ldr lr, [sp], #4)
    28f0:	e28dd010 	add	sp, sp, #16	; 0x10
    28f4:	e12fff1e 	bx	lr
    28f8:	3c00a134 	.word	0x3c00a134
    28fc:	00018f68 	.word	0x00018f68
    2900:	3c00a94c 	.word	0x3c00a94c
    2904:	00018f90 	.word	0x00018f90
    2908:	00018f9f 	.word	0x00018f9f
    290c:	00018fb9 	.word	0x00018fb9
    2910:	00018fc4 	.word	0x00018fc4
    2914:	00018fd2 	.word	0x00018fd2

00002918 <do_vs>:
    2918:	e92d4ff0 	push	{r4, r5, r6, r7, r8, r9, sl, fp, lr}
    291c:	e3520006 	cmp	r2, #6	; 0x6
    2920:	e24dd024 	sub	sp, sp, #36	; 0x24
    2924:	e1a06000 	mov	r6, r0
    2928:	e1a04003 	mov	r4, r3
    292c:	1a000005 	bne	2948 <do_vs+0x30>
    2930:	e5930014 	ldr	r0, [r3, #20]
    2934:	e3a01000 	mov	r1, #0	; 0x0
    2938:	e282200a 	add	r2, r2, #10	; 0xa
    293c:	eb004064 	bl	12ad4 <simple_strtoul>
    2940:	e1a05000 	mov	r5, r0
    2944:	ea00008f 	b	2b88 <do_vs+0x270>
    2948:	e2423001 	sub	r3, r2, #1	; 0x1
    294c:	e3530005 	cmp	r3, #5	; 0x5
    2950:	979ff103 	ldrls	pc, [pc, r3, lsl #2]
    2954:	ea0000c4 	b	2c6c <do_vs+0x354>
    2958:	00002c6c 	.word	0x00002c6c
    295c:	00002970 	.word	0x00002970
    2960:	00002a68 	.word	0x00002a68
    2964:	00002ad8 	.word	0x00002ad8
    2968:	00002b84 	.word	0x00002b84
    296c:	00002b84 	.word	0x00002b84
    2970:	e5940004 	ldr	r0, [r4, #4]
    2974:	e59f1310 	ldr	r1, [pc, #784]	; 2c8c <do_vs+0x374>
    2978:	ebfffac9 	bl	14a4 <strcmp>
    297c:	e2505000 	subs	r5, r0, #0	; 0x0
    2980:	1a000025 	bne	2a1c <do_vs+0x104>
    2984:	e59f4304 	ldr	r4, [pc, #772]	; 2c90 <do_vs+0x378>
    2988:	e59f0304 	ldr	r0, [pc, #772]	; 2c94 <do_vs+0x37c>
    298c:	e1a0e00f 	mov	lr, pc
    2990:	e594f000 	ldr	pc, [r4]
    2994:	e3a0802c 	mov	r8, #44	; 0x2c
    2998:	e59f72f8 	ldr	r7, [pc, #760]	; 2c98 <do_vs+0x380>
    299c:	ea000003 	b	29b0 <do_vs+0x98>
    29a0:	e0227598 	mla	r2, r8, r5, r7
    29a4:	e1a0e00f 	mov	lr, pc
    29a8:	e594f000 	ldr	pc, [r4]
    29ac:	e2855001 	add	r5, r5, #1	; 0x1
    29b0:	eb0002ad 	bl	346c <vs_device_count>
    29b4:	e1550000 	cmp	r5, r0
    29b8:	e1a01005 	mov	r1, r5
    29bc:	e59f02d8 	ldr	r0, [pc, #728]	; 2c9c <do_vs+0x384>
    29c0:	e59f62c8 	ldr	r6, [pc, #712]	; 2c90 <do_vs+0x378>
    29c4:	bafffff5 	blt	29a0 <do_vs+0x88>
    29c8:	e59f02d0 	ldr	r0, [pc, #720]	; 2ca0 <do_vs+0x388>
    29cc:	e1a0e00f 	mov	lr, pc
    29d0:	e596f000 	ldr	pc, [r6]
    29d4:	eb0001ab 	bl	3088 <vs_is_assigned>
    29d8:	e2504000 	subs	r4, r0, #0	; 0x0
    29dc:	0a000009 	beq	2a08 <do_vs+0xf0>
    29e0:	e59f32bc 	ldr	r3, [pc, #700]	; 2ca4 <do_vs+0x38c>
    29e4:	e5965000 	ldr	r5, [r6]
    29e8:	e5934000 	ldr	r4, [r3]
    29ec:	e1a00004 	mov	r0, r4
    29f0:	eb00022e 	bl	32b0 <vs_align>
    29f4:	e1a01004 	mov	r1, r4
    29f8:	e1a02000 	mov	r2, r0
    29fc:	e59f02a4 	ldr	r0, [pc, #676]	; 2ca8 <do_vs+0x390>
    2a00:	e12fff35 	blx	r5
    2a04:	ea00009d 	b	2c80 <do_vs+0x368>
    2a08:	e59f029c 	ldr	r0, [pc, #668]	; 2cac <do_vs+0x394>
    2a0c:	e1a0e00f 	mov	lr, pc
    2a10:	e596f000 	ldr	pc, [r6]
    2a14:	e1a00004 	mov	r0, r4
    2a18:	ea000099 	b	2c84 <do_vs+0x36c>
    2a1c:	e5940004 	ldr	r0, [r4, #4]
    2a20:	e59f1288 	ldr	r1, [pc, #648]	; 2cb0 <do_vs+0x398>
    2a24:	ebfffa9e 	bl	14a4 <strcmp>
    2a28:	e2505000 	subs	r5, r0, #0	; 0x0
    2a2c:	1a000087 	bne	2c50 <do_vs+0x338>
    2a30:	eb0001bd 	bl	312c <vs_reset>
    2a34:	e28d4020 	add	r4, sp, #32	; 0x20
    2a38:	e5240018 	str	r0, [r4, #-24]!
    2a3c:	e59f126c 	ldr	r1, [pc, #620]	; 2cb0 <do_vs+0x398>
    2a40:	e2840008 	add	r0, r4, #8	; 0x8
    2a44:	ebfffa6c 	bl	13fc <strcpy>
    2a48:	e3a03001 	mov	r3, #1	; 0x1
    2a4c:	e58d300c 	str	r3, [sp, #12]
    2a50:	e28d3018 	add	r3, sp, #24	; 0x18
    2a54:	e8930003 	ldm	r3, {r0, r1}
    2a58:	e88d0003 	stm	sp, {r0, r1}
    2a5c:	e894000f 	ldm	r4, {r0, r1, r2, r3}
    2a60:	ebffff6d 	bl	281c <output_debug>
    2a64:	ea000019 	b	2ad0 <do_vs+0x1b8>
    2a68:	e5940004 	ldr	r0, [r4, #4]
    2a6c:	e59f1240 	ldr	r1, [pc, #576]	; 2cb4 <do_vs+0x39c>
    2a70:	ebfffa8b 	bl	14a4 <strcmp>
    2a74:	e2505000 	subs	r5, r0, #0	; 0x0
    2a78:	1a000074 	bne	2c50 <do_vs+0x338>
    2a7c:	e5940008 	ldr	r0, [r4, #8]
    2a80:	e3a01001 	mov	r1, #1	; 0x1
    2a84:	eb00028e 	bl	34c4 <vs_assign_by_name>
    2a88:	e2507000 	subs	r7, r0, #0	; 0x0
    2a8c:	e59f61fc 	ldr	r6, [pc, #508]	; 2c90 <do_vs+0x378>
    2a90:	1a00000b 	bne	2ac4 <do_vs+0x1ac>
    2a94:	e5943008 	ldr	r3, [r4, #8]
    2a98:	e59f2218 	ldr	r2, [pc, #536]	; 2cb8 <do_vs+0x3a0>
    2a9c:	e1a00003 	mov	r0, r3
    2aa0:	e5823000 	str	r3, [r2]
    2aa4:	eb000272 	bl	3474 <vs_device_id>
    2aa8:	e59f31f4 	ldr	r3, [pc, #500]	; 2ca4 <do_vs+0x38c>
    2aac:	e5830000 	str	r0, [r3]
    2ab0:	e59f0204 	ldr	r0, [pc, #516]	; 2cbc <do_vs+0x3a4>
    2ab4:	e1a0e00f 	mov	lr, pc
    2ab8:	e596f000 	ldr	pc, [r6]
    2abc:	e1a00007 	mov	r0, r7
    2ac0:	ea00006f 	b	2c84 <do_vs+0x36c>
    2ac4:	e59f01f4 	ldr	r0, [pc, #500]	; 2cc0 <do_vs+0x3a8>
    2ac8:	e1a0e00f 	mov	lr, pc
    2acc:	e596f000 	ldr	pc, [r6]
    2ad0:	e1a00005 	mov	r0, r5
    2ad4:	ea00006a 	b	2c84 <do_vs+0x36c>
    2ad8:	e3a02010 	mov	r2, #16	; 0x10
    2adc:	e5940008 	ldr	r0, [r4, #8]
    2ae0:	e3a01000 	mov	r1, #0	; 0x0
    2ae4:	eb004052 	bl	12c34 <simple_strtoull>
    2ae8:	e3a02010 	mov	r2, #16	; 0x10
    2aec:	e1a07000 	mov	r7, r0
    2af0:	e1a08001 	mov	r8, r1
    2af4:	e594000c 	ldr	r0, [r4, #12]
    2af8:	e3a01000 	mov	r1, #0	; 0x0
    2afc:	eb00404c 	bl	12c34 <simple_strtoull>
    2b00:	e59f11bc 	ldr	r1, [pc, #444]	; 2cc4 <do_vs+0x3ac>
    2b04:	e1a05000 	mov	r5, r0
    2b08:	e28d0010 	add	r0, sp, #16	; 0x10
    2b0c:	ebfffa3a 	bl	13fc <strcpy>
    2b10:	e3a03002 	mov	r3, #2	; 0x2
    2b14:	e5940004 	ldr	r0, [r4, #4]
    2b18:	e59f11a4 	ldr	r1, [pc, #420]	; 2cc4 <do_vs+0x3ac>
    2b1c:	e58d300c 	str	r3, [sp, #12]
    2b20:	ebfffa5f 	bl	14a4 <strcmp>
    2b24:	e3500000 	cmp	r0, #0	; 0x0
    2b28:	1a000004 	bne	2b40 <do_vs+0x228>
    2b2c:	e1a00007 	mov	r0, r7
    2b30:	e1a01008 	mov	r1, r8
    2b34:	e1a02005 	mov	r2, r5
    2b38:	eb0001a0 	bl	31c0 <vs_erase>
    2b3c:	ea000008 	b	2b64 <do_vs+0x24c>
    2b40:	e5940004 	ldr	r0, [r4, #4]
    2b44:	e59f117c 	ldr	r1, [pc, #380]	; 2cc8 <do_vs+0x3b0>
    2b48:	ebfffa55 	bl	14a4 <strcmp>
    2b4c:	e3500000 	cmp	r0, #0	; 0x0
    2b50:	1a00003e 	bne	2c50 <do_vs+0x338>
    2b54:	e1a00007 	mov	r0, r7
    2b58:	e1a01008 	mov	r1, r8
    2b5c:	e1a02005 	mov	r2, r5
    2b60:	eb0001b4 	bl	3238 <vs_scrub>
    2b64:	e58d0008 	str	r0, [sp, #8]
    2b68:	e28d2018 	add	r2, sp, #24	; 0x18
    2b6c:	e8920003 	ldm	r2, {r0, r1}
    2b70:	e88d0003 	stm	sp, {r0, r1}
    2b74:	e28d3008 	add	r3, sp, #8	; 0x8
    2b78:	e893000f 	ldm	r3, {r0, r1, r2, r3}
    2b7c:	ebffff26 	bl	281c <output_debug>
    2b80:	ea00003e 	b	2c80 <do_vs+0x368>
    2b84:	e3a05000 	mov	r5, #0	; 0x0
    2b88:	e3a01000 	mov	r1, #0	; 0x0
    2b8c:	e3a02010 	mov	r2, #16	; 0x10
    2b90:	e5940008 	ldr	r0, [r4, #8]
    2b94:	eb003fce 	bl	12ad4 <simple_strtoul>
    2b98:	e3a02010 	mov	r2, #16	; 0x10
    2b9c:	e1a09000 	mov	r9, r0
    2ba0:	e3a01000 	mov	r1, #0	; 0x0
    2ba4:	e594000c 	ldr	r0, [r4, #12]
    2ba8:	eb004021 	bl	12c34 <simple_strtoull>
    2bac:	e3a02010 	mov	r2, #16	; 0x10
    2bb0:	e1a08000 	mov	r8, r0
    2bb4:	e1a0a001 	mov	sl, r1
    2bb8:	e5940010 	ldr	r0, [r4, #16]
    2bbc:	e3a01000 	mov	r1, #0	; 0x0
    2bc0:	e08db002 	add	fp, sp, r2
    2bc4:	eb00401a 	bl	12c34 <simple_strtoull>
    2bc8:	e3a03000 	mov	r3, #0	; 0x0
    2bcc:	e59f10f8 	ldr	r1, [pc, #248]	; 2ccc <do_vs+0x3b4>
    2bd0:	e1a07000 	mov	r7, r0
    2bd4:	e1a0000b 	mov	r0, fp
    2bd8:	e58d300c 	str	r3, [sp, #12]
    2bdc:	ebfffa06 	bl	13fc <strcpy>
    2be0:	e5940004 	ldr	r0, [r4, #4]
    2be4:	e59f10e4 	ldr	r1, [pc, #228]	; 2cd0 <do_vs+0x3b8>
    2be8:	ebfffa2d 	bl	14a4 <strcmp>
    2bec:	e3500000 	cmp	r0, #0	; 0x0
    2bf0:	1a000006 	bne	2c10 <do_vs+0x2f8>
    2bf4:	e1a00009 	mov	r0, r9
    2bf8:	e1a02008 	mov	r2, r8
    2bfc:	e1a0300a 	mov	r3, sl
    2c00:	e58d7000 	str	r7, [sp]
    2c04:	e58d5004 	str	r5, [sp, #4]
    2c08:	eb000156 	bl	3168 <vs_write>
    2c0c:	eaffffd4 	b	2b64 <do_vs+0x24c>
    2c10:	e5940004 	ldr	r0, [r4, #4]
    2c14:	e59f10b8 	ldr	r1, [pc, #184]	; 2cd4 <do_vs+0x3bc>
    2c18:	ebfffa21 	bl	14a4 <strcmp>
    2c1c:	e3500000 	cmp	r0, #0	; 0x0
    2c20:	1a00000a 	bne	2c50 <do_vs+0x338>
    2c24:	e1a00009 	mov	r0, r9
    2c28:	e1a02008 	mov	r2, r8
    2c2c:	e1a0300a 	mov	r3, sl
    2c30:	e58d7000 	str	r7, [sp]
    2c34:	e58d5004 	str	r5, [sp, #4]
    2c38:	eb000262 	bl	35c8 <vs_read>
    2c3c:	e59f1094 	ldr	r1, [pc, #148]	; 2cd8 <do_vs+0x3c0>
    2c40:	e58d0008 	str	r0, [sp, #8]
    2c44:	e1a0000b 	mov	r0, fp
    2c48:	ebfff9eb 	bl	13fc <strcpy>
    2c4c:	eaffffc5 	b	2b68 <do_vs+0x250>
    2c50:	e59f0084 	ldr	r0, [pc, #132]	; 2cdc <do_vs+0x3c4>
    2c54:	e5961014 	ldr	r1, [r6, #20]
    2c58:	e59f3030 	ldr	r3, [pc, #48]	; 2c90 <do_vs+0x378>
    2c5c:	e1a0e00f 	mov	lr, pc
    2c60:	e593f000 	ldr	pc, [r3]
    2c64:	e3e00000 	mvn	r0, #0	; 0x0
    2c68:	ea000005 	b	2c84 <do_vs+0x36c>
    2c6c:	e5901014 	ldr	r1, [r0, #20]
    2c70:	e59f3018 	ldr	r3, [pc, #24]	; 2c90 <do_vs+0x378>
    2c74:	e59f0060 	ldr	r0, [pc, #96]	; 2cdc <do_vs+0x3c4>
    2c78:	e1a0e00f 	mov	lr, pc
    2c7c:	e593f000 	ldr	pc, [r3]
    2c80:	e3a00000 	mov	r0, #0	; 0x0
    2c84:	e28dd024 	add	sp, sp, #36	; 0x24
    2c88:	e8bd8ff0 	pop	{r4, r5, r6, r7, r8, r9, sl, fp, pc}
    2c8c:	00018e2a 	.word	0x00018e2a
    2c90:	3c00a94c 	.word	0x3c00a94c
    2c94:	00018fe9 	.word	0x00018fe9
    2c98:	00017b34 	.word	0x00017b34
    2c9c:	00018ff7 	.word	0x00018ff7
    2ca0:	00018fff 	.word	0x00018fff
    2ca4:	3c00a134 	.word	0x3c00a134
    2ca8:	00019011 	.word	0x00019011
    2cac:	0001901b 	.word	0x0001901b
    2cb0:	00018e18 	.word	0x00018e18
    2cb4:	0001902e 	.word	0x0001902e
    2cb8:	3c00a138 	.word	0x3c00a138
    2cbc:	00019035 	.word	0x00019035
    2cc0:	00019041 	.word	0x00019041
    2cc4:	0001906e 	.word	0x0001906e
    2cc8:	00019074 	.word	0x00019074
    2ccc:	0001907a 	.word	0x0001907a
    2cd0:	00019083 	.word	0x00019083
    2cd4:	00019089 	.word	0x00019089
    2cd8:	0001908e 	.word	0x0001908e
    2cdc:	00018a5c 	.word	0x00018a5c

00002ce0 <cmd_get_data_size>:
    2ce0:	e92d4030 	push	{r4, r5, lr}
    2ce4:	e24dd004 	sub	sp, sp, #4	; 0x4
    2ce8:	e1a04001 	mov	r4, r1
    2cec:	e1a05000 	mov	r5, r0
    2cf0:	ebfffa18 	bl	1558 <strlen>
    2cf4:	e3500002 	cmp	r0, #2	; 0x2
    2cf8:	da000015 	ble	2d54 <cmd_get_data_size+0x74>
    2cfc:	e0850000 	add	r0, r5, r0
    2d00:	e5503002 	ldrb	r3, [r0, #-2]
    2d04:	e353002e 	cmp	r3, #46	; 0x2e
    2d08:	1a000011 	bne	2d54 <cmd_get_data_size+0x74>
    2d0c:	e5500001 	ldrb	r0, [r0, #-1]
    2d10:	e350006c 	cmp	r0, #108	; 0x6c
    2d14:	03a04004 	moveq	r4, #4	; 0x4
    2d18:	0a00000d 	beq	2d54 <cmd_get_data_size+0x74>
    2d1c:	8a000002 	bhi	2d2c <cmd_get_data_size+0x4c>
    2d20:	e3500062 	cmp	r0, #98	; 0x62
    2d24:	1a000009 	bne	2d50 <cmd_get_data_size+0x70>
    2d28:	ea000006 	b	2d48 <cmd_get_data_size+0x68>
    2d2c:	e3500073 	cmp	r0, #115	; 0x73
    2d30:	03e04001 	mvneq	r4, #1	; 0x1
    2d34:	0a000006 	beq	2d54 <cmd_get_data_size+0x74>
    2d38:	e3500077 	cmp	r0, #119	; 0x77
    2d3c:	03a04002 	moveq	r4, #2	; 0x2
    2d40:	1a000002 	bne	2d50 <cmd_get_data_size+0x70>
    2d44:	ea000002 	b	2d54 <cmd_get_data_size+0x74>
    2d48:	e3a04001 	mov	r4, #1	; 0x1
    2d4c:	ea000000 	b	2d54 <cmd_get_data_size+0x74>
    2d50:	e3e04000 	mvn	r4, #0	; 0x0
    2d54:	e1a00004 	mov	r0, r4
    2d58:	e28dd004 	add	sp, sp, #4	; 0x4
    2d5c:	e8bd8030 	pop	{r4, r5, pc}

00002d60 <cmd_usage>:
    2d60:	e92d4030 	push	{r4, r5, lr}
    2d64:	e1a04000 	mov	r4, r0
    2d68:	e24dd004 	sub	sp, sp, #4	; 0x4
    2d6c:	e59f5054 	ldr	r5, [pc, #84]	; 2dc8 <cmd_usage+0x68>
    2d70:	e59f0054 	ldr	r0, [pc, #84]	; 2dcc <cmd_usage+0x6c>
    2d74:	e5941000 	ldr	r1, [r4]
    2d78:	e5942010 	ldr	r2, [r4, #16]
    2d7c:	e1a0e00f 	mov	lr, pc
    2d80:	e595f000 	ldr	pc, [r5]
    2d84:	e59f0044 	ldr	r0, [pc, #68]	; 2dd0 <cmd_usage+0x70>
    2d88:	e5941000 	ldr	r1, [r4]
    2d8c:	e1a0e00f 	mov	lr, pc
    2d90:	e595f000 	ldr	pc, [r5]
    2d94:	e5940014 	ldr	r0, [r4, #20]
    2d98:	e3500000 	cmp	r0, #0	; 0x0
    2d9c:	1a000003 	bne	2db0 <cmd_usage+0x50>
    2da0:	e59f002c 	ldr	r0, [pc, #44]	; 2dd4 <cmd_usage+0x74>
    2da4:	eb0048df 	bl	15128 <puts>
    2da8:	e3a00001 	mov	r0, #1	; 0x1
    2dac:	ea000003 	b	2dc0 <cmd_usage+0x60>
    2db0:	eb0048dc 	bl	15128 <puts>
    2db4:	e3a0000a 	mov	r0, #10	; 0xa
    2db8:	eb004902 	bl	151c8 <putc>
    2dbc:	e3a00000 	mov	r0, #0	; 0x0
    2dc0:	e28dd004 	add	sp, sp, #4	; 0x4
    2dc4:	e8bd8030 	pop	{r4, r5, pc}
    2dc8:	3c00a94c 	.word	0x3c00a94c
    2dcc:	00019183 	.word	0x00019183
    2dd0:	0001918d 	.word	0x0001918d
    2dd4:	00019198 	.word	0x00019198

00002dd8 <find_cmd_tbl>:
    2dd8:	e92d45f0 	push	{r4, r5, r6, r7, r8, sl, lr}
    2ddc:	e1a05001 	mov	r5, r1
    2de0:	e24dd004 	sub	sp, sp, #4	; 0x4
    2de4:	e3a0102e 	mov	r1, #46	; 0x2e
    2de8:	e1a07000 	mov	r7, r0
    2dec:	e1a08002 	mov	r8, r2
    2df0:	ebfff9cd 	bl	152c <strchr>
    2df4:	e3500000 	cmp	r0, #0	; 0x0
    2df8:	10676000 	rsbne	r6, r7, r0
    2dfc:	1a000002 	bne	2e0c <find_cmd_tbl+0x34>
    2e00:	e1a00007 	mov	r0, r7
    2e04:	ebfff9d3 	bl	1558 <strlen>
    2e08:	e1a06000 	mov	r6, r0
    2e0c:	e3a03018 	mov	r3, #24	; 0x18
    2e10:	e02a5893 	mla	sl, r3, r8, r5
    2e14:	e1a04005 	mov	r4, r5
    2e18:	e1a08005 	mov	r8, r5
    2e1c:	e3a05000 	mov	r5, #0	; 0x0
    2e20:	ea00000a 	b	2e50 <find_cmd_tbl+0x78>
    2e24:	e5941000 	ldr	r1, [r4]
    2e28:	ebfff9ab 	bl	14dc <strncmp>
    2e2c:	e3500000 	cmp	r0, #0	; 0x0
    2e30:	1a000005 	bne	2e4c <find_cmd_tbl+0x74>
    2e34:	e5940000 	ldr	r0, [r4]
    2e38:	ebfff9c6 	bl	1558 <strlen>
    2e3c:	e1560000 	cmp	r6, r0
    2e40:	0a000009 	beq	2e6c <find_cmd_tbl+0x94>
    2e44:	e2855001 	add	r5, r5, #1	; 0x1
    2e48:	e1a08004 	mov	r8, r4
    2e4c:	e2844018 	add	r4, r4, #24	; 0x18
    2e50:	e154000a 	cmp	r4, sl
    2e54:	e1a02006 	mov	r2, r6
    2e58:	e1a00007 	mov	r0, r7
    2e5c:	1afffff0 	bne	2e24 <find_cmd_tbl+0x4c>
    2e60:	e3550001 	cmp	r5, #1	; 0x1
    2e64:	01a04008 	moveq	r4, r8
    2e68:	13a04000 	movne	r4, #0	; 0x0
    2e6c:	e1a00004 	mov	r0, r4
    2e70:	e28dd004 	add	sp, sp, #4	; 0x4
    2e74:	e8bd85f0 	pop	{r4, r5, r6, r7, r8, sl, pc}

00002e78 <find_cmd>:
    2e78:	e59f1014 	ldr	r1, [pc, #20]	; 2e94 <find_cmd+0x1c>
    2e7c:	e59f2014 	ldr	r2, [pc, #20]	; 2e98 <find_cmd+0x20>
    2e80:	e59f3014 	ldr	r3, [pc, #20]	; 2e9c <find_cmd+0x24>
    2e84:	e0612002 	rsb	r2, r1, r2
    2e88:	e1a021c2 	asr	r2, r2, #3
    2e8c:	e0020293 	mul	r2, r3, r2
    2e90:	eaffffd0 	b	2dd8 <find_cmd_tbl>
    2e94:	0001b1e4 	.word	0x0001b1e4
    2e98:	0001b43c 	.word	0x0001b43c
    2e9c:	aaaaaaab 	.word	0xaaaaaaab

00002ea0 <_do_help>:
    2ea0:	e1a0c00d 	mov	ip, sp
    2ea4:	e92ddff0 	push	{r4, r5, r6, r7, r8, r9, sl, fp, ip, lr, pc}
    2ea8:	e24cb004 	sub	fp, ip, #4	; 0x4
    2eac:	e24dd004 	sub	sp, sp, #4	; 0x4
    2eb0:	e59b8004 	ldr	r8, [fp, #4]
    2eb4:	e1a07000 	mov	r7, r0
    2eb8:	e3580001 	cmp	r8, #1	; 0x1
    2ebc:	e1a0a001 	mov	sl, r1
    2ec0:	159b5008 	ldrne	r5, [fp, #8]
    2ec4:	13a06001 	movne	r6, #1	; 0x1
    2ec8:	13a04000 	movne	r4, #0	; 0x0
    2ecc:	159f9158 	ldrne	r9, [pc, #344]	; 302c <_do_help+0x18c>
    2ed0:	1a00004e 	bne	3010 <_do_help+0x170>
    2ed4:	e1a03101 	lsl	r3, r1, #2
    2ed8:	e283300e 	add	r3, r3, #14	; 0xe
    2edc:	e3c33007 	bic	r3, r3, #7	; 0x7
    2ee0:	e1a0900d 	mov	r9, sp
    2ee4:	e063d00d 	rsb	sp, r3, sp
    2ee8:	e1a0800d 	mov	r8, sp
    2eec:	e3a03000 	mov	r3, #0	; 0x0
    2ef0:	ea000002 	b	2f00 <_do_help+0x60>
    2ef4:	e7880103 	str	r0, [r8, r3, lsl #2]
    2ef8:	e2800018 	add	r0, r0, #24	; 0x18
    2efc:	e2833001 	add	r3, r3, #1	; 0x1
    2f00:	e153000a 	cmp	r3, sl
    2f04:	bafffffa 	blt	2ef4 <_do_help+0x54>
    2f08:	e24a7001 	sub	r7, sl, #1	; 0x1
    2f0c:	ea000015 	b	2f68 <_do_help+0xc8>
    2f10:	e5943000 	ldr	r3, [r4]
    2f14:	e5942004 	ldr	r2, [r4, #4]
    2f18:	e5930000 	ldr	r0, [r3]
    2f1c:	e5921000 	ldr	r1, [r2]
    2f20:	ebfff95f 	bl	14a4 <strcmp>
    2f24:	e3500000 	cmp	r0, #0	; 0x0
    2f28:	c5942000 	ldrgt	r2, [r4]
    2f2c:	c5943004 	ldrgt	r3, [r4, #4]
    2f30:	e2855001 	add	r5, r5, #1	; 0x1
    2f34:	c5843000 	strgt	r3, [r4]
    2f38:	c5842004 	strgt	r2, [r4, #4]
    2f3c:	c2866001 	addgt	r6, r6, #1	; 0x1
    2f40:	e1550007 	cmp	r5, r7
    2f44:	e2844004 	add	r4, r4, #4	; 0x4
    2f48:	bafffff0 	blt	2f10 <_do_help+0x70>
    2f4c:	e3560000 	cmp	r6, #0	; 0x0
    2f50:	1a000003 	bne	2f64 <_do_help+0xc4>
    2f54:	e3a05000 	mov	r5, #0	; 0x0
    2f58:	e1a04005 	mov	r4, r5
    2f5c:	e59f70c8 	ldr	r7, [pc, #200]	; 302c <_do_help+0x18c>
    2f60:	ea000016 	b	2fc0 <_do_help+0x120>
    2f64:	e2477001 	sub	r7, r7, #1	; 0x1
    2f68:	e3570000 	cmp	r7, #0	; 0x0
    2f6c:	dafffff8 	ble	2f54 <_do_help+0xb4>
    2f70:	e3a05000 	mov	r5, #0	; 0x0
    2f74:	e1a04008 	mov	r4, r8
    2f78:	e1a06005 	mov	r6, r5
    2f7c:	eaffffe3 	b	2f10 <_do_help+0x70>
    2f80:	e7983004 	ldr	r3, [r8, r4]
    2f84:	e5936010 	ldr	r6, [r3, #16]
    2f88:	eb004891 	bl	151d4 <ctrlc>
    2f8c:	e3500000 	cmp	r0, #0	; 0x0
    2f90:	e1a03006 	mov	r3, r6
    2f94:	e3a01008 	mov	r1, #8	; 0x8
    2f98:	e59f0090 	ldr	r0, [pc, #144]	; 3030 <_do_help+0x190>
    2f9c:	13a04001 	movne	r4, #1	; 0x1
    2fa0:	1a00000a 	bne	2fd0 <_do_help+0x130>
    2fa4:	e3560000 	cmp	r6, #0	; 0x0
    2fa8:	0a000003 	beq	2fbc <_do_help+0x11c>
    2fac:	e7982004 	ldr	r2, [r8, r4]
    2fb0:	e5922000 	ldr	r2, [r2]
    2fb4:	e1a0e00f 	mov	lr, pc
    2fb8:	e597f000 	ldr	pc, [r7]
    2fbc:	e2844004 	add	r4, r4, #4	; 0x4
    2fc0:	e155000a 	cmp	r5, sl
    2fc4:	e2855001 	add	r5, r5, #1	; 0x1
    2fc8:	baffffec 	blt	2f80 <_do_help+0xe0>
    2fcc:	e3a04000 	mov	r4, #0	; 0x0
    2fd0:	e1a0d009 	mov	sp, r9
    2fd4:	ea000011 	b	3020 <_do_help+0x180>
    2fd8:	e5950004 	ldr	r0, [r5, #4]
    2fdc:	ebffff7d 	bl	2dd8 <find_cmd_tbl>
    2fe0:	e3500000 	cmp	r0, #0	; 0x0
    2fe4:	0a000002 	beq	2ff4 <_do_help+0x154>
    2fe8:	ebffff5c 	bl	2d60 <cmd_usage>
    2fec:	e1844000 	orr	r4, r4, r0
    2ff0:	ea000004 	b	3008 <_do_help+0x168>
    2ff4:	e5951004 	ldr	r1, [r5, #4]
    2ff8:	e59f0034 	ldr	r0, [pc, #52]	; 3034 <_do_help+0x194>
    2ffc:	e1a0e00f 	mov	lr, pc
    3000:	e599f000 	ldr	pc, [r9]
    3004:	e3a04001 	mov	r4, #1	; 0x1
    3008:	e2866001 	add	r6, r6, #1	; 0x1
    300c:	e2855004 	add	r5, r5, #4	; 0x4
    3010:	e1560008 	cmp	r6, r8
    3014:	e1a01007 	mov	r1, r7
    3018:	e1a0200a 	mov	r2, sl
    301c:	baffffed 	blt	2fd8 <_do_help+0x138>
    3020:	e1a00004 	mov	r0, r4
    3024:	e24bd028 	sub	sp, fp, #40	; 0x28
    3028:	e89daff0 	ldm	sp, {r4, r5, r6, r7, r8, r9, sl, fp, sp, pc}
    302c:	3c00a94c 	.word	0x3c00a94c
    3030:	000191b9 	.word	0x000191b9
    3034:	000191c3 	.word	0x000191c3

00003038 <do_help>:
    3038:	e92d4030 	push	{r4, r5, lr}
    303c:	e59fc038 	ldr	ip, [pc, #56]	; 307c <do_help+0x44>
    3040:	e59fe038 	ldr	lr, [pc, #56]	; 3080 <do_help+0x48>
    3044:	e1a05001 	mov	r5, r1
    3048:	e06ec00c 	rsb	ip, lr, ip
    304c:	e59f1030 	ldr	r1, [pc, #48]	; 3084 <do_help+0x4c>
    3050:	e24dd00c 	sub	sp, sp, #12	; 0xc
    3054:	e1a04000 	mov	r4, r0
    3058:	e1a0c1cc 	asr	ip, ip, #3
    305c:	e88d000c 	stm	sp, {r2, r3}
    3060:	e0010c91 	mul	r1, r1, ip
    3064:	e1a0000e 	mov	r0, lr
    3068:	e1a02004 	mov	r2, r4
    306c:	e1a03005 	mov	r3, r5
    3070:	ebffff8a 	bl	2ea0 <_do_help>
    3074:	e28dd00c 	add	sp, sp, #12	; 0xc
    3078:	e8bd8030 	pop	{r4, r5, pc}
    307c:	0001b43c 	.word	0x0001b43c
    3080:	0001b1e4 	.word	0x0001b1e4
    3084:	aaaaaaab 	.word	0xaaaaaaab

00003088 <vs_is_assigned>:
    3088:	e59f300c 	ldr	r3, [pc, #12]	; 309c <vs_is_assigned+0x14>
    308c:	e5930000 	ldr	r0, [r3]
    3090:	e2500000 	subs	r0, r0, #0	; 0x0
    3094:	13a00001 	movne	r0, #1	; 0x1
    3098:	e12fff1e 	bx	lr
    309c:	3c00a13c 	.word	0x3c00a13c

000030a0 <vs_is_opt_available>:
    30a0:	e350000d 	cmp	r0, #13	; 0xd
    30a4:	959f2078 	ldrls	r2, [pc, #120]	; 3124 <vs_is_opt_available+0x84>
    30a8:	93a0302c 	movls	r3, #44	; 0x2c
    30ac:	859f3074 	ldrhi	r3, [pc, #116]	; 3128 <vs_is_opt_available+0x88>
    30b0:	90202093 	mlals	r0, r3, r0, r2
    30b4:	85930000 	ldrhi	r0, [r3]
    30b8:	e3500000 	cmp	r0, #0	; 0x0
    30bc:	0a000016 	beq	311c <vs_is_opt_available+0x7c>
    30c0:	e3510005 	cmp	r1, #5	; 0x5
    30c4:	979ff101 	ldrls	pc, [pc, r1, lsl #2]
    30c8:	ea000013 	b	311c <vs_is_opt_available+0x7c>
    30cc:	000030e4 	.word	0x000030e4
    30d0:	000030ec 	.word	0x000030ec
    30d4:	000030f4 	.word	0x000030f4
    30d8:	000030fc 	.word	0x000030fc
    30dc:	00003104 	.word	0x00003104
    30e0:	0000310c 	.word	0x0000310c
    30e4:	e590300c 	ldr	r3, [r0, #12]
    30e8:	ea000008 	b	3110 <vs_is_opt_available+0x70>
    30ec:	e5903010 	ldr	r3, [r0, #16]
    30f0:	ea000006 	b	3110 <vs_is_opt_available+0x70>
    30f4:	e5903014 	ldr	r3, [r0, #20]
    30f8:	ea000004 	b	3110 <vs_is_opt_available+0x70>
    30fc:	e5903018 	ldr	r3, [r0, #24]
    3100:	ea000002 	b	3110 <vs_is_opt_available+0x70>
    3104:	e590301c 	ldr	r3, [r0, #28]
    3108:	ea000000 	b	3110 <vs_is_opt_available+0x70>
    310c:	e5903020 	ldr	r3, [r0, #32]
    3110:	e2530000 	subs	r0, r3, #0	; 0x0
    3114:	13a00001 	movne	r0, #1	; 0x1
    3118:	e12fff1e 	bx	lr
    311c:	e3a00000 	mov	r0, #0	; 0x0
    3120:	e12fff1e 	bx	lr
    3124:	00017b34 	.word	0x00017b34
    3128:	3c00a13c 	.word	0x3c00a13c

0000312c <vs_reset>:
    312c:	e52de004 	push	{lr}		; (str lr, [sp, #-4]!)
    3130:	e59f302c 	ldr	r3, [pc, #44]	; 3164 <vs_reset+0x38>
    3134:	e24dd004 	sub	sp, sp, #4	; 0x4
    3138:	e5933000 	ldr	r3, [r3]
    313c:	e3530000 	cmp	r3, #0	; 0x0
    3140:	03e00001 	mvneq	r0, #1	; 0x1
    3144:	0a000004 	beq	315c <vs_reset+0x30>
    3148:	e5933018 	ldr	r3, [r3, #24]
    314c:	e3530000 	cmp	r3, #0	; 0x0
    3150:	03e00002 	mvneq	r0, #2	; 0x2
    3154:	0a000000 	beq	315c <vs_reset+0x30>
    3158:	e12fff33 	blx	r3
    315c:	e28dd004 	add	sp, sp, #4	; 0x4
    3160:	e8bd8000 	pop	{pc}
    3164:	3c00a13c 	.word	0x3c00a13c

00003168 <vs_write>:
    3168:	e92d4010 	push	{r4, lr}
    316c:	e24dd008 	sub	sp, sp, #8	; 0x8
    3170:	e59d4010 	ldr	r4, [sp, #16]
    3174:	e3540000 	cmp	r4, #0	; 0x0
    3178:	01a00004 	moveq	r0, r4
    317c:	0a00000c 	beq	31b4 <vs_write+0x4c>
    3180:	e59f1034 	ldr	r1, [pc, #52]	; 31bc <vs_write+0x54>
    3184:	e5911000 	ldr	r1, [r1]
    3188:	e3510000 	cmp	r1, #0	; 0x0
    318c:	03e00001 	mvneq	r0, #1	; 0x1
    3190:	0a000007 	beq	31b4 <vs_write+0x4c>
    3194:	e591c014 	ldr	ip, [r1, #20]
    3198:	e35c0000 	cmp	ip, #0	; 0x0
    319c:	03e00002 	mvneq	r0, #2	; 0x2
    31a0:	0a000003 	beq	31b4 <vs_write+0x4c>
    31a4:	e59d1014 	ldr	r1, [sp, #20]
    31a8:	e58d4000 	str	r4, [sp]
    31ac:	e58d1004 	str	r1, [sp, #4]
    31b0:	e12fff3c 	blx	ip
    31b4:	e28dd008 	add	sp, sp, #8	; 0x8
    31b8:	e8bd8010 	pop	{r4, pc}
    31bc:	3c00a13c 	.word	0x3c00a13c

000031c0 <vs_erase>:
    31c0:	e52de004 	push	{lr}		; (str lr, [sp, #-4]!)
    31c4:	e59f302c 	ldr	r3, [pc, #44]	; 31f8 <vs_erase+0x38>
    31c8:	e24dd004 	sub	sp, sp, #4	; 0x4
    31cc:	e5933000 	ldr	r3, [r3]
    31d0:	e3530000 	cmp	r3, #0	; 0x0
    31d4:	03e00001 	mvneq	r0, #1	; 0x1
    31d8:	0a000004 	beq	31f0 <vs_erase+0x30>
    31dc:	e593301c 	ldr	r3, [r3, #28]
    31e0:	e3530000 	cmp	r3, #0	; 0x0
    31e4:	03e00002 	mvneq	r0, #2	; 0x2
    31e8:	0a000000 	beq	31f0 <vs_erase+0x30>
    31ec:	e12fff33 	blx	r3
    31f0:	e28dd004 	add	sp, sp, #4	; 0x4
    31f4:	e8bd8000 	pop	{pc}
    31f8:	3c00a13c 	.word	0x3c00a13c

000031fc <vs_isbad>:
    31fc:	e52de004 	push	{lr}		; (str lr, [sp, #-4]!)
    3200:	e59f302c 	ldr	r3, [pc, #44]	; 3234 <vs_isbad+0x38>
    3204:	e24dd004 	sub	sp, sp, #4	; 0x4
    3208:	e5933000 	ldr	r3, [r3]
    320c:	e3530000 	cmp	r3, #0	; 0x0
    3210:	03e00001 	mvneq	r0, #1	; 0x1
    3214:	0a000004 	beq	322c <vs_isbad+0x30>
    3218:	e5933024 	ldr	r3, [r3, #36]
    321c:	e3530000 	cmp	r3, #0	; 0x0
    3220:	03e00002 	mvneq	r0, #2	; 0x2
    3224:	0a000000 	beq	322c <vs_isbad+0x30>
    3228:	e12fff33 	blx	r3
    322c:	e28dd004 	add	sp, sp, #4	; 0x4
    3230:	e8bd8000 	pop	{pc}
    3234:	3c00a13c 	.word	0x3c00a13c

00003238 <vs_scrub>:
    3238:	e52de004 	push	{lr}		; (str lr, [sp, #-4]!)
    323c:	e59f302c 	ldr	r3, [pc, #44]	; 3270 <vs_scrub+0x38>
    3240:	e24dd004 	sub	sp, sp, #4	; 0x4
    3244:	e5933000 	ldr	r3, [r3]
    3248:	e3530000 	cmp	r3, #0	; 0x0
    324c:	03e00001 	mvneq	r0, #1	; 0x1
    3250:	0a000004 	beq	3268 <vs_scrub+0x30>
    3254:	e5933020 	ldr	r3, [r3, #32]
    3258:	e3530000 	cmp	r3, #0	; 0x0
    325c:	03e00002 	mvneq	r0, #2	; 0x2
    3260:	0a000000 	beq	3268 <vs_scrub+0x30>
    3264:	e12fff33 	blx	r3
    3268:	e28dd004 	add	sp, sp, #4	; 0x4
    326c:	e8bd8000 	pop	{pc}
    3270:	3c00a13c 	.word	0x3c00a13c

00003274 <vs_special>:
    3274:	e52de004 	push	{lr}		; (str lr, [sp, #-4]!)
    3278:	e59f302c 	ldr	r3, [pc, #44]	; 32ac <vs_special+0x38>
    327c:	e24dd004 	sub	sp, sp, #4	; 0x4
    3280:	e5933000 	ldr	r3, [r3]
    3284:	e3530000 	cmp	r3, #0	; 0x0
    3288:	03e00001 	mvneq	r0, #1	; 0x1
    328c:	0a000004 	beq	32a4 <vs_special+0x30>
    3290:	e5933028 	ldr	r3, [r3, #40]
    3294:	e3530000 	cmp	r3, #0	; 0x0
    3298:	03e00002 	mvneq	r0, #2	; 0x2
    329c:	0a000000 	beq	32a4 <vs_special+0x30>
    32a0:	e12fff33 	blx	r3
    32a4:	e28dd004 	add	sp, sp, #4	; 0x4
    32a8:	e8bd8000 	pop	{pc}
    32ac:	3c00a13c 	.word	0x3c00a13c

000032b0 <vs_align>:
    32b0:	e52de004 	push	{lr}		; (str lr, [sp, #-4]!)
    32b4:	e350000d 	cmp	r0, #13	; 0xd
    32b8:	e24dd004 	sub	sp, sp, #4	; 0x4
    32bc:	8a00000f 	bhi	3300 <vs_align+0x50>
    32c0:	e59f2044 	ldr	r2, [pc, #68]	; 330c <vs_align+0x5c>
    32c4:	e3a0302c 	mov	r3, #44	; 0x2c
    32c8:	e0202093 	mla	r0, r3, r0, r2
    32cc:	ea000001 	b	32d8 <vs_align+0x28>
    32d0:	e59f3038 	ldr	r3, [pc, #56]	; 3310 <vs_align+0x60>
    32d4:	e5930000 	ldr	r0, [r3]
    32d8:	e3500000 	cmp	r0, #0	; 0x0
    32dc:	0a000004 	beq	32f4 <vs_align+0x44>
    32e0:	e590000c 	ldr	r0, [r0, #12]
    32e4:	e3500000 	cmp	r0, #0	; 0x0
    32e8:	0a000001 	beq	32f4 <vs_align+0x44>
    32ec:	e12fff30 	blx	r0
    32f0:	ea000000 	b	32f8 <vs_align+0x48>
    32f4:	e3a00000 	mov	r0, #0	; 0x0
    32f8:	e28dd004 	add	sp, sp, #4	; 0x4
    32fc:	e8bd8000 	pop	{pc}
    3300:	e350000e 	cmp	r0, #14	; 0xe
    3304:	1afffffa 	bne	32f4 <vs_align+0x44>
    3308:	eafffff0 	b	32d0 <vs_align+0x20>
    330c:	00017b34 	.word	0x00017b34
    3310:	3c00a13c 	.word	0x3c00a13c

00003314 <vs_assign_by_id>:
    3314:	e52de004 	push	{lr}		; (str lr, [sp, #-4]!)
    3318:	e59fc05c 	ldr	ip, [pc, #92]	; 337c <vs_assign_by_id+0x68>
    331c:	e3a03000 	mov	r3, #0	; 0x0
    3320:	e350000d 	cmp	r0, #13	; 0xd
    3324:	e24dd004 	sub	sp, sp, #4	; 0x4
    3328:	e58c3000 	str	r3, [ip]
    332c:	8a00000b 	bhi	3360 <vs_assign_by_id+0x4c>
    3330:	e59f2048 	ldr	r2, [pc, #72]	; 3380 <vs_assign_by_id+0x6c>
    3334:	e283302c 	add	r3, r3, #44	; 0x2c
    3338:	e0232093 	mla	r3, r3, r0, r2
    333c:	e3510000 	cmp	r1, #0	; 0x0
    3340:	e58c3000 	str	r3, [ip]
    3344:	01a00001 	moveq	r0, r1
    3348:	0a000002 	beq	3358 <vs_assign_by_id+0x44>
    334c:	e28dd004 	add	sp, sp, #4	; 0x4
    3350:	e49de004 	pop	{lr}		; (ldr lr, [sp], #4)
    3354:	eaffff74 	b	312c <vs_reset>
    3358:	e28dd004 	add	sp, sp, #4	; 0x4
    335c:	e8bd8000 	pop	{pc}
    3360:	e1a01000 	mov	r1, r0
    3364:	e59f3018 	ldr	r3, [pc, #24]	; 3384 <vs_assign_by_id+0x70>
    3368:	e59f0018 	ldr	r0, [pc, #24]	; 3388 <vs_assign_by_id+0x74>
    336c:	e1a0e00f 	mov	lr, pc
    3370:	e593f000 	ldr	pc, [r3]
    3374:	e3e00000 	mvn	r0, #0	; 0x0
    3378:	eafffff6 	b	3358 <vs_assign_by_id+0x44>
    337c:	3c00a13c 	.word	0x3c00a13c
    3380:	00017b34 	.word	0x00017b34
    3384:	3c00a94c 	.word	0x3c00a94c
    3388:	0001936a 	.word	0x0001936a

0000338c <vs_device_bootable>:
    338c:	e350000d 	cmp	r0, #13	; 0xd
    3390:	959f2014 	ldrls	r2, [pc, #20]	; 33ac <vs_device_bootable+0x20>
    3394:	93a0302c 	movls	r3, #44	; 0x2c
    3398:	90232093 	mlals	r3, r3, r0, r2
    339c:	95933008 	ldrls	r3, [r3, #8]
    33a0:	83a00000 	movhi	r0, #0	; 0x0
    33a4:	92030001 	andls	r0, r3, #1	; 0x1
    33a8:	e12fff1e 	bx	lr
    33ac:	00017b34 	.word	0x00017b34

000033b0 <vs_device_burnsrc>:
    33b0:	e350000d 	cmp	r0, #13	; 0xd
    33b4:	959f2018 	ldrls	r2, [pc, #24]	; 33d4 <vs_device_burnsrc+0x24>
    33b8:	93a0302c 	movls	r3, #44	; 0x2c
    33bc:	90232093 	mlals	r3, r3, r0, r2
    33c0:	95933008 	ldrls	r3, [r3, #8]
    33c4:	83a00000 	movhi	r0, #0	; 0x0
    33c8:	91a030a3 	lsrls	r3, r3, #1
    33cc:	92030001 	andls	r0, r3, #1	; 0x1
    33d0:	e12fff1e 	bx	lr
    33d4:	00017b34 	.word	0x00017b34

000033d8 <vs_device_burndst>:
    33d8:	e350000d 	cmp	r0, #13	; 0xd
    33dc:	959f2018 	ldrls	r2, [pc, #24]	; 33fc <vs_device_burndst+0x24>
    33e0:	93a0302c 	movls	r3, #44	; 0x2c
    33e4:	90232093 	mlals	r3, r3, r0, r2
    33e8:	95933008 	ldrls	r3, [r3, #8]
    33ec:	83a00000 	movhi	r0, #0	; 0x0
    33f0:	91a03123 	lsrls	r3, r3, #2
    33f4:	92030001 	andls	r0, r3, #1	; 0x1
    33f8:	e12fff1e 	bx	lr
    33fc:	00017b34 	.word	0x00017b34

00003400 <vs_device_boot0>:
    3400:	e350000d 	cmp	r0, #13	; 0xd
    3404:	959f2018 	ldrls	r2, [pc, #24]	; 3424 <vs_device_boot0+0x24>
    3408:	93a0302c 	movls	r3, #44	; 0x2c
    340c:	90232093 	mlals	r3, r3, r0, r2
    3410:	95933008 	ldrls	r3, [r3, #8]
    3414:	83a00000 	movhi	r0, #0	; 0x0
    3418:	91a031a3 	lsrls	r3, r3, #3
    341c:	92030001 	andls	r0, r3, #1	; 0x1
    3420:	e12fff1e 	bx	lr
    3424:	00017b34 	.word	0x00017b34

00003428 <vs_device_name>:
    3428:	e350000d 	cmp	r0, #13	; 0xd
    342c:	959f200c 	ldrls	r2, [pc, #12]	; 3440 <vs_device_name+0x18>
    3430:	93a0302c 	movls	r3, #44	; 0x2c
    3434:	83a00000 	movhi	r0, #0	; 0x0
    3438:	90202093 	mlals	r0, r3, r0, r2
    343c:	e12fff1e 	bx	lr
    3440:	00017b34 	.word	0x00017b34

00003444 <vs_device_erasable>:
    3444:	e350000d 	cmp	r0, #13	; 0xd
    3448:	959f2018 	ldrls	r2, [pc, #24]	; 3468 <vs_device_erasable+0x24>
    344c:	93a0302c 	movls	r3, #44	; 0x2c
    3450:	90232093 	mlals	r3, r3, r0, r2
    3454:	95933008 	ldrls	r3, [r3, #8]
    3458:	83a00000 	movhi	r0, #0	; 0x0
    345c:	91a03223 	lsrls	r3, r3, #4
    3460:	92030001 	andls	r0, r3, #1	; 0x1
    3464:	e12fff1e 	bx	lr
    3468:	00017b34 	.word	0x00017b34

0000346c <vs_device_count>:
    346c:	e3a0000e 	mov	r0, #14	; 0xe
    3470:	e12fff1e 	bx	lr

00003474 <vs_device_id>:
    3474:	e92d40f0 	push	{r4, r5, r6, r7, lr}
    3478:	e59f7040 	ldr	r7, [pc, #64]	; 34c0 <vs_device_id+0x4c>
    347c:	e24dd004 	sub	sp, sp, #4	; 0x4
    3480:	e1a05000 	mov	r5, r0
    3484:	e3a04000 	mov	r4, #0	; 0x0
    3488:	e3a0602c 	mov	r6, #44	; 0x2c
    348c:	e0217496 	mla	r1, r6, r4, r7
    3490:	e1a00005 	mov	r0, r5
    3494:	e3a02010 	mov	r2, #16	; 0x10
    3498:	ebfff80f 	bl	14dc <strncmp>
    349c:	e3500000 	cmp	r0, #0	; 0x0
    34a0:	0a000003 	beq	34b4 <vs_device_id+0x40>
    34a4:	e2844001 	add	r4, r4, #1	; 0x1
    34a8:	e354000e 	cmp	r4, #14	; 0xe
    34ac:	1afffff6 	bne	348c <vs_device_id+0x18>
    34b0:	e2844001 	add	r4, r4, #1	; 0x1
    34b4:	e1a00004 	mov	r0, r4
    34b8:	e28dd004 	add	sp, sp, #4	; 0x4
    34bc:	e8bd80f0 	pop	{r4, r5, r6, r7, pc}
    34c0:	00017b34 	.word	0x00017b34

000034c4 <vs_assign_by_name>:
    34c4:	e92d45f0 	push	{r4, r5, r6, r7, r8, sl, lr}
    34c8:	e59f3084 	ldr	r3, [pc, #132]	; 3554 <vs_assign_by_name+0x90>
    34cc:	e3a02000 	mov	r2, #0	; 0x0
    34d0:	e24dd004 	sub	sp, sp, #4	; 0x4
    34d4:	e5832000 	str	r2, [r3]
    34d8:	e1a06000 	mov	r6, r0
    34dc:	e1a07001 	mov	r7, r1
    34e0:	e1a04002 	mov	r4, r2
    34e4:	e3a0a02c 	mov	sl, #44	; 0x2c
    34e8:	e59f8068 	ldr	r8, [pc, #104]	; 3558 <vs_assign_by_name+0x94>
    34ec:	ea00000d 	b	3528 <vs_assign_by_name+0x64>
    34f0:	e025849a 	mla	r5, sl, r4, r8
    34f4:	e1a00005 	mov	r0, r5
    34f8:	ebfff7f7 	bl	14dc <strncmp>
    34fc:	e3500000 	cmp	r0, #0	; 0x0
    3500:	1a000007 	bne	3524 <vs_assign_by_name+0x60>
    3504:	e59f3048 	ldr	r3, [pc, #72]	; 3554 <vs_assign_by_name+0x90>
    3508:	e3570000 	cmp	r7, #0	; 0x0
    350c:	e5835000 	str	r5, [r3]
    3510:	01a00007 	moveq	r0, r7
    3514:	0a00000c 	beq	354c <vs_assign_by_name+0x88>
    3518:	e28dd004 	add	sp, sp, #4	; 0x4
    351c:	e8bd45f0 	pop	{r4, r5, r6, r7, r8, sl, lr}
    3520:	eaffff01 	b	312c <vs_reset>
    3524:	e2844001 	add	r4, r4, #1	; 0x1
    3528:	e354000e 	cmp	r4, #14	; 0xe
    352c:	e1a01006 	mov	r1, r6
    3530:	e3a02010 	mov	r2, #16	; 0x10
    3534:	1affffed 	bne	34f0 <vs_assign_by_name+0x2c>
    3538:	e59f001c 	ldr	r0, [pc, #28]	; 355c <vs_assign_by_name+0x98>
    353c:	e59f301c 	ldr	r3, [pc, #28]	; 3560 <vs_assign_by_name+0x9c>
    3540:	e1a0e00f 	mov	lr, pc
    3544:	e593f000 	ldr	pc, [r3]
    3548:	e3e00000 	mvn	r0, #0	; 0x0
    354c:	e28dd004 	add	sp, sp, #4	; 0x4
    3550:	e8bd85f0 	pop	{r4, r5, r6, r7, r8, sl, pc}
    3554:	3c00a13c 	.word	0x3c00a13c
    3558:	00017b34 	.word	0x00017b34
    355c:	00019383 	.word	0x00019383
    3560:	3c00a94c 	.word	0x3c00a94c

00003564 <vs_is_device>:
    3564:	e52de004 	push	{lr}		; (str lr, [sp, #-4]!)
    3568:	e350000e 	cmp	r0, #14	; 0xe
    356c:	059f304c 	ldreq	r3, [pc, #76]	; 35c0 <vs_is_device+0x5c>
    3570:	e1a0c001 	mov	ip, r1
    3574:	e24dd004 	sub	sp, sp, #4	; 0x4
    3578:	05931000 	ldreq	r1, [r3]
    357c:	0a000004 	beq	3594 <vs_is_device+0x30>
    3580:	e350000d 	cmp	r0, #13	; 0xd
    3584:	8a00000a 	bhi	35b4 <vs_is_device+0x50>
    3588:	e59f2034 	ldr	r2, [pc, #52]	; 35c4 <vs_is_device+0x60>
    358c:	e3a0302c 	mov	r3, #44	; 0x2c
    3590:	e0212093 	mla	r1, r3, r0, r2
    3594:	e3510000 	cmp	r1, #0	; 0x0
    3598:	0a000005 	beq	35b4 <vs_is_device+0x50>
    359c:	e1a0000c 	mov	r0, ip
    35a0:	e3a02010 	mov	r2, #16	; 0x10
    35a4:	ebfff7cc 	bl	14dc <strncmp>
    35a8:	e2700001 	rsbs	r0, r0, #1	; 0x1
    35ac:	33a00000 	movcc	r0, #0	; 0x0
    35b0:	ea000000 	b	35b8 <vs_is_device+0x54>
    35b4:	e3a00000 	mov	r0, #0	; 0x0
    35b8:	e28dd004 	add	sp, sp, #4	; 0x4
    35bc:	e8bd8000 	pop	{pc}
    35c0:	3c00a13c 	.word	0x3c00a13c
    35c4:	00017b34 	.word	0x00017b34

000035c8 <vs_read>:
    35c8:	e92d4ff0 	push	{r4, r5, r6, r7, r8, r9, sl, fp, lr}
    35cc:	e59f4234 	ldr	r4, [pc, #564]	; 3808 <vs_read+0x240>
    35d0:	e1a0a000 	mov	sl, r0
    35d4:	e5940000 	ldr	r0, [r4]
    35d8:	e24dd024 	sub	sp, sp, #36	; 0x24
    35dc:	e3500000 	cmp	r0, #0	; 0x0
    35e0:	e1a06002 	mov	r6, r2
    35e4:	e1a07003 	mov	r7, r3
    35e8:	e59d5048 	ldr	r5, [sp, #72]
    35ec:	03e04001 	mvneq	r4, #1	; 0x1
    35f0:	0a000081 	beq	37fc <vs_read+0x234>
    35f4:	e5903010 	ldr	r3, [r0, #16]
    35f8:	e3530000 	cmp	r3, #0	; 0x0
    35fc:	03e04002 	mvneq	r4, #2	; 0x2
    3600:	0a00007d 	beq	37fc <vs_read+0x234>
    3604:	e3550000 	cmp	r5, #0	; 0x0
    3608:	01a04005 	moveq	r4, r5
    360c:	0a00007a 	beq	37fc <vs_read+0x234>
    3610:	e59f11f4 	ldr	r1, [pc, #500]	; 380c <vs_read+0x244>
    3614:	e3a02003 	mov	r2, #3	; 0x3
    3618:	ebfff7af 	bl	14dc <strncmp>
    361c:	e3500000 	cmp	r0, #0	; 0x0
    3620:	1a00000a 	bne	3650 <vs_read+0x88>
    3624:	e59d204c 	ldr	r2, [sp, #76]
    3628:	e58d5000 	str	r5, [sp]
    362c:	e58d2004 	str	r2, [sp, #4]
    3630:	e5941000 	ldr	r1, [r4]
    3634:	e1a0000a 	mov	r0, sl
    3638:	e1a02006 	mov	r2, r6
    363c:	e1a03007 	mov	r3, r7
    3640:	e1a0e00f 	mov	lr, pc
    3644:	e591f010 	ldr	pc, [r1, #16]
    3648:	e1a04000 	mov	r4, r0
    364c:	ea00006a 	b	37fc <vs_read+0x234>
    3650:	e3a0000e 	mov	r0, #14	; 0xe
    3654:	ebffff15 	bl	32b0 <vs_align>
    3658:	e2402001 	sub	r2, r0, #1	; 0x1
    365c:	e0124006 	ands	r4, r2, r6
    3660:	10644000 	rsbne	r4, r4, r0
    3664:	e0643005 	rsb	r3, r4, r5
    3668:	e003b002 	and	fp, r3, r2
    366c:	e19b8004 	orrs	r8, fp, r4
    3670:	e58d000c 	str	r0, [sp, #12]
    3674:	e58d3014 	str	r3, [sp, #20]
    3678:	e58d8018 	str	r8, [sp, #24]
    367c:	01a04008 	moveq	r4, r8
    3680:	058d801c 	streq	r8, [sp, #28]
    3684:	0a00002f 	beq	3748 <vs_read+0x180>
    3688:	e59d000c 	ldr	r0, [sp, #12]
    368c:	ebfff830 	bl	1754 <malloc>
    3690:	e2509000 	subs	r9, r0, #0	; 0x0
    3694:	e58d901c 	str	r9, [sp, #28]
    3698:	1a00000c 	bne	36d0 <vs_read+0x108>
    369c:	e59f416c 	ldr	r4, [pc, #364]	; 3810 <vs_read+0x248>
    36a0:	e59f016c 	ldr	r0, [pc, #364]	; 3814 <vs_read+0x24c>
    36a4:	e300110f 	movw	r1, #271	; 0x10f
    36a8:	e1a0e00f 	mov	lr, pc
    36ac:	e594f000 	ldr	pc, [r4]
    36b0:	e59f0160 	ldr	r0, [pc, #352]	; 3818 <vs_read+0x250>
    36b4:	e59f1160 	ldr	r1, [pc, #352]	; 381c <vs_read+0x254>
    36b8:	e1a0e00f 	mov	lr, pc
    36bc:	e594f000 	ldr	pc, [r4]
    36c0:	e59f0158 	ldr	r0, [pc, #344]	; 3820 <vs_read+0x258>
    36c4:	e1a0e00f 	mov	lr, pc
    36c8:	e594f000 	ldr	pc, [r4]
    36cc:	eafffffe 	b	36cc <vs_read+0x104>
    36d0:	e3540000 	cmp	r4, #0	; 0x0
    36d4:	0a00001b 	beq	3748 <vs_read+0x180>
    36d8:	e59d200c 	ldr	r2, [sp, #12]
    36dc:	e59d800c 	ldr	r8, [sp, #12]
    36e0:	e2623000 	rsb	r3, r2, #0	; 0x0
    36e4:	e59d904c 	ldr	r9, [sp, #76]
    36e8:	e59f2118 	ldr	r2, [pc, #280]	; 3808 <vs_read+0x240>
    36ec:	e5921000 	ldr	r1, [r2]
    36f0:	e88d0300 	stm	sp, {r8, r9}
    36f4:	e0068003 	and	r8, r6, r3
    36f8:	e3a09000 	mov	r9, #0	; 0x0
    36fc:	e1a03009 	mov	r3, r9
    3700:	e1a02008 	mov	r2, r8
    3704:	e1a0e00f 	mov	lr, pc
    3708:	e591f010 	ldr	pc, [r1, #16]
    370c:	e2509000 	subs	r9, r0, #0	; 0x0
    3710:	b1a04009 	movlt	r4, r9
    3714:	ba000036 	blt	37f4 <vs_read+0x22c>
    3718:	e59d200c 	ldr	r2, [sp, #12]
    371c:	e59d301c 	ldr	r3, [sp, #28]
    3720:	e0641002 	rsb	r1, r4, r2
    3724:	e1a0000a 	mov	r0, sl
    3728:	e1a02004 	mov	r2, r4
    372c:	e0831001 	add	r1, r3, r1
    3730:	ebfff7a2 	bl	15c0 <memcpy>
    3734:	e0966004 	adds	r6, r6, r4
    3738:	e59d5014 	ldr	r5, [sp, #20]
    373c:	e08aa004 	add	sl, sl, r4
    3740:	e2a77000 	adc	r7, r7, #0	; 0x0
    3744:	e1a04009 	mov	r4, r9
    3748:	e055500b 	subs	r5, r5, fp
    374c:	0a000010 	beq	3794 <vs_read+0x1cc>
    3750:	e59f30b0 	ldr	r3, [pc, #176]	; 3808 <vs_read+0x240>
    3754:	e59d804c 	ldr	r8, [sp, #76]
    3758:	e58d5000 	str	r5, [sp]
    375c:	e5931000 	ldr	r1, [r3]
    3760:	e1a0000a 	mov	r0, sl
    3764:	e58d8004 	str	r8, [sp, #4]
    3768:	e1a02006 	mov	r2, r6
    376c:	e1a03007 	mov	r3, r7
    3770:	e1a0e00f 	mov	lr, pc
    3774:	e591f010 	ldr	pc, [r1, #16]
    3778:	e3500000 	cmp	r0, #0	; 0x0
    377c:	b1a04000 	movlt	r4, r0
    3780:	ba000018 	blt	37e8 <vs_read+0x220>
    3784:	e0966005 	adds	r6, r6, r5
    3788:	e0a77fc5 	adc	r7, r7, r5, asr #31
    378c:	e0844000 	add	r4, r4, r0
    3790:	e08aa005 	add	sl, sl, r5
    3794:	e35b0000 	cmp	fp, #0	; 0x0
    3798:	0a000012 	beq	37e8 <vs_read+0x220>
    379c:	e59d204c 	ldr	r2, [sp, #76]
    37a0:	e59d900c 	ldr	r9, [sp, #12]
    37a4:	e59f305c 	ldr	r3, [pc, #92]	; 3808 <vs_read+0x240>
    37a8:	e58d2004 	str	r2, [sp, #4]
    37ac:	e58d9000 	str	r9, [sp]
    37b0:	e5931000 	ldr	r1, [r3]
    37b4:	e1a02006 	mov	r2, r6
    37b8:	e1a03007 	mov	r3, r7
    37bc:	e59d001c 	ldr	r0, [sp, #28]
    37c0:	e1a0e00f 	mov	lr, pc
    37c4:	e591f010 	ldr	pc, [r1, #16]
    37c8:	e2505000 	subs	r5, r0, #0	; 0x0
    37cc:	b1a04005 	movlt	r4, r5
    37d0:	ba000004 	blt	37e8 <vs_read+0x220>
    37d4:	e1a0000a 	mov	r0, sl
    37d8:	e1a0200b 	mov	r2, fp
    37dc:	e59d101c 	ldr	r1, [sp, #28]
    37e0:	ebfff776 	bl	15c0 <memcpy>
    37e4:	e0844005 	add	r4, r4, r5
    37e8:	e59d3018 	ldr	r3, [sp, #24]
    37ec:	e3530000 	cmp	r3, #0	; 0x0
    37f0:	0a000001 	beq	37fc <vs_read+0x234>
    37f4:	e59d001c 	ldr	r0, [sp, #28]
    37f8:	ebfff83d 	bl	18f4 <free>
    37fc:	e1a00004 	mov	r0, r4
    3800:	e28dd024 	add	sp, sp, #36	; 0x24
    3804:	e8bd8ff0 	pop	{r4, r5, r6, r7, r8, r9, sl, fp, pc}
    3808:	3c00a13c 	.word	0x3c00a13c
    380c:	0001939e 	.word	0x0001939e
    3810:	3c00a94c 	.word	0x3c00a94c
    3814:	000193a2 	.word	0x000193a2
    3818:	00018a5d 	.word	0x00018a5d
    381c:	000193b4 	.word	0x000193b4
    3820:	000193bf 	.word	0x000193bf

00003824 <ss_lock_isk>:
    3824:	e52de004 	push	{lr}		; (str lr, [sp, #-4]!)
    3828:	e3a00801 	mov	r0, #65536	; 0x10000
    382c:	e24dd004 	sub	sp, sp, #4	; 0x4
    3830:	ebfff613 	bl	1084 <ecfg_check_flag>
    3834:	e3500000 	cmp	r0, #0	; 0x0
    3838:	1a000005 	bne	3854 <ss_lock_isk+0x30>
    383c:	e59f001c 	ldr	r0, [pc, #28]	; 3860 <ss_lock_isk+0x3c>
    3840:	e59f301c 	ldr	r3, [pc, #28]	; 3864 <ss_lock_isk+0x40>
    3844:	e1a0e00f 	mov	lr, pc
    3848:	e593f000 	ldr	pc, [r3]
    384c:	e28dd004 	add	sp, sp, #4	; 0x4
    3850:	e8bd8000 	pop	{pc}
    3854:	e28dd004 	add	sp, sp, #4	; 0x4
    3858:	e49de004 	pop	{lr}		; (ldr lr, [sp], #4)
    385c:	ea000040 	b	3964 <block_cipher_lock_isk>
    3860:	000193f0 	.word	0x000193f0
    3864:	3c00a94c 	.word	0x3c00a94c

00003868 <ss_aes_data>:
    3868:	e92d40f0 	push	{r4, r5, r6, r7, lr}
    386c:	e1a07000 	mov	r7, r0
    3870:	e24dd004 	sub	sp, sp, #4	; 0x4
    3874:	e3a00801 	mov	r0, #65536	; 0x10000
    3878:	e1a06001 	mov	r6, r1
    387c:	e1a04002 	mov	r4, r2
    3880:	ebfff5ff 	bl	1084 <ecfg_check_flag>
    3884:	e2505000 	subs	r5, r0, #0	; 0x0
    3888:	1a000005 	bne	38a4 <ss_aes_data+0x3c>
    388c:	e59f0034 	ldr	r0, [pc, #52]	; 38c8 <ss_aes_data+0x60>
    3890:	e59f3034 	ldr	r3, [pc, #52]	; 38cc <ss_aes_data+0x64>
    3894:	e1a0e00f 	mov	lr, pc
    3898:	e593f000 	ldr	pc, [r3]
    389c:	e1a00005 	mov	r0, r5
    38a0:	ea000006 	b	38c0 <ss_aes_data+0x58>
    38a4:	e284200f 	add	r2, r4, #15	; 0xf
    38a8:	e1a00007 	mov	r0, r7
    38ac:	e1a01006 	mov	r1, r6
    38b0:	e3c2200f 	bic	r2, r2, #15	; 0xf
    38b4:	eb0000aa 	bl	3b64 <block_cipher_operation>
    38b8:	e3500000 	cmp	r0, #0	; 0x0
    38bc:	13e00000 	mvnne	r0, #0	; 0x0
    38c0:	e28dd004 	add	sp, sp, #4	; 0x4
    38c4:	e8bd80f0 	pop	{r4, r5, r6, r7, pc}
    38c8:	000193f0 	.word	0x000193f0
    38cc:	3c00a94c 	.word	0x3c00a94c

000038d0 <ss_aes_init>:
    38d0:	e92d40f0 	push	{r4, r5, r6, r7, lr}
    38d4:	e1a06000 	mov	r6, r0
    38d8:	e24dd004 	sub	sp, sp, #4	; 0x4
    38dc:	e3a00801 	mov	r0, #65536	; 0x10000
    38e0:	e1a04001 	mov	r4, r1
    38e4:	e1a07002 	mov	r7, r2
    38e8:	ebfff5e5 	bl	1084 <ecfg_check_flag>
    38ec:	e2505000 	subs	r5, r0, #0	; 0x0
    38f0:	1a000005 	bne	390c <ss_aes_init+0x3c>
    38f4:	e59f004c 	ldr	r0, [pc, #76]	; 3948 <ss_aes_init+0x78>
    38f8:	e59f304c 	ldr	r3, [pc, #76]	; 394c <ss_aes_init+0x7c>
    38fc:	e1a0e00f 	mov	lr, pc
    3900:	e593f000 	ldr	pc, [r3]
    3904:	e1a00005 	mov	r0, r5
    3908:	ea00000c 	b	3940 <ss_aes_init+0x70>
    390c:	e3540000 	cmp	r4, #0	; 0x0
    3910:	01a00006 	moveq	r0, r6
    3914:	01a02004 	moveq	r2, r4
    3918:	01a03007 	moveq	r3, r7
    391c:	03a01001 	moveq	r1, #1	; 0x1
    3920:	11a00006 	movne	r0, r6
    3924:	11a02004 	movne	r2, r4
    3928:	11a03007 	movne	r3, r7
    392c:	13a01000 	movne	r1, #0	; 0x0
    3930:	eb00002d 	bl	39ec <block_cipher_aes_init>
    3934:	e3500000 	cmp	r0, #0	; 0x0
    3938:	13e00000 	mvnne	r0, #0	; 0x0
    393c:	03a00000 	moveq	r0, #0	; 0x0
    3940:	e28dd004 	add	sp, sp, #4	; 0x4
    3944:	e8bd80f0 	pop	{r4, r5, r6, r7, pc}
    3948:	000193f0 	.word	0x000193f0
    394c:	3c00a94c 	.word	0x3c00a94c

00003950 <check_register_bit>:
    3950:	e3a03001 	mov	r3, #1	; 0x1
    3954:	e0103113 	ands	r3, r0, r3, lsl r1
    3958:	03a00000 	moveq	r0, #0	; 0x0
    395c:	13a00001 	movne	r0, #1	; 0x1
    3960:	e12fff1e 	bx	lr

00003964 <block_cipher_lock_isk>:
    3964:	e59f200c 	ldr	r2, [pc, #12]	; 3978 <block_cipher_lock_isk+0x14>
    3968:	e5923400 	ldr	r3, [r2, #1024]
    396c:	e3833706 	orr	r3, r3, #1572864	; 0x180000
    3970:	e5823400 	str	r3, [r2, #1024]
    3974:	e12fff1e 	bx	lr
    3978:	23200000 	.word	0x23200000

0000397c <block_cipher_reset>:
    397c:	e92d40f0 	push	{r4, r5, r6, r7, lr}
    3980:	e59f4060 	ldr	r4, [pc, #96]	; 39e8 <block_cipher_reset+0x6c>
    3984:	e3a03102 	mov	r3, #-2147483648	; 0x80000000
    3988:	e5843400 	str	r3, [r4, #1024]
    398c:	e24dd004 	sub	sp, sp, #4	; 0x4
    3990:	eb001fd9 	bl	b8fc <get_ticks>
    3994:	e3a06e7d 	mov	r6, #2000	; 0x7d0
    3998:	e3a07000 	mov	r7, #0	; 0x0
    399c:	e0966000 	adds	r6, r6, r0
    39a0:	e1a05004 	mov	r5, r4
    39a4:	e0a77001 	adc	r7, r7, r1
    39a8:	e5944400 	ldr	r4, [r4, #1024]
    39ac:	ea000008 	b	39d4 <block_cipher_reset+0x58>
    39b0:	e5954400 	ldr	r4, [r5, #1024]
    39b4:	eb001fd0 	bl	b8fc <get_ticks>
    39b8:	e1510007 	cmp	r1, r7
    39bc:	8a000002 	bhi	39cc <block_cipher_reset+0x50>
    39c0:	1a000003 	bne	39d4 <block_cipher_reset+0x58>
    39c4:	e1500006 	cmp	r0, r6
    39c8:	9a000001 	bls	39d4 <block_cipher_reset+0x58>
    39cc:	e3a00001 	mov	r0, #1	; 0x1
    39d0:	ea000002 	b	39e0 <block_cipher_reset+0x64>
    39d4:	e3540000 	cmp	r4, #0	; 0x0
    39d8:	bafffff4 	blt	39b0 <block_cipher_reset+0x34>
    39dc:	e3a00000 	mov	r0, #0	; 0x0
    39e0:	e28dd004 	add	sp, sp, #4	; 0x4
    39e4:	e8bd80f0 	pop	{r4, r5, r6, r7, pc}
    39e8:	23200000 	.word	0x23200000

000039ec <block_cipher_aes_init>:
    39ec:	e92d40f0 	push	{r4, r5, r6, r7, lr}
    39f0:	e24dd004 	sub	sp, sp, #4	; 0x4
    39f4:	e1a05000 	mov	r5, r0
    39f8:	e1a04001 	mov	r4, r1
    39fc:	e1a06002 	mov	r6, r2
    3a00:	e1a07003 	mov	r7, r3
    3a04:	ebffffdc 	bl	397c <block_cipher_reset>
    3a08:	e3500000 	cmp	r0, #0	; 0x0
    3a0c:	1a00003d 	bne	3b08 <block_cipher_aes_init+0x11c>
    3a10:	e59f3134 	ldr	r3, [pc, #308]	; 3b4c <block_cipher_aes_init+0x160>
    3a14:	e3a02001 	mov	r2, #1	; 0x1
    3a18:	e3550001 	cmp	r5, #1	; 0x1
    3a1c:	e5832404 	str	r2, [r3, #1028]
    3a20:	8a000038 	bhi	3b08 <block_cipher_aes_init+0x11c>
    3a24:	e3540003 	cmp	r4, #3	; 0x3
    3a28:	13540000 	cmpne	r4, #0	; 0x0
    3a2c:	0a000001 	beq	3a38 <block_cipher_aes_init+0x4c>
    3a30:	e1540002 	cmp	r4, r2
    3a34:	1a000033 	bne	3b08 <block_cipher_aes_init+0x11c>
    3a38:	e1a03305 	lsl	r3, r5, #6
    3a3c:	e3833901 	orr	r3, r3, #16384	; 0x4000
    3a40:	e3833004 	orr	r3, r3, #4	; 0x4
    3a44:	e59f2100 	ldr	r2, [pc, #256]	; 3b4c <block_cipher_aes_init+0x160>
    3a48:	e1833984 	orr	r3, r3, r4, lsl #19
    3a4c:	e3540000 	cmp	r4, #0	; 0x0
    3a50:	e5823400 	str	r3, [r2, #1024]
    3a54:	1a000008 	bne	3a7c <block_cipher_aes_init+0x90>
    3a58:	e59f10f0 	ldr	r1, [pc, #240]	; 3b50 <block_cipher_aes_init+0x164>
    3a5c:	e59f00f0 	ldr	r0, [pc, #240]	; 3b54 <block_cipher_aes_init+0x168>
    3a60:	e59f30f0 	ldr	r3, [pc, #240]	; 3b58 <block_cipher_aes_init+0x16c>
    3a64:	e0862001 	add	r2, r6, r1
    3a68:	e0823003 	add	r3, r2, r3
    3a6c:	e5933000 	ldr	r3, [r3]
    3a70:	e4813004 	str	r3, [r1], #4
    3a74:	e1510000 	cmp	r1, r0
    3a78:	1afffff8 	bne	3a60 <block_cipher_aes_init+0x74>
    3a7c:	e59f10d0 	ldr	r1, [pc, #208]	; 3b54 <block_cipher_aes_init+0x168>
    3a80:	e59f00d4 	ldr	r0, [pc, #212]	; 3b5c <block_cipher_aes_init+0x170>
    3a84:	e59f30d4 	ldr	r3, [pc, #212]	; 3b60 <block_cipher_aes_init+0x174>
    3a88:	e0872001 	add	r2, r7, r1
    3a8c:	e0823003 	add	r3, r2, r3
    3a90:	e5933000 	ldr	r3, [r3]
    3a94:	e4813004 	str	r3, [r1], #4
    3a98:	e1510000 	cmp	r1, r0
    3a9c:	1afffff8 	bne	3a84 <block_cipher_aes_init+0x98>
    3aa0:	e3540000 	cmp	r4, #0	; 0x0
    3aa4:	1a000008 	bne	3acc <block_cipher_aes_init+0xe0>
    3aa8:	eb001f93 	bl	b8fc <get_ticks>
    3aac:	e3a04ffa 	mov	r4, #1000	; 0x3e8
    3ab0:	e3a05000 	mov	r5, #0	; 0x0
    3ab4:	e0944000 	adds	r4, r4, r0
    3ab8:	e59f608c 	ldr	r6, [pc, #140]	; 3b4c <block_cipher_aes_init+0x160>
    3abc:	e0a55001 	adc	r5, r5, r1
    3ac0:	e596340c 	ldr	r3, [r6, #1036]
    3ac4:	e3130008 	tst	r3, #8	; 0x8
    3ac8:	0a000011 	beq	3b14 <block_cipher_aes_init+0x128>
    3acc:	eb001f8a 	bl	b8fc <get_ticks>
    3ad0:	e3a04ffa 	mov	r4, #1000	; 0x3e8
    3ad4:	e3a05000 	mov	r5, #0	; 0x0
    3ad8:	e0944000 	adds	r4, r4, r0
    3adc:	e59f6068 	ldr	r6, [pc, #104]	; 3b4c <block_cipher_aes_init+0x160>
    3ae0:	e0a55001 	adc	r5, r5, r1
    3ae4:	e596340c 	ldr	r3, [r6, #1036]
    3ae8:	e59f205c 	ldr	r2, [pc, #92]	; 3b4c <block_cipher_aes_init+0x160>
    3aec:	e3130010 	tst	r3, #16	; 0x10
    3af0:	0a00000e 	beq	3b30 <block_cipher_aes_init+0x144>
    3af4:	e5923400 	ldr	r3, [r2, #1024]
    3af8:	e3a00000 	mov	r0, #0	; 0x0
    3afc:	e3833001 	orr	r3, r3, #1	; 0x1
    3b00:	e5823400 	str	r3, [r2, #1024]
    3b04:	ea000000 	b	3b0c <block_cipher_aes_init+0x120>
    3b08:	e3a00001 	mov	r0, #1	; 0x1
    3b0c:	e28dd004 	add	sp, sp, #4	; 0x4
    3b10:	e8bd80f0 	pop	{r4, r5, r6, r7, pc}
    3b14:	eb001f78 	bl	b8fc <get_ticks>
    3b18:	e1510005 	cmp	r1, r5
    3b1c:	8afffff9 	bhi	3b08 <block_cipher_aes_init+0x11c>
    3b20:	1affffe6 	bne	3ac0 <block_cipher_aes_init+0xd4>
    3b24:	e1500004 	cmp	r0, r4
    3b28:	8afffff6 	bhi	3b08 <block_cipher_aes_init+0x11c>
    3b2c:	eaffffe3 	b	3ac0 <block_cipher_aes_init+0xd4>
    3b30:	eb001f71 	bl	b8fc <get_ticks>
    3b34:	e1510005 	cmp	r1, r5
    3b38:	8afffff2 	bhi	3b08 <block_cipher_aes_init+0x11c>
    3b3c:	1affffe8 	bne	3ae4 <block_cipher_aes_init+0xf8>
    3b40:	e1500004 	cmp	r0, r4
    3b44:	8affffef 	bhi	3b08 <block_cipher_aes_init+0x11c>
    3b48:	eaffffe5 	b	3ae4 <block_cipher_aes_init+0xf8>
    3b4c:	23200000 	.word	0x23200000
    3b50:	23200420 	.word	0x23200420
    3b54:	23200440 	.word	0x23200440
    3b58:	dcdffbe0 	.word	0xdcdffbe0
    3b5c:	23200450 	.word	0x23200450
    3b60:	dcdffbc0 	.word	0xdcdffbc0

00003b64 <block_cipher_operation>:
    3b64:	e92d4ff0 	push	{r4, r5, r6, r7, r8, r9, sl, fp, lr}
    3b68:	e24dd00c 	sub	sp, sp, #12	; 0xc
    3b6c:	e1a08002 	mov	r8, r2
    3b70:	e58d0004 	str	r0, [sp, #4]
    3b74:	e1a09001 	mov	r9, r1
    3b78:	e1a06002 	mov	r6, r2
    3b7c:	e59fa0c4 	ldr	sl, [pc, #196]	; 3c48 <block_cipher_operation+0xe4>
    3b80:	e3a0b000 	mov	fp, #0	; 0x0
    3b84:	ea000028 	b	3c2c <block_cipher_operation+0xc8>
    3b88:	e59d3004 	ldr	r3, [sp, #4]
    3b8c:	e3560902 	cmp	r6, #32768	; 0x8000
    3b90:	b1a07006 	movlt	r7, r6
    3b94:	a3a07902 	movge	r7, #32768	; 0x8000
    3b98:	e0664008 	rsb	r4, r6, r8
    3b9c:	e3a00000 	mov	r0, #0	; 0x0
    3ba0:	e0831004 	add	r1, r3, r4
    3ba4:	e1a02007 	mov	r2, r7
    3ba8:	eb0000e6 	bl	3f48 <dma_sdma_init>
    3bac:	e3500000 	cmp	r0, #0	; 0x0
    3bb0:	1a000021 	bne	3c3c <block_cipher_operation+0xd8>
    3bb4:	e0891004 	add	r1, r9, r4
    3bb8:	e2800001 	add	r0, r0, #1	; 0x1
    3bbc:	e1a02007 	mov	r2, r7
    3bc0:	eb0000e0 	bl	3f48 <dma_sdma_init>
    3bc4:	e3500000 	cmp	r0, #0	; 0x0
    3bc8:	1a00001b 	bne	3c3c <block_cipher_operation+0xd8>
    3bcc:	eb0000cd 	bl	3f08 <dma_start>
    3bd0:	e3a00001 	mov	r0, #1	; 0x1
    3bd4:	eb0000cb 	bl	3f08 <dma_start>
    3bd8:	eb001f47 	bl	b8fc <get_ticks>
    3bdc:	e090400a 	adds	r4, r0, sl
    3be0:	e0a1500b 	adc	r5, r1, fp
    3be4:	ea000005 	b	3c00 <block_cipher_operation+0x9c>
    3be8:	eb001f43 	bl	b8fc <get_ticks>
    3bec:	e1510005 	cmp	r1, r5
    3bf0:	8a000011 	bhi	3c3c <block_cipher_operation+0xd8>
    3bf4:	1a000001 	bne	3c00 <block_cipher_operation+0x9c>
    3bf8:	e1500004 	cmp	r0, r4
    3bfc:	8a00000e 	bhi	3c3c <block_cipher_operation+0xd8>
    3c00:	e3a01003 	mov	r1, #3	; 0x3
    3c04:	e3a00001 	mov	r0, #1	; 0x1
    3c08:	eb0000c4 	bl	3f20 <dma_get_status>
    3c0c:	e3500000 	cmp	r0, #0	; 0x0
    3c10:	0afffff4 	beq	3be8 <block_cipher_operation+0x84>
    3c14:	e3a00000 	mov	r0, #0	; 0x0
    3c18:	e3a01003 	mov	r1, #3	; 0x3
    3c1c:	eb0000bf 	bl	3f20 <dma_get_status>
    3c20:	e3500000 	cmp	r0, #0	; 0x0
    3c24:	0a000004 	beq	3c3c <block_cipher_operation+0xd8>
    3c28:	e0676006 	rsb	r6, r7, r6
    3c2c:	e3560000 	cmp	r6, #0	; 0x0
    3c30:	1affffd4 	bne	3b88 <block_cipher_operation+0x24>
    3c34:	e1a00006 	mov	r0, r6
    3c38:	ea000000 	b	3c40 <block_cipher_operation+0xdc>
    3c3c:	e3a00001 	mov	r0, #1	; 0x1
    3c40:	e28dd00c 	add	sp, sp, #12	; 0xc
    3c44:	e8bd8ff0 	pop	{r4, r5, r6, r7, r8, r9, sl, fp, pc}
    3c48:	000f4240 	.word	0x000f4240

00003c4c <hash_len>:
    3c4c:	e59f300c 	ldr	r3, [pc, #12]	; 3c60 <hash_len+0x14>
    3c50:	e5932000 	ldr	r2, [r3]
    3c54:	e59f3008 	ldr	r3, [pc, #8]	; 3c64 <hash_len+0x18>
    3c58:	e7930202 	ldr	r0, [r3, r2, lsl #4]
    3c5c:	e12fff1e 	bx	lr
    3c60:	3c00a140 	.word	0x3c00a140
    3c64:	00017d9c 	.word	0x00017d9c

00003c68 <hash_value>:
    3c68:	e92d4030 	push	{r4, r5, lr}
    3c6c:	e59f305c 	ldr	r3, [pc, #92]	; 3cd0 <hash_value+0x68>
    3c70:	e24dd004 	sub	sp, sp, #4	; 0x4
    3c74:	e5933000 	ldr	r3, [r3]
    3c78:	e1a05000 	mov	r5, r0
    3c7c:	e3530000 	cmp	r3, #0	; 0x0
    3c80:	0a000009 	beq	3cac <hash_value+0x44>
    3c84:	e3a00801 	mov	r0, #65536	; 0x10000
    3c88:	ebfff4fd 	bl	1084 <ecfg_check_flag>
    3c8c:	e2504000 	subs	r4, r0, #0	; 0x0
    3c90:	1a000005 	bne	3cac <hash_value+0x44>
    3c94:	e59f0038 	ldr	r0, [pc, #56]	; 3cd4 <hash_value+0x6c>
    3c98:	e59f3038 	ldr	r3, [pc, #56]	; 3cd8 <hash_value+0x70>
    3c9c:	e1a0e00f 	mov	lr, pc
    3ca0:	e593f000 	ldr	pc, [r3]
    3ca4:	e1a00004 	mov	r0, r4
    3ca8:	ea000006 	b	3cc8 <hash_value+0x60>
    3cac:	e59f301c 	ldr	r3, [pc, #28]	; 3cd0 <hash_value+0x68>
    3cb0:	e1a00005 	mov	r0, r5
    3cb4:	e5932000 	ldr	r2, [r3]
    3cb8:	e59f301c 	ldr	r3, [pc, #28]	; 3cdc <hash_value+0x74>
    3cbc:	e0833202 	add	r3, r3, r2, lsl #4
    3cc0:	e1a0e00f 	mov	lr, pc
    3cc4:	e593f00c 	ldr	pc, [r3, #12]
    3cc8:	e28dd004 	add	sp, sp, #4	; 0x4
    3ccc:	e8bd8030 	pop	{r4, r5, pc}
    3cd0:	3c00a140 	.word	0x3c00a140
    3cd4:	000193f0 	.word	0x000193f0
    3cd8:	3c00a94c 	.word	0x3c00a94c
    3cdc:	00017d9c 	.word	0x00017d9c

00003ce0 <hash_data>:
    3ce0:	e59f3060 	ldr	r3, [pc, #96]	; 3d48 <hash_data+0x68>
    3ce4:	e92d4070 	push	{r4, r5, r6, lr}
    3ce8:	e5933000 	ldr	r3, [r3]
    3cec:	e1a05000 	mov	r5, r0
    3cf0:	e3530000 	cmp	r3, #0	; 0x0
    3cf4:	e1a06001 	mov	r6, r1
    3cf8:	0a000009 	beq	3d24 <hash_data+0x44>
    3cfc:	e3a00801 	mov	r0, #65536	; 0x10000
    3d00:	ebfff4df 	bl	1084 <ecfg_check_flag>
    3d04:	e2504000 	subs	r4, r0, #0	; 0x0
    3d08:	1a000005 	bne	3d24 <hash_data+0x44>
    3d0c:	e59f0038 	ldr	r0, [pc, #56]	; 3d4c <hash_data+0x6c>
    3d10:	e59f3038 	ldr	r3, [pc, #56]	; 3d50 <hash_data+0x70>
    3d14:	e1a0e00f 	mov	lr, pc
    3d18:	e593f000 	ldr	pc, [r3]
    3d1c:	e1a00004 	mov	r0, r4
    3d20:	e8bd8070 	pop	{r4, r5, r6, pc}
    3d24:	e59f301c 	ldr	r3, [pc, #28]	; 3d48 <hash_data+0x68>
    3d28:	e1a00005 	mov	r0, r5
    3d2c:	e5932000 	ldr	r2, [r3]
    3d30:	e59f301c 	ldr	r3, [pc, #28]	; 3d54 <hash_data+0x74>
    3d34:	e1a01006 	mov	r1, r6
    3d38:	e0833202 	add	r3, r3, r2, lsl #4
    3d3c:	e1a0e00f 	mov	lr, pc
    3d40:	e593f008 	ldr	pc, [r3, #8]
    3d44:	e8bd8070 	pop	{r4, r5, r6, pc}
    3d48:	3c00a140 	.word	0x3c00a140
    3d4c:	000193f0 	.word	0x000193f0
    3d50:	3c00a94c 	.word	0x3c00a94c
    3d54:	00017d9c 	.word	0x00017d9c

00003d58 <hash_init>:
    3d58:	e3500003 	cmp	r0, #3	; 0x3
    3d5c:	e92d4070 	push	{r4, r5, r6, lr}
    3d60:	e1a04000 	mov	r4, r0
    3d64:	e1a06001 	mov	r6, r1
    3d68:	9a000005 	bls	3d84 <hash_init+0x2c>
    3d6c:	e59f0060 	ldr	r0, [pc, #96]	; 3dd4 <hash_init+0x7c>
    3d70:	e59f3060 	ldr	r3, [pc, #96]	; 3dd8 <hash_init+0x80>
    3d74:	e1a0e00f 	mov	lr, pc
    3d78:	e593f000 	ldr	pc, [r3]
    3d7c:	e3e00000 	mvn	r0, #0	; 0x0
    3d80:	e8bd8070 	pop	{r4, r5, r6, pc}
    3d84:	e59f3050 	ldr	r3, [pc, #80]	; 3ddc <hash_init+0x84>
    3d88:	e3500000 	cmp	r0, #0	; 0x0
    3d8c:	e5830000 	str	r0, [r3]
    3d90:	0a000009 	beq	3dbc <hash_init+0x64>
    3d94:	e3a00801 	mov	r0, #65536	; 0x10000
    3d98:	ebfff4b9 	bl	1084 <ecfg_check_flag>
    3d9c:	e2505000 	subs	r5, r0, #0	; 0x0
    3da0:	1a000005 	bne	3dbc <hash_init+0x64>
    3da4:	e59f0034 	ldr	r0, [pc, #52]	; 3de0 <hash_init+0x88>
    3da8:	e59f3028 	ldr	r3, [pc, #40]	; 3dd8 <hash_init+0x80>
    3dac:	e1a0e00f 	mov	lr, pc
    3db0:	e593f000 	ldr	pc, [r3]
    3db4:	e1a00005 	mov	r0, r5
    3db8:	e8bd8070 	pop	{r4, r5, r6, pc}
    3dbc:	e59f3020 	ldr	r3, [pc, #32]	; 3de4 <hash_init+0x8c>
    3dc0:	e1a00006 	mov	r0, r6
    3dc4:	e0833204 	add	r3, r3, r4, lsl #4
    3dc8:	e1a0e00f 	mov	lr, pc
    3dcc:	e593f004 	ldr	pc, [r3, #4]
    3dd0:	e8bd8070 	pop	{r4, r5, r6, pc}
    3dd4:	000193f6 	.word	0x000193f6
    3dd8:	3c00a94c 	.word	0x3c00a94c
    3ddc:	3c00a140 	.word	0x3c00a140
    3de0:	000193f0 	.word	0x000193f0
    3de4:	00017d9c 	.word	0x00017d9c

00003de8 <md5_value>:
    3de8:	e92d4030 	push	{r4, r5, lr}
    3dec:	e59f3054 	ldr	r3, [pc, #84]	; 3e48 <md5_value+0x60>
    3df0:	e1a05000 	mov	r5, r0
    3df4:	e893000c 	ldm	r3, {r2, r3}
    3df8:	e1823003 	orr	r3, r2, r3
    3dfc:	e24dd024 	sub	sp, sp, #36	; 0x24
    3e00:	e3530000 	cmp	r3, #0	; 0x0
    3e04:	13e00000 	mvnne	r0, #0	; 0x0
    3e08:	1a00000c 	bne	3e40 <md5_value+0x58>
    3e0c:	e1a0000d 	mov	r0, sp
    3e10:	eb000162 	bl	43a0 <hash_module_get_result>
    3e14:	e3500000 	cmp	r0, #0	; 0x0
    3e18:	e1a0400d 	mov	r4, sp
    3e1c:	13e00001 	mvnne	r0, #1	; 0x1
    3e20:	1a000006 	bne	3e40 <md5_value+0x58>
    3e24:	e1a0200d 	mov	r2, sp
    3e28:	e7d23000 	ldrb	r3, [r2, r0]
    3e2c:	e7c53000 	strb	r3, [r5, r0]
    3e30:	e2800001 	add	r0, r0, #1	; 0x1
    3e34:	e3500010 	cmp	r0, #16	; 0x10
    3e38:	1afffffa 	bne	3e28 <md5_value+0x40>
    3e3c:	e3a00000 	mov	r0, #0	; 0x0
    3e40:	e28dd024 	add	sp, sp, #36	; 0x24
    3e44:	e8bd8030 	pop	{r4, r5, pc}
    3e48:	3c00a148 	.word	0x3c00a148

00003e4c <md5_data>:
    3e4c:	e59f305c 	ldr	r3, [pc, #92]	; 3eb0 <md5_data+0x64>
    3e50:	e92d4070 	push	{r4, r5, r6, lr}
    3e54:	e1a06001 	mov	r6, r1
    3e58:	e5931004 	ldr	r1, [r3, #4]
    3e5c:	e1a04006 	mov	r4, r6
    3e60:	e3a05000 	mov	r5, #0	; 0x0
    3e64:	e1550001 	cmp	r5, r1
    3e68:	e593c000 	ldr	ip, [r3]
    3e6c:	8a000002 	bhi	3e7c <md5_data+0x30>
    3e70:	1a000003 	bne	3e84 <md5_data+0x38>
    3e74:	e154000c 	cmp	r4, ip
    3e78:	9a000001 	bls	3e84 <md5_data+0x38>
    3e7c:	e3e00000 	mvn	r0, #0	; 0x0
    3e80:	e8bd8070 	pop	{r4, r5, r6, pc}
    3e84:	e1a0200c 	mov	r2, ip
    3e88:	e1a03001 	mov	r3, r1
    3e8c:	e59fc01c 	ldr	ip, [pc, #28]	; 3eb0 <md5_data+0x64>
    3e90:	e0522004 	subs	r2, r2, r4
    3e94:	e0c33005 	sbc	r3, r3, r5
    3e98:	e1a01006 	mov	r1, r6
    3e9c:	e88c000c 	stm	ip, {r2, r3}
    3ea0:	eb0001a1 	bl	452c <hash_dma_transfer>
    3ea4:	e3500000 	cmp	r0, #0	; 0x0
    3ea8:	13e00001 	mvnne	r0, #1	; 0x1
    3eac:	e8bd8070 	pop	{r4, r5, r6, pc}
    3eb0:	3c00a148 	.word	0x3c00a148

00003eb4 <md5_init>:
    3eb4:	e1a03ea0 	lsr	r3, r0, #29
    3eb8:	e1a0c180 	lsl	ip, r0, #3
    3ebc:	e92d4010 	push	{r4, lr}
    3ec0:	e59f403c 	ldr	r4, [pc, #60]	; 3f04 <md5_init+0x50>
    3ec4:	e1a0200c 	mov	r2, ip
    3ec8:	e1a01003 	mov	r1, r3
    3ecc:	e3a00000 	mov	r0, #0	; 0x0
    3ed0:	e5843004 	str	r3, [r4, #4]
    3ed4:	e584c000 	str	ip, [r4]
    3ed8:	eb000177 	bl	44bc <hash_module_init>
    3edc:	e3500000 	cmp	r0, #0	; 0x0
    3ee0:	05942000 	ldreq	r2, [r4]
    3ee4:	05943004 	ldreq	r3, [r4, #4]
    3ee8:	01a021a2 	lsreq	r2, r2, #3
    3eec:	01822e83 	orreq	r2, r2, r3, lsl #29
    3ef0:	01a031a3 	lsreq	r3, r3, #3
    3ef4:	13e00000 	mvnne	r0, #0	; 0x0
    3ef8:	05843004 	streq	r3, [r4, #4]
    3efc:	05842000 	streq	r2, [r4]
    3f00:	e8bd8010 	pop	{r4, pc}
    3f04:	3c00a148 	.word	0x3c00a148

00003f08 <dma_start>:
    3f08:	e2800823 	add	r0, r0, #2293760	; 0x230000
    3f0c:	e2800a02 	add	r0, r0, #8192	; 0x2000
    3f10:	e1a00400 	lsl	r0, r0, #8
    3f14:	e3a03001 	mov	r3, #1	; 0x1
    3f18:	e5803000 	str	r3, [r0]
    3f1c:	e12fff1e 	bx	lr

00003f20 <dma_get_status>:
    3f20:	e3a0c001 	mov	ip, #1	; 0x1
    3f24:	e1a0211c 	lsl	r2, ip, r1
    3f28:	e2800823 	add	r0, r0, #2293760	; 0x230000
    3f2c:	e2800a02 	add	r0, r0, #8192	; 0x2000
    3f30:	e1a01400 	lsl	r1, r0, #8
    3f34:	e5913024 	ldr	r3, [r1, #36]
    3f38:	e0130002 	ands	r0, r3, r2
    3f3c:	15812024 	strne	r2, [r1, #36]
    3f40:	11a0000c 	movne	r0, ip
    3f44:	e12fff1e 	bx	lr

00003f48 <dma_sdma_init>:
    3f48:	e280c823 	add	ip, r0, #2293760	; 0x230000
    3f4c:	e28cca02 	add	ip, ip, #8192	; 0x2000
    3f50:	e1a0040c 	lsl	r0, ip, #8
    3f54:	e2800004 	add	r0, r0, #4	; 0x4
    3f58:	e5903000 	ldr	r3, [r0]
    3f5c:	e3520801 	cmp	r2, #65536	; 0x10000
    3f60:	e3833001 	orr	r3, r3, #1	; 0x1
    3f64:	e5803000 	str	r3, [r0]
    3f68:	e92d4010 	push	{r4, lr}
    3f6c:	e3a03341 	mov	r3, #67108865	; 0x4000001
    3f70:	e1a0440c 	lsl	r4, ip, #8
    3f74:	e584300c 	str	r3, [r4, #12]
    3f78:	31a02802 	lslcc	r2, r2, #16
    3f7c:	31a0340c 	lslcc	r3, ip, #8
    3f80:	31a02822 	lsrcc	r2, r2, #16
    3f84:	32833010 	addcc	r3, r3, #16	; 0x10
    3f88:	35832000 	strcc	r2, [r3]
    3f8c:	23a00001 	movcs	r0, #1	; 0x1
    3f90:	35841014 	strcc	r1, [r4, #20]
    3f94:	33a00000 	movcc	r0, #0	; 0x0
    3f98:	e8bd8010 	pop	{r4, pc}

00003f9c <security_cke_control>:
    3f9c:	e59fc014 	ldr	ip, [pc, #20]	; 3fb8 <security_cke_control+0x1c>
    3fa0:	e3a02001 	mov	r2, #1	; 0x1
    3fa4:	e59c3000 	ldr	r3, [ip]
    3fa8:	e1c33012 	bic	r3, r3, r2, lsl r0
    3fac:	e1833011 	orr	r3, r3, r1, lsl r0
    3fb0:	e58c3000 	str	r3, [ip]
    3fb4:	e12fff1e 	bx	lr
    3fb8:	23202000 	.word	0x23202000

00003fbc <dma_reset>:
    3fbc:	e92d40f0 	push	{r4, r5, r6, r7, lr}
    3fc0:	e2800823 	add	r0, r0, #2293760	; 0x230000
    3fc4:	e2800a02 	add	r0, r0, #8192	; 0x2000
    3fc8:	e1a07400 	lsl	r7, r0, #8
    3fcc:	e3a03002 	mov	r3, #2	; 0x2
    3fd0:	e24dd004 	sub	sp, sp, #4	; 0x4
    3fd4:	e5873000 	str	r3, [r7]
    3fd8:	eb001e47 	bl	b8fc <get_ticks>
    3fdc:	e3a04e7d 	mov	r4, #2000	; 0x7d0
    3fe0:	e3a05000 	mov	r5, #0	; 0x0
    3fe4:	e0944000 	adds	r4, r4, r0
    3fe8:	e0a55001 	adc	r5, r5, r1
    3fec:	e5976000 	ldr	r6, [r7]
    3ff0:	ea000008 	b	4018 <dma_reset+0x5c>
    3ff4:	e5976000 	ldr	r6, [r7]
    3ff8:	eb001e3f 	bl	b8fc <get_ticks>
    3ffc:	e1510005 	cmp	r1, r5
    4000:	8a000002 	bhi	4010 <dma_reset+0x54>
    4004:	1a000003 	bne	4018 <dma_reset+0x5c>
    4008:	e1500004 	cmp	r0, r4
    400c:	9a000001 	bls	4018 <dma_reset+0x5c>
    4010:	e3a00001 	mov	r0, #1	; 0x1
    4014:	ea000002 	b	4024 <dma_reset+0x68>
    4018:	e3560000 	cmp	r6, #0	; 0x0
    401c:	1afffff4 	bne	3ff4 <dma_reset+0x38>
    4020:	e1a00006 	mov	r0, r6
    4024:	e28dd004 	add	sp, sp, #4	; 0x4
    4028:	e8bd80f0 	pop	{r4, r5, r6, r7, pc}

0000402c <sha1_value>:
    402c:	e92d4030 	push	{r4, r5, lr}
    4030:	e59f3054 	ldr	r3, [pc, #84]	; 408c <sha1_value+0x60>
    4034:	e1a05000 	mov	r5, r0
    4038:	e893000c 	ldm	r3, {r2, r3}
    403c:	e1823003 	orr	r3, r2, r3
    4040:	e24dd024 	sub	sp, sp, #36	; 0x24
    4044:	e3530000 	cmp	r3, #0	; 0x0
    4048:	13e00000 	mvnne	r0, #0	; 0x0
    404c:	1a00000c 	bne	4084 <sha1_value+0x58>
    4050:	e1a0000d 	mov	r0, sp
    4054:	eb0000d1 	bl	43a0 <hash_module_get_result>
    4058:	e3500000 	cmp	r0, #0	; 0x0
    405c:	e1a0400d 	mov	r4, sp
    4060:	13e00001 	mvnne	r0, #1	; 0x1
    4064:	1a000006 	bne	4084 <sha1_value+0x58>
    4068:	e1a0200d 	mov	r2, sp
    406c:	e7d23000 	ldrb	r3, [r2, r0]
    4070:	e7c53000 	strb	r3, [r5, r0]
    4074:	e2800001 	add	r0, r0, #1	; 0x1
    4078:	e3500014 	cmp	r0, #20	; 0x14
    407c:	1afffffa 	bne	406c <sha1_value+0x40>
    4080:	e3a00000 	mov	r0, #0	; 0x0
    4084:	e28dd024 	add	sp, sp, #36	; 0x24
    4088:	e8bd8030 	pop	{r4, r5, pc}
    408c:	3c00a150 	.word	0x3c00a150

00004090 <sha1_data>:
    4090:	e59f305c 	ldr	r3, [pc, #92]	; 40f4 <sha1_data+0x64>
    4094:	e92d4070 	push	{r4, r5, r6, lr}
    4098:	e1a06001 	mov	r6, r1
    409c:	e5931004 	ldr	r1, [r3, #4]
    40a0:	e1a04006 	mov	r4, r6
    40a4:	e3a05000 	mov	r5, #0	; 0x0
    40a8:	e1550001 	cmp	r5, r1
    40ac:	e593c000 	ldr	ip, [r3]
    40b0:	8a000002 	bhi	40c0 <sha1_data+0x30>
    40b4:	1a000003 	bne	40c8 <sha1_data+0x38>
    40b8:	e154000c 	cmp	r4, ip
    40bc:	9a000001 	bls	40c8 <sha1_data+0x38>
    40c0:	e3e00000 	mvn	r0, #0	; 0x0
    40c4:	e8bd8070 	pop	{r4, r5, r6, pc}
    40c8:	e1a0200c 	mov	r2, ip
    40cc:	e1a03001 	mov	r3, r1
    40d0:	e59fc01c 	ldr	ip, [pc, #28]	; 40f4 <sha1_data+0x64>
    40d4:	e0522004 	subs	r2, r2, r4
    40d8:	e0c33005 	sbc	r3, r3, r5
    40dc:	e1a01006 	mov	r1, r6
    40e0:	e88c000c 	stm	ip, {r2, r3}
    40e4:	eb000110 	bl	452c <hash_dma_transfer>
    40e8:	e3500000 	cmp	r0, #0	; 0x0
    40ec:	13e00001 	mvnne	r0, #1	; 0x1
    40f0:	e8bd8070 	pop	{r4, r5, r6, pc}
    40f4:	3c00a150 	.word	0x3c00a150

000040f8 <sha1_init>:
    40f8:	e1a03ea0 	lsr	r3, r0, #29
    40fc:	e1a0c180 	lsl	ip, r0, #3
    4100:	e92d4010 	push	{r4, lr}
    4104:	e59f403c 	ldr	r4, [pc, #60]	; 4148 <sha1_init+0x50>
    4108:	e1a0200c 	mov	r2, ip
    410c:	e1a01003 	mov	r1, r3
    4110:	e3a00001 	mov	r0, #1	; 0x1
    4114:	e5843004 	str	r3, [r4, #4]
    4118:	e584c000 	str	ip, [r4]
    411c:	eb0000e6 	bl	44bc <hash_module_init>
    4120:	e3500000 	cmp	r0, #0	; 0x0
    4124:	05942000 	ldreq	r2, [r4]
    4128:	05943004 	ldreq	r3, [r4, #4]
    412c:	01a021a2 	lsreq	r2, r2, #3
    4130:	01822e83 	orreq	r2, r2, r3, lsl #29
    4134:	01a031a3 	lsreq	r3, r3, #3
    4138:	13e00000 	mvnne	r0, #0	; 0x0
    413c:	05843004 	streq	r3, [r4, #4]
    4140:	05842000 	streq	r2, [r4]
    4144:	e8bd8010 	pop	{r4, pc}
    4148:	3c00a150 	.word	0x3c00a150

0000414c <sha256_value>:
    414c:	e52de004 	push	{lr}		; (str lr, [sp, #-4]!)
    4150:	e59f3028 	ldr	r3, [pc, #40]	; 4180 <sha256_value+0x34>
    4154:	e24dd004 	sub	sp, sp, #4	; 0x4
    4158:	e893000c 	ldm	r3, {r2, r3}
    415c:	e1823003 	orr	r3, r2, r3
    4160:	e3530000 	cmp	r3, #0	; 0x0
    4164:	13e00000 	mvnne	r0, #0	; 0x0
    4168:	1a000002 	bne	4178 <sha256_value+0x2c>
    416c:	eb00008b 	bl	43a0 <hash_module_get_result>
    4170:	e3500000 	cmp	r0, #0	; 0x0
    4174:	13e00001 	mvnne	r0, #1	; 0x1
    4178:	e28dd004 	add	sp, sp, #4	; 0x4
    417c:	e8bd8000 	pop	{pc}
    4180:	3c00a158 	.word	0x3c00a158

00004184 <sha256_data>:
    4184:	e59f305c 	ldr	r3, [pc, #92]	; 41e8 <sha256_data+0x64>
    4188:	e92d4070 	push	{r4, r5, r6, lr}
    418c:	e1a06001 	mov	r6, r1
    4190:	e5931004 	ldr	r1, [r3, #4]
    4194:	e1a04006 	mov	r4, r6
    4198:	e3a05000 	mov	r5, #0	; 0x0
    419c:	e1550001 	cmp	r5, r1
    41a0:	e593c000 	ldr	ip, [r3]
    41a4:	8a000002 	bhi	41b4 <sha256_data+0x30>
    41a8:	1a000003 	bne	41bc <sha256_data+0x38>
    41ac:	e154000c 	cmp	r4, ip
    41b0:	9a000001 	bls	41bc <sha256_data+0x38>
    41b4:	e3e00000 	mvn	r0, #0	; 0x0
    41b8:	e8bd8070 	pop	{r4, r5, r6, pc}
    41bc:	e1a0200c 	mov	r2, ip
    41c0:	e1a03001 	mov	r3, r1
    41c4:	e59fc01c 	ldr	ip, [pc, #28]	; 41e8 <sha256_data+0x64>
    41c8:	e0522004 	subs	r2, r2, r4
    41cc:	e0c33005 	sbc	r3, r3, r5
    41d0:	e1a01006 	mov	r1, r6
    41d4:	e88c000c 	stm	ip, {r2, r3}
    41d8:	eb0000d3 	bl	452c <hash_dma_transfer>
    41dc:	e3500000 	cmp	r0, #0	; 0x0
    41e0:	13e00001 	mvnne	r0, #1	; 0x1
    41e4:	e8bd8070 	pop	{r4, r5, r6, pc}
    41e8:	3c00a158 	.word	0x3c00a158

000041ec <sha256_init>:
    41ec:	e1a03ea0 	lsr	r3, r0, #29
    41f0:	e1a0c180 	lsl	ip, r0, #3
    41f4:	e92d4010 	push	{r4, lr}
    41f8:	e59f403c 	ldr	r4, [pc, #60]	; 423c <sha256_init+0x50>
    41fc:	e1a0200c 	mov	r2, ip
    4200:	e1a01003 	mov	r1, r3
    4204:	e3a00003 	mov	r0, #3	; 0x3
    4208:	e5843004 	str	r3, [r4, #4]
    420c:	e584c000 	str	ip, [r4]
    4210:	eb0000a9 	bl	44bc <hash_module_init>
    4214:	e3500000 	cmp	r0, #0	; 0x0
    4218:	05942000 	ldreq	r2, [r4]
    421c:	05943004 	ldreq	r3, [r4, #4]
    4220:	01a021a2 	lsreq	r2, r2, #3
    4224:	01822e83 	orreq	r2, r2, r3, lsl #29
    4228:	01a031a3 	lsreq	r3, r3, #3
    422c:	13e00000 	mvnne	r0, #0	; 0x0
    4230:	05843004 	streq	r3, [r4, #4]
    4234:	05842000 	streq	r2, [r4]
    4238:	e8bd8010 	pop	{r4, pc}
    423c:	3c00a158 	.word	0x3c00a158

00004240 <crc32_init>:
    4240:	e59f300c 	ldr	r3, [pc, #12]	; 4254 <crc32_init+0x14>
    4244:	e3e02000 	mvn	r2, #0	; 0x0
    4248:	e5832000 	str	r2, [r3]
    424c:	e3a00000 	mov	r0, #0	; 0x0
    4250:	e12fff1e 	bx	lr
    4254:	3c00a160 	.word	0x3c00a160

00004258 <crc32_data>:
    4258:	e59f311c 	ldr	r3, [pc, #284]	; 437c <crc32_data+0x124>
    425c:	e92d41f0 	push	{r4, r5, r6, r7, r8, lr}
    4260:	e593c000 	ldr	ip, [r3]
    4264:	e1a08000 	mov	r8, r0
    4268:	e1a06001 	mov	r6, r1
    426c:	e1a04000 	mov	r4, r0
    4270:	e1a07001 	mov	r7, r1
    4274:	e59f5104 	ldr	r5, [pc, #260]	; 4380 <crc32_data+0x128>
    4278:	ea000027 	b	431c <crc32_data+0xc4>
    427c:	e5543008 	ldrb	r3, [r4, #-8]
    4280:	e5542007 	ldrb	r2, [r4, #-7]
    4284:	e02c3003 	eor	r3, ip, r3
    4288:	e20330ff 	and	r3, r3, #255	; 0xff
    428c:	e7953103 	ldr	r3, [r5, r3, lsl #2]
    4290:	e5541006 	ldrb	r1, [r4, #-6]
    4294:	e023342c 	eor	r3, r3, ip, lsr #8
    4298:	e0232002 	eor	r2, r3, r2
    429c:	e20220ff 	and	r2, r2, #255	; 0xff
    42a0:	e7952102 	ldr	r2, [r5, r2, lsl #2]
    42a4:	e5540005 	ldrb	r0, [r4, #-5]
    42a8:	e0222423 	eor	r2, r2, r3, lsr #8
    42ac:	e0221001 	eor	r1, r2, r1
    42b0:	e20110ff 	and	r1, r1, #255	; 0xff
    42b4:	e7953101 	ldr	r3, [r5, r1, lsl #2]
    42b8:	e5541004 	ldrb	r1, [r4, #-4]
    42bc:	e0233422 	eor	r3, r3, r2, lsr #8
    42c0:	e0230000 	eor	r0, r3, r0
    42c4:	e20000ff 	and	r0, r0, #255	; 0xff
    42c8:	e7952100 	ldr	r2, [r5, r0, lsl #2]
    42cc:	e5540003 	ldrb	r0, [r4, #-3]
    42d0:	e0222423 	eor	r2, r2, r3, lsr #8
    42d4:	e0221001 	eor	r1, r2, r1
    42d8:	e20110ff 	and	r1, r1, #255	; 0xff
    42dc:	e7953101 	ldr	r3, [r5, r1, lsl #2]
    42e0:	e554c002 	ldrb	ip, [r4, #-2]
    42e4:	e0233422 	eor	r3, r3, r2, lsr #8
    42e8:	e0230000 	eor	r0, r3, r0
    42ec:	e20000ff 	and	r0, r0, #255	; 0xff
    42f0:	e7952100 	ldr	r2, [r5, r0, lsl #2]
    42f4:	e5541001 	ldrb	r1, [r4, #-1]
    42f8:	e0222423 	eor	r2, r2, r3, lsr #8
    42fc:	e022c00c 	eor	ip, r2, ip
    4300:	e20cc0ff 	and	ip, ip, #255	; 0xff
    4304:	e795310c 	ldr	r3, [r5, ip, lsl #2]
    4308:	e0233422 	eor	r3, r3, r2, lsr #8
    430c:	e0231001 	eor	r1, r3, r1
    4310:	e20110ff 	and	r1, r1, #255	; 0xff
    4314:	e7952101 	ldr	r2, [r5, r1, lsl #2]
    4318:	e022c423 	eor	ip, r2, r3, lsr #8
    431c:	e3570007 	cmp	r7, #7	; 0x7
    4320:	e2844008 	add	r4, r4, #8	; 0x8
    4324:	e2477008 	sub	r7, r7, #8	; 0x8
    4328:	8affffd3 	bhi	427c <crc32_data+0x24>
    432c:	e3c63007 	bic	r3, r6, #7	; 0x7
    4330:	e0880003 	add	r0, r8, r3
    4334:	e59f3040 	ldr	r3, [pc, #64]	; 437c <crc32_data+0x124>
    4338:	e2161007 	ands	r1, r6, #7	; 0x7
    433c:	e583c000 	str	ip, [r3]
    4340:	0a00000b 	beq	4374 <crc32_data+0x11c>
    4344:	e59f4034 	ldr	r4, [pc, #52]	; 4380 <crc32_data+0x128>
    4348:	e3a02000 	mov	r2, #0	; 0x0
    434c:	e7d03002 	ldrb	r3, [r0, r2]
    4350:	e2822001 	add	r2, r2, #1	; 0x1
    4354:	e02c3003 	eor	r3, ip, r3
    4358:	e20330ff 	and	r3, r3, #255	; 0xff
    435c:	e7943103 	ldr	r3, [r4, r3, lsl #2]
    4360:	e1510002 	cmp	r1, r2
    4364:	e023c42c 	eor	ip, r3, ip, lsr #8
    4368:	1afffff7 	bne	434c <crc32_data+0xf4>
    436c:	e59f3008 	ldr	r3, [pc, #8]	; 437c <crc32_data+0x124>
    4370:	e583c000 	str	ip, [r3]
    4374:	e3a00000 	mov	r0, #0	; 0x0
    4378:	e8bd81f0 	pop	{r4, r5, r6, r7, r8, pc}
    437c:	3c00a160 	.word	0x3c00a160
    4380:	00017ddc 	.word	0x00017ddc

00004384 <crc32_value>:
    4384:	e59f3010 	ldr	r3, [pc, #16]	; 439c <crc32_value+0x18>
    4388:	e5933000 	ldr	r3, [r3]
    438c:	e1e03003 	mvn	r3, r3
    4390:	e5803000 	str	r3, [r0]
    4394:	e3a00000 	mov	r0, #0	; 0x0
    4398:	e12fff1e 	bx	lr
    439c:	3c00a160 	.word	0x3c00a160

000043a0 <hash_module_get_result>:
    43a0:	e92d41f0 	push	{r4, r5, r6, r7, r8, lr}
    43a4:	e1a08000 	mov	r8, r0
    43a8:	eb001d53 	bl	b8fc <get_ticks>
    43ac:	e3a04e7d 	mov	r4, #2000	; 0x7d0
    43b0:	e59f3088 	ldr	r3, [pc, #136]	; 4440 <hash_module_get_result+0xa0>
    43b4:	e3a05000 	mov	r5, #0	; 0x0
    43b8:	e0944000 	adds	r4, r4, r0
    43bc:	e0a55001 	adc	r5, r5, r1
    43c0:	e1a07003 	mov	r7, r3
    43c4:	e593680c 	ldr	r6, [r3, #2060]
    43c8:	ea000008 	b	43f0 <hash_module_get_result+0x50>
    43cc:	e597680c 	ldr	r6, [r7, #2060]
    43d0:	eb001d49 	bl	b8fc <get_ticks>
    43d4:	e1510005 	cmp	r1, r5
    43d8:	8a000002 	bhi	43e8 <hash_module_get_result+0x48>
    43dc:	1a000003 	bne	43f0 <hash_module_get_result+0x50>
    43e0:	e1500004 	cmp	r0, r4
    43e4:	9a000001 	bls	43f0 <hash_module_get_result+0x50>
    43e8:	e3a00001 	mov	r0, #1	; 0x1
    43ec:	e8bd81f0 	pop	{r4, r5, r6, r7, r8, pc}
    43f0:	e3160001 	tst	r6, #1	; 0x1
    43f4:	0afffff4 	beq	43cc <hash_module_get_result+0x2c>
    43f8:	e59f0044 	ldr	r0, [pc, #68]	; 4444 <hash_module_get_result+0xa4>
    43fc:	e59fc044 	ldr	ip, [pc, #68]	; 4448 <hash_module_get_result+0xa8>
    4400:	e1a03000 	mov	r3, r0
    4404:	e6931008 	ldr	r1, [r3], r8
    4408:	e59f203c 	ldr	r2, [pc, #60]	; 444c <hash_module_get_result+0xac>
    440c:	e2800004 	add	r0, r0, #4	; 0x4
    4410:	e0832002 	add	r2, r3, r2
    4414:	e150000c 	cmp	r0, ip
    4418:	e5821000 	str	r1, [r2]
    441c:	1afffff7 	bne	4400 <hash_module_get_result+0x60>
    4420:	e59f2018 	ldr	r2, [pc, #24]	; 4440 <hash_module_get_result+0xa0>
    4424:	e3a03001 	mov	r3, #1	; 0x1
    4428:	e582380c 	str	r3, [r2, #2060]
    442c:	e5923800 	ldr	r3, [r2, #2048]
    4430:	e3a00000 	mov	r0, #0	; 0x0
    4434:	e3c33080 	bic	r3, r3, #128	; 0x80
    4438:	e5823800 	str	r3, [r2, #2048]
    443c:	e8bd81f0 	pop	{r4, r5, r6, r7, r8, pc}
    4440:	23200000 	.word	0x23200000
    4444:	23200858 	.word	0x23200858
    4448:	23200878 	.word	0x23200878
    444c:	dcdff7a8 	.word	0xdcdff7a8

00004450 <hash_module_clear>:
    4450:	e92d40f0 	push	{r4, r5, r6, r7, lr}
    4454:	e59f405c 	ldr	r4, [pc, #92]	; 44b8 <hash_module_clear+0x68>
    4458:	e3a03002 	mov	r3, #2	; 0x2
    445c:	e5843800 	str	r3, [r4, #2048]
    4460:	e24dd004 	sub	sp, sp, #4	; 0x4
    4464:	eb001d24 	bl	b8fc <get_ticks>
    4468:	e3a06e7d 	mov	r6, #2000	; 0x7d0
    446c:	e3a07000 	mov	r7, #0	; 0x0
    4470:	e0966000 	adds	r6, r6, r0
    4474:	e1a05004 	mov	r5, r4
    4478:	e0a77001 	adc	r7, r7, r1
    447c:	e5944800 	ldr	r4, [r4, #2048]
    4480:	ea000008 	b	44a8 <hash_module_clear+0x58>
    4484:	e5954800 	ldr	r4, [r5, #2048]
    4488:	eb001d1b 	bl	b8fc <get_ticks>
    448c:	e1510007 	cmp	r1, r7
    4490:	8a000002 	bhi	44a0 <hash_module_clear+0x50>
    4494:	1a000003 	bne	44a8 <hash_module_clear+0x58>
    4498:	e1500006 	cmp	r0, r6
    449c:	9a000001 	bls	44a8 <hash_module_clear+0x58>
    44a0:	e3a00001 	mov	r0, #1	; 0x1
    44a4:	ea000001 	b	44b0 <hash_module_clear+0x60>
    44a8:	e2140002 	ands	r0, r4, #2	; 0x2
    44ac:	1afffff4 	bne	4484 <hash_module_clear+0x34>
    44b0:	e28dd004 	add	sp, sp, #4	; 0x4
    44b4:	e8bd80f0 	pop	{r4, r5, r6, r7, pc}
    44b8:	23200000 	.word	0x23200000

000044bc <hash_module_init>:
    44bc:	e92d40f0 	push	{r4, r5, r6, r7, lr}
    44c0:	e59f4060 	ldr	r4, [pc, #96]	; 4528 <hash_module_init+0x6c>
    44c4:	e24dd004 	sub	sp, sp, #4	; 0x4
    44c8:	e5943800 	ldr	r3, [r4, #2048]
    44cc:	e1a05000 	mov	r5, r0
    44d0:	e3c33080 	bic	r3, r3, #128	; 0x80
    44d4:	e5843800 	str	r3, [r4, #2048]
    44d8:	e1a07001 	mov	r7, r1
    44dc:	e1a06002 	mov	r6, r2
    44e0:	ebffffda 	bl	4450 <hash_module_clear>
    44e4:	e3500000 	cmp	r0, #0	; 0x0
    44e8:	13a00001 	movne	r0, #1	; 0x1
    44ec:	1a00000b 	bne	4520 <hash_module_init+0x64>
    44f0:	e3a03001 	mov	r3, #1	; 0x1
    44f4:	e1a02185 	lsl	r2, r5, #3
    44f8:	e5843804 	str	r3, [r4, #2052]
    44fc:	e5842800 	str	r2, [r4, #2048]
    4500:	e5847814 	str	r7, [r4, #2068]
    4504:	e5846810 	str	r6, [r4, #2064]
    4508:	e5943800 	ldr	r3, [r4, #2048]
    450c:	e3833080 	orr	r3, r3, #128	; 0x80
    4510:	e5843800 	str	r3, [r4, #2048]
    4514:	e5943800 	ldr	r3, [r4, #2048]
    4518:	e3833004 	orr	r3, r3, #4	; 0x4
    451c:	e5843800 	str	r3, [r4, #2048]
    4520:	e28dd004 	add	sp, sp, #4	; 0x4
    4524:	e8bd80f0 	pop	{r4, r5, r6, r7, pc}
    4528:	23200000 	.word	0x23200000

0000452c <hash_dma_transfer>:
    452c:	e92d4ff0 	push	{r4, r5, r6, r7, r8, r9, sl, fp, lr}
    4530:	e1a08001 	mov	r8, r1
    4534:	e24dd004 	sub	sp, sp, #4	; 0x4
    4538:	e1a09000 	mov	r9, r0
    453c:	e1a06001 	mov	r6, r1
    4540:	e59fa090 	ldr	sl, [pc, #144]	; 45d8 <hash_dma_transfer+0xac>
    4544:	e3a0b000 	mov	fp, #0	; 0x0
    4548:	ea00001b 	b	45bc <hash_dma_transfer+0x90>
    454c:	e3560902 	cmp	r6, #32768	; 0x8000
    4550:	b1a07006 	movlt	r7, r6
    4554:	a3a07902 	movge	r7, #32768	; 0x8000
    4558:	e0661008 	rsb	r1, r6, r8
    455c:	e0891001 	add	r1, r9, r1
    4560:	e3a00002 	mov	r0, #2	; 0x2
    4564:	e1a02007 	mov	r2, r7
    4568:	ebfffe76 	bl	3f48 <dma_sdma_init>
    456c:	e3500000 	cmp	r0, #0	; 0x0
    4570:	1a000015 	bne	45cc <hash_dma_transfer+0xa0>
    4574:	e2800002 	add	r0, r0, #2	; 0x2
    4578:	ebfffe62 	bl	3f08 <dma_start>
    457c:	eb001cde 	bl	b8fc <get_ticks>
    4580:	e090400a 	adds	r4, r0, sl
    4584:	e0a1500b 	adc	r5, r1, fp
    4588:	ea000005 	b	45a4 <hash_dma_transfer+0x78>
    458c:	eb001cda 	bl	b8fc <get_ticks>
    4590:	e1510005 	cmp	r1, r5
    4594:	8a00000c 	bhi	45cc <hash_dma_transfer+0xa0>
    4598:	1a000001 	bne	45a4 <hash_dma_transfer+0x78>
    459c:	e1500004 	cmp	r0, r4
    45a0:	8a000009 	bhi	45cc <hash_dma_transfer+0xa0>
    45a4:	e3a01003 	mov	r1, #3	; 0x3
    45a8:	e3a00002 	mov	r0, #2	; 0x2
    45ac:	ebfffe5b 	bl	3f20 <dma_get_status>
    45b0:	e3500000 	cmp	r0, #0	; 0x0
    45b4:	0afffff4 	beq	458c <hash_dma_transfer+0x60>
    45b8:	e0676006 	rsb	r6, r7, r6
    45bc:	e3560000 	cmp	r6, #0	; 0x0
    45c0:	1affffe1 	bne	454c <hash_dma_transfer+0x20>
    45c4:	e1a00006 	mov	r0, r6
    45c8:	ea000000 	b	45d0 <hash_dma_transfer+0xa4>
    45cc:	e3a00001 	mov	r0, #1	; 0x1
    45d0:	e28dd004 	add	sp, sp, #4	; 0x4
    45d4:	e8bd8ff0 	pop	{r4, r5, r6, r7, r8, r9, sl, fp, pc}
    45d8:	000f4240 	.word	0x000f4240

000045dc <cdbg_log_toggle>:
    45dc:	e59f3014 	ldr	r3, [pc, #20]	; 45f8 <cdbg_log_toggle+0x1c>
    45e0:	e3500000 	cmp	r0, #0	; 0x0
    45e4:	e59f2010 	ldr	r2, [pc, #16]	; 45fc <cdbg_log_toggle+0x20>
    45e8:	01a02003 	moveq	r2, r3
    45ec:	e59f300c 	ldr	r3, [pc, #12]	; 4600 <cdbg_log_toggle+0x24>
    45f0:	e5832000 	str	r2, [r3]
    45f4:	e12fff1e 	bx	lr
    45f8:	000150d4 	.word	0x000150d4
    45fc:	00015158 	.word	0x00015158
    4600:	3c00a94c 	.word	0x3c00a94c

00004604 <cdbg_wipe_bootarea>:
    4604:	e59f3018 	ldr	r3, [pc, #24]	; 4624 <cdbg_wipe_bootarea+0x20>
    4608:	e59f1018 	ldr	r1, [pc, #24]	; 4628 <cdbg_wipe_bootarea+0x24>
    460c:	e59f2018 	ldr	r2, [pc, #24]	; 462c <cdbg_wipe_bootarea+0x28>
    4610:	e5031004 	str	r1, [r3, #-4]
    4614:	e2833004 	add	r3, r3, #4	; 0x4
    4618:	e1530002 	cmp	r3, r2
    461c:	1afffffb 	bne	4610 <cdbg_wipe_bootarea+0xc>
    4620:	e12fff1e 	bx	lr
    4624:	3c000004 	.word	0x3c000004
    4628:	eafffffe 	.word	0xeafffffe
    462c:	3c008004 	.word	0x3c008004

00004630 <cdbg_dram_enabled>:
    4630:	e59f3004 	ldr	r3, [pc, #4]	; 463c <cdbg_dram_enabled+0xc>
    4634:	e5930000 	ldr	r0, [r3]
    4638:	e12fff1e 	bx	lr
    463c:	3c00a130 	.word	0x3c00a130

00004640 <cdbg_verify_burn>:
    4640:	e59f3004 	ldr	r3, [pc, #4]	; 464c <cdbg_verify_burn+0xc>
    4644:	e5930000 	ldr	r0, [r3]
    4648:	e12fff1e 	bx	lr
    464c:	3c00a168 	.word	0x3c00a168

00004650 <cdbg_verify_burn_key>:
    4650:	e59f0000 	ldr	r0, [pc, #0]	; 4658 <cdbg_verify_burn_key+0x8>
    4654:	e12fff1e 	bx	lr
    4658:	3c00a16c 	.word	0x3c00a16c

0000465c <cdbg_boot_redirect>:
    465c:	e59f301c 	ldr	r3, [pc, #28]	; 4680 <cdbg_boot_redirect+0x24>
    4660:	e5933000 	ldr	r3, [r3]
    4664:	e3730001 	cmn	r3, #1	; 0x1
    4668:	15803000 	strne	r3, [r0]
    466c:	159f3010 	ldrne	r3, [pc, #16]	; 4684 <cdbg_boot_redirect+0x28>
    4670:	15932000 	ldrne	r2, [r3]
    4674:	11a03fc2 	asrne	r3, r2, #31
    4678:	1881000c 	stmne	r1, {r2, r3}
    467c:	e12fff1e 	bx	lr
    4680:	3c00a020 	.word	0x3c00a020
    4684:	3c00a164 	.word	0x3c00a164

00004688 <cdbg_verify_burn_enable>:
    4688:	e3500000 	cmp	r0, #0	; 0x0
    468c:	e59f3018 	ldr	r3, [pc, #24]	; 46ac <cdbg_verify_burn_enable+0x24>
    4690:	03a02000 	moveq	r2, #0	; 0x0
    4694:	13a02001 	movne	r2, #1	; 0x1
    4698:	e5832000 	str	r2, [r3]
    469c:	012fff1e 	bxeq	lr
    46a0:	e59f0008 	ldr	r0, [pc, #8]	; 46b0 <cdbg_verify_burn_enable+0x28>
    46a4:	e3a02020 	mov	r2, #32	; 0x20
    46a8:	eafff3c4 	b	15c0 <memcpy>
    46ac:	3c00a168 	.word	0x3c00a168
    46b0:	3c00a16c 	.word	0x3c00a16c

000046b4 <cdbg_jump>:
    46b4:	e3700107 	cmn	r0, #-1073741823	; 0xc0000001
    46b8:	e92d4010 	push	{r4, lr}
    46bc:	e1a04000 	mov	r4, r0
    46c0:	9a000009 	bls	46ec <cdbg_jump+0x38>
    46c4:	e59f3044 	ldr	r3, [pc, #68]	; 4710 <cdbg_jump+0x5c>
    46c8:	e5933000 	ldr	r3, [r3]
    46cc:	e3530000 	cmp	r3, #0	; 0x0
    46d0:	1a000005 	bne	46ec <cdbg_jump+0x38>
    46d4:	e59f0038 	ldr	r0, [pc, #56]	; 4714 <cdbg_jump+0x60>
    46d8:	e59f3038 	ldr	r3, [pc, #56]	; 4718 <cdbg_jump+0x64>
    46dc:	e1a0e00f 	mov	lr, pc
    46e0:	e593f000 	ldr	pc, [r3]
    46e4:	e3e00000 	mvn	r0, #0	; 0x0
    46e8:	e8bd8010 	pop	{r4, pc}
    46ec:	ebfffc4c 	bl	3824 <ss_lock_isk>
    46f0:	e59f0024 	ldr	r0, [pc, #36]	; 471c <cdbg_jump+0x68>
    46f4:	e1a01004 	mov	r1, r4
    46f8:	e59f3018 	ldr	r3, [pc, #24]	; 4718 <cdbg_jump+0x64>
    46fc:	e1a0e00f 	mov	lr, pc
    4700:	e593f000 	ldr	pc, [r3]
    4704:	e3000bb8 	movw	r0, #3000	; 0xbb8
    4708:	eb001c8c 	bl	b940 <udelay>
    470c:	e12fff34 	blx	r4
    4710:	3c00a130 	.word	0x3c00a130
    4714:	00019437 	.word	0x00019437
    4718:	3c00a94c 	.word	0x3c00a94c
    471c:	00019451 	.word	0x00019451

00004720 <cdbg_restore_os>:
    4720:	e92d4010 	push	{r4, lr}
    4724:	ebfff201 	bl	f30 <get_wakeup_entry>
    4728:	e59f3018 	ldr	r3, [pc, #24]	; 4748 <cdbg_restore_os+0x28>
    472c:	e1a04000 	mov	r4, r0
    4730:	e59f0014 	ldr	r0, [pc, #20]	; 474c <cdbg_restore_os+0x2c>
    4734:	e1a0e00f 	mov	lr, pc
    4738:	e593f000 	ldr	pc, [r3]
    473c:	e1a00004 	mov	r0, r4
    4740:	e8bd4010 	pop	{r4, lr}
    4744:	eaffffda 	b	46b4 <cdbg_jump>
    4748:	3c00a94c 	.word	0x3c00a94c
    474c:	00019461 	.word	0x00019461

00004750 <cdbg_get_pp>:
    4750:	e92d4070 	push	{r4, r5, r6, lr}
    4754:	e24dd008 	sub	sp, sp, #8	; 0x8
    4758:	e1a0000d 	mov	r0, sp
    475c:	e59f103c 	ldr	r1, [pc, #60]	; 47a0 <cdbg_get_pp+0x50>
    4760:	e3a02008 	mov	r2, #8	; 0x8
    4764:	ebfff395 	bl	15c0 <memcpy>
    4768:	e1a0400d 	mov	r4, sp
    476c:	e1a0600d 	mov	r6, sp
    4770:	ea000004 	b	4788 <cdbg_get_pp+0x38>
    4774:	eb004295 	bl	151d0 <getc>
    4778:	e1500004 	cmp	r0, r4
    477c:	e2854001 	add	r4, r5, #1	; 0x1
    4780:	e1a05006 	mov	r5, r6
    4784:	1a000000 	bne	478c <cdbg_get_pp+0x3c>
    4788:	e1a05004 	mov	r5, r4
    478c:	e5d54000 	ldrb	r4, [r5]
    4790:	e3540000 	cmp	r4, #0	; 0x0
    4794:	1afffff6 	bne	4774 <cdbg_get_pp+0x24>
    4798:	e28dd008 	add	sp, sp, #8	; 0x8
    479c:	e8bd8070 	pop	{r4, r5, r6, pc}
    47a0:	00018542 	.word	0x00018542

000047a4 <cdbg_shell>:
    47a4:	e92d4010 	push	{r4, lr}
    47a8:	ebfffc1d 	bl	3824 <ss_lock_isk>
    47ac:	e59f3048 	ldr	r3, [pc, #72]	; 47fc <cdbg_shell+0x58>
    47b0:	e59f1048 	ldr	r1, [pc, #72]	; 4800 <cdbg_shell+0x5c>
    47b4:	e59f2048 	ldr	r2, [pc, #72]	; 4804 <cdbg_shell+0x60>
    47b8:	e5031004 	str	r1, [r3, #-4]
    47bc:	e2833004 	add	r3, r3, #4	; 0x4
    47c0:	e1530002 	cmp	r3, r2
    47c4:	1afffffb 	bne	47b8 <cdbg_shell+0x14>
    47c8:	e3a00001 	mov	r0, #1	; 0x1
    47cc:	eb004a59 	bl	17138 <ss_jtag_en>
    47d0:	e59f4030 	ldr	r4, [pc, #48]	; 4808 <cdbg_shell+0x64>
    47d4:	e59f3030 	ldr	r3, [pc, #48]	; 480c <cdbg_shell+0x68>
    47d8:	e59f0030 	ldr	r0, [pc, #48]	; 4810 <cdbg_shell+0x6c>
    47dc:	e5843000 	str	r3, [r4]
    47e0:	eb00425c 	bl	15158 <printf_on>
    47e4:	ebffffd9 	bl	4750 <cdbg_get_pp>
    47e8:	e59f0024 	ldr	r0, [pc, #36]	; 4814 <cdbg_shell+0x70>
    47ec:	e1a0e00f 	mov	lr, pc
    47f0:	e594f000 	ldr	pc, [r4]
    47f4:	eb004560 	bl	15d7c <main_loop>
    47f8:	eafffffd 	b	47f4 <cdbg_shell+0x50>
    47fc:	3c000004 	.word	0x3c000004
    4800:	eafffffe 	.word	0xeafffffe
    4804:	3c008004 	.word	0x3c008004
    4808:	3c00a94c 	.word	0x3c00a94c
    480c:	00015158 	.word	0x00015158
    4810:	00019470 	.word	0x00019470
    4814:	00019475 	.word	0x00019475

00004818 <cdbg_do_config>:
    4818:	e92d41f0 	push	{r4, r5, r6, r7, r8, lr}
    481c:	e3510000 	cmp	r1, #0	; 0x0
    4820:	e24dd008 	sub	sp, sp, #8	; 0x8
    4824:	e1a04000 	mov	r4, r0
    4828:	0a000034 	beq	4900 <cdbg_do_config+0xe8>
    482c:	e5901000 	ldr	r1, [r0]
    4830:	e59f31a4 	ldr	r3, [pc, #420]	; 49dc <cdbg_do_config+0x1c4>
    4834:	e1510003 	cmp	r1, r3
    4838:	0a000005 	beq	4854 <cdbg_do_config+0x3c>
    483c:	e59f019c 	ldr	r0, [pc, #412]	; 49e0 <cdbg_do_config+0x1c8>
    4840:	e59f319c 	ldr	r3, [pc, #412]	; 49e4 <cdbg_do_config+0x1cc>
    4844:	e1a0e00f 	mov	lr, pc
    4848:	e593f000 	ldr	pc, [r3]
    484c:	e3e00000 	mvn	r0, #0	; 0x0
    4850:	ea00005f 	b	49d4 <cdbg_do_config+0x1bc>
    4854:	e3a06000 	mov	r6, #0	; 0x0
    4858:	e590500c 	ldr	r5, [r0, #12]
    485c:	e3a01050 	mov	r1, #80	; 0x50
    4860:	e580600c 	str	r6, [r0, #12]
    4864:	e1a00006 	mov	r0, r6
    4868:	ebfffd3a 	bl	3d58 <hash_init>
    486c:	e28d8004 	add	r8, sp, #4	; 0x4
    4870:	e3a01050 	mov	r1, #80	; 0x50
    4874:	e1a00004 	mov	r0, r4
    4878:	ebfffd18 	bl	3ce0 <hash_data>
    487c:	e1a00008 	mov	r0, r8
    4880:	ebfffcf8 	bl	3c68 <hash_value>
    4884:	e59d2004 	ldr	r2, [sp, #4]
    4888:	e59f7154 	ldr	r7, [pc, #340]	; 49e4 <cdbg_do_config+0x1cc>
    488c:	e1550002 	cmp	r5, r2
    4890:	e584500c 	str	r5, [r4, #12]
    4894:	0a000005 	beq	48b0 <cdbg_do_config+0x98>
    4898:	e59f0148 	ldr	r0, [pc, #328]	; 49e8 <cdbg_do_config+0x1d0>
    489c:	e1a01005 	mov	r1, r5
    48a0:	e1a0e00f 	mov	lr, pc
    48a4:	e597f000 	ldr	pc, [r7]
    48a8:	e3e00001 	mvn	r0, #1	; 0x1
    48ac:	ea000048 	b	49d4 <cdbg_do_config+0x1bc>
    48b0:	e59f0134 	ldr	r0, [pc, #308]	; 49ec <cdbg_do_config+0x1d4>
    48b4:	e1a0e00f 	mov	lr, pc
    48b8:	e597f000 	ldr	pc, [r7]
    48bc:	e5941004 	ldr	r1, [r4, #4]
    48c0:	e1a00006 	mov	r0, r6
    48c4:	ebfffd23 	bl	3d58 <hash_init>
    48c8:	e5941004 	ldr	r1, [r4, #4]
    48cc:	e2840050 	add	r0, r4, #80	; 0x50
    48d0:	ebfffd02 	bl	3ce0 <hash_data>
    48d4:	e1a00008 	mov	r0, r8
    48d8:	ebfffce2 	bl	3c68 <hash_value>
    48dc:	e5941008 	ldr	r1, [r4, #8]
    48e0:	e59d2004 	ldr	r2, [sp, #4]
    48e4:	e1510002 	cmp	r1, r2
    48e8:	0a000004 	beq	4900 <cdbg_do_config+0xe8>
    48ec:	e59f00fc 	ldr	r0, [pc, #252]	; 49f0 <cdbg_do_config+0x1d8>
    48f0:	e1a0e00f 	mov	lr, pc
    48f4:	e597f000 	ldr	pc, [r7]
    48f8:	e3e00002 	mvn	r0, #2	; 0x2
    48fc:	ea000034 	b	49d4 <cdbg_do_config+0x1bc>
    4900:	e5940020 	ldr	r0, [r4, #32]
    4904:	e3500000 	cmp	r0, #0	; 0x0
    4908:	0a000000 	beq	4910 <cdbg_do_config+0xf8>
    490c:	eb001e85 	bl	c328 <spi_set_bytes>
    4910:	e5940028 	ldr	r0, [r4, #40]
    4914:	e3700001 	cmn	r0, #1	; 0x1
    4918:	0a000000 	beq	4920 <cdbg_do_config+0x108>
    491c:	ebffef6e 	bl	6dc <set_xom>
    4920:	e5940024 	ldr	r0, [r4, #36]
    4924:	e3700001 	cmn	r0, #1	; 0x1
    4928:	0a000000 	beq	4930 <cdbg_do_config+0x118>
    492c:	ebfff2a0 	bl	13b4 <set_mux>
    4930:	e594102c 	ldr	r1, [r4, #44]
    4934:	e3710001 	cmn	r1, #1	; 0x1
    4938:	159f20b4 	ldrne	r2, [pc, #180]	; 49f4 <cdbg_do_config+0x1dc>
    493c:	15943040 	ldrne	r3, [r4, #64]
    4940:	15821000 	strne	r1, [r2]
    4944:	159f20ac 	ldrne	r2, [pc, #172]	; 49f8 <cdbg_do_config+0x1e0>
    4948:	15823000 	strne	r3, [r2]
    494c:	e5943010 	ldr	r3, [r4, #16]
    4950:	e3530000 	cmp	r3, #0	; 0x0
    4954:	0a000006 	beq	4974 <cdbg_do_config+0x15c>
    4958:	e5940044 	ldr	r0, [r4, #68]
    495c:	e0840000 	add	r0, r4, r0
    4960:	ebffefd3 	bl	8b4 <set_clk>
    4964:	e59f0090 	ldr	r0, [pc, #144]	; 49fc <cdbg_do_config+0x1e4>
    4968:	e59f3074 	ldr	r3, [pc, #116]	; 49e4 <cdbg_do_config+0x1cc>
    496c:	e1a0e00f 	mov	lr, pc
    4970:	e593f000 	ldr	pc, [r3]
    4974:	e5943014 	ldr	r3, [r4, #20]
    4978:	e3530000 	cmp	r3, #0	; 0x0
    497c:	0a000006 	beq	499c <cdbg_do_config+0x184>
    4980:	e59f2078 	ldr	r2, [pc, #120]	; 4a00 <cdbg_do_config+0x1e8>
    4984:	e3a03001 	mov	r3, #1	; 0x1
    4988:	e5823000 	str	r3, [r2]
    498c:	e59f0070 	ldr	r0, [pc, #112]	; 4a04 <cdbg_do_config+0x1ec>
    4990:	e59f304c 	ldr	r3, [pc, #76]	; 49e4 <cdbg_do_config+0x1cc>
    4994:	e1a0e00f 	mov	lr, pc
    4998:	e593f000 	ldr	pc, [r3]
    499c:	e5943018 	ldr	r3, [r4, #24]
    49a0:	e3530000 	cmp	r3, #0	; 0x0
    49a4:	0a000009 	beq	49d0 <cdbg_do_config+0x1b8>
    49a8:	e594004c 	ldr	r0, [r4, #76]
    49ac:	e594101c 	ldr	r1, [r4, #28]
    49b0:	e0840000 	add	r0, r4, r0
    49b4:	eb00137e 	bl	97b4 <nand_rescan_config>
    49b8:	e3500000 	cmp	r0, #0	; 0x0
    49bc:	ba000003 	blt	49d0 <cdbg_do_config+0x1b8>
    49c0:	e59f0040 	ldr	r0, [pc, #64]	; 4a08 <cdbg_do_config+0x1f0>
    49c4:	e59f3018 	ldr	r3, [pc, #24]	; 49e4 <cdbg_do_config+0x1cc>
    49c8:	e1a0e00f 	mov	lr, pc
    49cc:	e593f000 	ldr	pc, [r3]
    49d0:	e3a00000 	mov	r0, #0	; 0x0
    49d4:	e28dd008 	add	sp, sp, #8	; 0x8
    49d8:	e8bd81f0 	pop	{r4, r5, r6, r7, r8, pc}
    49dc:	69780800 	.word	0x69780800
    49e0:	00019486 	.word	0x00019486
    49e4:	3c00a94c 	.word	0x3c00a94c
    49e8:	000194a0 	.word	0x000194a0
    49ec:	000194c8 	.word	0x000194c8
    49f0:	000194e5 	.word	0x000194e5
    49f4:	3c00a020 	.word	0x3c00a020
    49f8:	3c00a164 	.word	0x3c00a164
    49fc:	0001950d 	.word	0x0001950d
    4a00:	3c00a130 	.word	0x3c00a130
    4a04:	0001951f 	.word	0x0001951f
    4a08:	00019531 	.word	0x00019531

00004a0c <cdbg_config_isi>:
    4a0c:	e92d4030 	push	{r4, r5, lr}
    4a10:	e24dd004 	sub	sp, sp, #4	; 0x4
    4a14:	e1a05000 	mov	r5, r0
    4a18:	ebfff4ab 	bl	1ccc <isi_check>
    4a1c:	e2504000 	subs	r4, r0, #0	; 0x0
    4a20:	0a000005 	beq	4a3c <cdbg_config_isi+0x30>
    4a24:	e59f0058 	ldr	r0, [pc, #88]	; 4a84 <cdbg_config_isi+0x78>
    4a28:	e1a01004 	mov	r1, r4
    4a2c:	e59f3054 	ldr	r3, [pc, #84]	; 4a88 <cdbg_config_isi+0x7c>
    4a30:	e1a0e00f 	mov	lr, pc
    4a34:	e593f000 	ldr	pc, [r3]
    4a38:	ea00000e 	b	4a78 <cdbg_config_isi+0x6c>
    4a3c:	e5953004 	ldr	r3, [r5, #4]
    4a40:	e3c334ff 	bic	r3, r3, #-16777216	; 0xff000000
    4a44:	e3530002 	cmp	r3, #2	; 0x2
    4a48:	0a000005 	beq	4a64 <cdbg_config_isi+0x58>
    4a4c:	e59f0038 	ldr	r0, [pc, #56]	; 4a8c <cdbg_config_isi+0x80>
    4a50:	e59f3030 	ldr	r3, [pc, #48]	; 4a88 <cdbg_config_isi+0x7c>
    4a54:	e1a0e00f 	mov	lr, pc
    4a58:	e593f000 	ldr	pc, [r3]
    4a5c:	e3e04022 	mvn	r4, #34	; 0x22
    4a60:	ea000004 	b	4a78 <cdbg_config_isi+0x6c>
    4a64:	e2850c02 	add	r0, r5, #512	; 0x200
    4a68:	e3a01001 	mov	r1, #1	; 0x1
    4a6c:	e28dd004 	add	sp, sp, #4	; 0x4
    4a70:	e8bd4030 	pop	{r4, r5, lr}
    4a74:	eaffff67 	b	4818 <cdbg_do_config>
    4a78:	e1a00004 	mov	r0, r4
    4a7c:	e28dd004 	add	sp, sp, #4	; 0x4
    4a80:	e8bd8030 	pop	{r4, r5, pc}
    4a84:	00019543 	.word	0x00019543
    4a88:	3c00a94c 	.word	0x3c00a94c
    4a8c:	0001955e 	.word	0x0001955e

00004a90 <burn_image_loop>:
    4a90:	e92d4ff0 	push	{r4, r5, r6, r7, r8, r9, sl, fp, lr}
    4a94:	e24dd04c 	sub	sp, sp, #76	; 0x4c
    4a98:	e59d7074 	ldr	r7, [sp, #116]
    4a9c:	e1a06000 	mov	r6, r0
    4aa0:	e3570000 	cmp	r7, #0	; 0x0
    4aa4:	e58d102c 	str	r1, [sp, #44]
    4aa8:	e58d2028 	str	r2, [sp, #40]
    4aac:	e58d3024 	str	r3, [sp, #36]
    4ab0:	1a00000c 	bne	4ae8 <burn_image_loop+0x58>
    4ab4:	e59f4484 	ldr	r4, [pc, #1156]	; 4f40 <burn_image_loop+0x4b0>
    4ab8:	e59f0484 	ldr	r0, [pc, #1156]	; 4f44 <burn_image_loop+0x4b4>
    4abc:	e3a0102c 	mov	r1, #44	; 0x2c
    4ac0:	e1a0e00f 	mov	lr, pc
    4ac4:	e594f000 	ldr	pc, [r4]
    4ac8:	e59f0478 	ldr	r0, [pc, #1144]	; 4f48 <burn_image_loop+0x4b8>
    4acc:	e59f1478 	ldr	r1, [pc, #1144]	; 4f4c <burn_image_loop+0x4bc>
    4ad0:	e1a0e00f 	mov	lr, pc
    4ad4:	e594f000 	ldr	pc, [r4]
    4ad8:	e59f0470 	ldr	r0, [pc, #1136]	; 4f50 <burn_image_loop+0x4c0>
    4adc:	e1a0e00f 	mov	lr, pc
    4ae0:	e594f000 	ldr	pc, [r4]
    4ae4:	eafffffe 	b	4ae4 <burn_image_loop+0x54>
    4ae8:	e59d002c 	ldr	r0, [sp, #44]
    4aec:	e59d1024 	ldr	r1, [sp, #36]
    4af0:	e1500001 	cmp	r0, r1
    4af4:	1a000005 	bne	4b10 <burn_image_loop+0x80>
    4af8:	e59f0454 	ldr	r0, [pc, #1108]	; 4f54 <burn_image_loop+0x4c4>
    4afc:	e59f343c 	ldr	r3, [pc, #1084]	; 4f40 <burn_image_loop+0x4b0>
    4b00:	e1a0e00f 	mov	lr, pc
    4b04:	e593f000 	ldr	pc, [r3]
    4b08:	e3e00001 	mvn	r0, #1	; 0x1
    4b0c:	ea000109 	b	4f38 <burn_image_loop+0x4a8>
    4b10:	e596e000 	ldr	lr, [r6]
    4b14:	e3a03000 	mov	r3, #0	; 0x0
    4b18:	e3e024ff 	mvn	r2, #-16777216	; 0xff000000
    4b1c:	e002200e 	and	r2, r2, lr
    4b20:	e1a01483 	lsl	r1, r3, #9
    4b24:	e1d600b8 	ldrh	r0, [r6, #8]
    4b28:	e1811ba2 	orr	r1, r1, r2, lsr #23
    4b2c:	e1a0c482 	lsl	ip, r2, #9
    4b30:	e1a03001 	mov	r3, r1
    4b34:	e3a02602 	mov	r2, #2097152	; 0x200000
    4b38:	e5961004 	ldr	r1, [r6, #4]
    4b3c:	e596600c 	ldr	r6, [r6, #12]
    4b40:	e09ca002 	adds	sl, ip, r2
    4b44:	e1a05000 	mov	r5, r0
    4b48:	e1a0b003 	mov	fp, r3
    4b4c:	e3a04000 	mov	r4, #0	; 0x0
    4b50:	e3a03000 	mov	r3, #0	; 0x0
    4b54:	e1a0ec2e 	lsr	lr, lr, #24
    4b58:	e59d0024 	ldr	r0, [sp, #36]
    4b5c:	e0abb003 	adc	fp, fp, r3
    4b60:	e1848001 	orr	r8, r4, r1
    4b64:	e58de030 	str	lr, [sp, #48]
    4b68:	e58d6034 	str	r6, [sp, #52]
    4b6c:	ebfffa34 	bl	3444 <vs_device_erasable>
    4b70:	e1500004 	cmp	r0, r4
    4b74:	e1a09005 	mov	r9, r5
    4b78:	0a000006 	beq	4b98 <burn_image_loop+0x108>
    4b7c:	e1a01004 	mov	r1, r4
    4b80:	e59d0024 	ldr	r0, [sp, #36]
    4b84:	ebfff9e2 	bl	3314 <vs_assign_by_id>
    4b88:	e1a00008 	mov	r0, r8
    4b8c:	e1a01005 	mov	r1, r5
    4b90:	e59d2070 	ldr	r2, [sp, #112]
    4b94:	ebfff989 	bl	31c0 <vs_erase>
    4b98:	e59d002c 	ldr	r0, [sp, #44]
    4b9c:	e3a01001 	mov	r1, #1	; 0x1
    4ba0:	ebfff9db 	bl	3314 <vs_assign_by_id>
    4ba4:	e59d2030 	ldr	r2, [sp, #48]
    4ba8:	e2423002 	sub	r3, r2, #2	; 0x2
    4bac:	e3530001 	cmp	r3, #1	; 0x1
    4bb0:	8a000018 	bhi	4c18 <burn_image_loop+0x188>
    4bb4:	e59dc028 	ldr	ip, [sp, #40]
    4bb8:	e3a01c02 	mov	r1, #512	; 0x200
    4bbc:	e1a0200a 	mov	r2, sl
    4bc0:	e1a0300b 	mov	r3, fp
    4bc4:	e1a00007 	mov	r0, r7
    4bc8:	e88d1002 	stm	sp, {r1, ip}
    4bcc:	ebfffa7d 	bl	35c8 <vs_read>
    4bd0:	e1a00007 	mov	r0, r7
    4bd4:	ebfff3e1 	bl	1b60 <isi_check_header>
    4bd8:	e2504000 	subs	r4, r0, #0	; 0x0
    4bdc:	1a00000d 	bne	4c18 <burn_image_loop+0x188>
    4be0:	e5973004 	ldr	r3, [r7, #4]
    4be4:	e1b03e23 	lsrs	r3, r3, #28
    4be8:	0a00000a 	beq	4c18 <burn_image_loop+0x188>
    4bec:	e59f0364 	ldr	r0, [pc, #868]	; 4f58 <burn_image_loop+0x4c8>
    4bf0:	e59f3348 	ldr	r3, [pc, #840]	; 4f40 <burn_image_loop+0x4b0>
    4bf4:	e1a0e00f 	mov	lr, pc
    4bf8:	e593f000 	ldr	pc, [r3]
    4bfc:	e1a01004 	mov	r1, r4
    4c00:	e3a00001 	mov	r0, #1	; 0x1
    4c04:	e59f2350 	ldr	r2, [pc, #848]	; 4f5c <burn_image_loop+0x4cc>
    4c08:	ebfffb30 	bl	38d0 <ss_aes_init>
    4c0c:	e3a00001 	mov	r0, #1	; 0x1
    4c10:	e58d0040 	str	r0, [sp, #64]
    4c14:	ea000001 	b	4c20 <burn_image_loop+0x190>
    4c18:	e3a01000 	mov	r1, #0	; 0x0
    4c1c:	e58d1040 	str	r1, [sp, #64]
    4c20:	e59d2030 	ldr	r2, [sp, #48]
    4c24:	e3520005 	cmp	r2, #5	; 0x5
    4c28:	159d6034 	ldrne	r6, [sp, #52]
    4c2c:	13a05901 	movne	r5, #16384	; 0x4000
    4c30:	1a000010 	bne	4c78 <burn_image_loop+0x1e8>
    4c34:	e59d0024 	ldr	r0, [sp, #36]
    4c38:	ebfff99c 	bl	32b0 <vs_align>
    4c3c:	e1a04000 	mov	r4, r0
    4c40:	e59d0034 	ldr	r0, [sp, #52]
    4c44:	eb000db5 	bl	8320 <fnd_size_shrink>
    4c48:	e1a06000 	mov	r6, r0
    4c4c:	e59d0034 	ldr	r0, [sp, #52]
    4c50:	eb000da4 	bl	82e8 <fnd_size_match>
    4c54:	e3500000 	cmp	r0, #0	; 0x0
    4c58:	11a05004 	movne	r5, r4
    4c5c:	1a000005 	bne	4c78 <burn_image_loop+0x1e8>
    4c60:	e59f02f8 	ldr	r0, [pc, #760]	; 4f60 <burn_image_loop+0x4d0>
    4c64:	e59f32d4 	ldr	r3, [pc, #724]	; 4f40 <burn_image_loop+0x4b0>
    4c68:	e1a0e00f 	mov	lr, pc
    4c6c:	e593f000 	ldr	pc, [r3]
    4c70:	e3e00000 	mvn	r0, #0	; 0x0
    4c74:	ea0000af 	b	4f38 <burn_image_loop+0x4a8>
    4c78:	e59d0024 	ldr	r0, [sp, #36]
    4c7c:	e59f12e0 	ldr	r1, [pc, #736]	; 4f64 <burn_image_loop+0x4d4>
    4c80:	ebfffa37 	bl	3564 <vs_is_device>
    4c84:	e3500000 	cmp	r0, #0	; 0x0
    4c88:	1a000009 	bne	4cb4 <burn_image_loop+0x224>
    4c8c:	e59d0024 	ldr	r0, [sp, #36]
    4c90:	e59f12d0 	ldr	r1, [pc, #720]	; 4f68 <burn_image_loop+0x4d8>
    4c94:	ebfffa32 	bl	3564 <vs_is_device>
    4c98:	e3500000 	cmp	r0, #0	; 0x0
    4c9c:	1a000004 	bne	4cb4 <burn_image_loop+0x224>
    4ca0:	e59d0024 	ldr	r0, [sp, #36]
    4ca4:	e59f12c0 	ldr	r1, [pc, #704]	; 4f6c <burn_image_loop+0x4dc>
    4ca8:	ebfffa2d 	bl	3564 <vs_is_device>
    4cac:	e3500000 	cmp	r0, #0	; 0x0
    4cb0:	0a000013 	beq	4d04 <burn_image_loop+0x274>
    4cb4:	e59d0024 	ldr	r0, [sp, #36]
    4cb8:	e59f12ac 	ldr	r1, [pc, #684]	; 4f6c <burn_image_loop+0x4dc>
    4cbc:	ebfffa28 	bl	3564 <vs_is_device>
    4cc0:	e3500000 	cmp	r0, #0	; 0x0
    4cc4:	03a00001 	moveq	r0, #1	; 0x1
    4cc8:	0a000003 	beq	4cdc <burn_image_loop+0x24c>
    4ccc:	e59d3034 	ldr	r3, [sp, #52]
    4cd0:	e3a00000 	mov	r0, #0	; 0x0
    4cd4:	e3530902 	cmp	r3, #32768	; 0x8000
    4cd8:	33a06902 	movcc	r6, #32768	; 0x8000
    4cdc:	eb000d49 	bl	8208 <nand_get_config>
    4ce0:	e3500000 	cmp	r0, #0	; 0x0
    4ce4:	1590001c 	ldrne	r0, [r0, #28]
    4ce8:	1a000005 	bne	4d04 <burn_image_loop+0x274>
    4cec:	e59f027c 	ldr	r0, [pc, #636]	; 4f70 <burn_image_loop+0x4e0>
    4cf0:	e59f3248 	ldr	r3, [pc, #584]	; 4f40 <burn_image_loop+0x4b0>
    4cf4:	e1a0e00f 	mov	lr, pc
    4cf8:	e593f000 	ldr	pc, [r3]
    4cfc:	e3e00033 	mvn	r0, #51	; 0x33
    4d00:	ea00008c 	b	4f38 <burn_image_loop+0x4a8>
    4d04:	e58d0044 	str	r0, [sp, #68]
    4d08:	e59d1070 	ldr	r1, [sp, #112]
    4d0c:	e59f422c 	ldr	r4, [pc, #556]	; 4f40 <burn_image_loop+0x4b0>
    4d10:	e59f025c 	ldr	r0, [pc, #604]	; 4f74 <burn_image_loop+0x4e4>
    4d14:	e1a02005 	mov	r2, r5
    4d18:	e1a0e00f 	mov	lr, pc
    4d1c:	e594f000 	ldr	pc, [r4]
    4d20:	e59dc044 	ldr	ip, [sp, #68]
    4d24:	e58d6038 	str	r6, [sp, #56]
    4d28:	e24c3001 	sub	r3, ip, #1	; 0x1
    4d2c:	e1a00003 	mov	r0, r3
    4d30:	e1a01fc0 	asr	r1, r0, #31
    4d34:	e1cd01f8 	strd	r0, [sp, #24]
    4d38:	e59d1070 	ldr	r1, [sp, #112]
    4d3c:	e1a0200c 	mov	r2, ip
    4d40:	e1a03fc2 	asr	r3, r2, #31
    4d44:	e0661001 	rsb	r1, r6, r1
    4d48:	e58d103c 	str	r1, [sp, #60]
    4d4c:	e1a00005 	mov	r0, r5
    4d50:	e3a01000 	mov	r1, #0	; 0x0
    4d54:	e3a04000 	mov	r4, #0	; 0x0
    4d58:	e1cd21f0 	strd	r2, [sp, #16]
    4d5c:	e1cd00f8 	strd	r0, [sp, #8]
    4d60:	ea000071 	b	4f2c <burn_image_loop+0x49c>
    4d64:	e59d1038 	ldr	r1, [sp, #56]
    4d68:	e0663001 	rsb	r3, r6, r1
    4d6c:	e1b03a23 	lsrs	r3, r3, #20
    4d70:	0a000005 	beq	4d8c <burn_image_loop+0x2fc>
    4d74:	e59f01fc 	ldr	r0, [pc, #508]	; 4f78 <burn_image_loop+0x4e8>
    4d78:	e1a01a26 	lsr	r1, r6, #20
    4d7c:	e59f21bc 	ldr	r2, [pc, #444]	; 4f40 <burn_image_loop+0x4b0>
    4d80:	e1a0e00f 	mov	lr, pc
    4d84:	e592f000 	ldr	pc, [r2]
    4d88:	e58d6038 	str	r6, [sp, #56]
    4d8c:	e3540000 	cmp	r4, #0	; 0x0
    4d90:	d3a00000 	movle	r0, #0	; 0x0
    4d94:	c3a00001 	movgt	r0, #1	; 0x1
    4d98:	e2844001 	add	r4, r4, #1	; 0x1
    4d9c:	eb0024ad 	bl	e058 <led_ctrl>
    4da0:	e3540032 	cmp	r4, #50	; 0x32
    4da4:	e3a01000 	mov	r1, #0	; 0x0
    4da8:	e59d002c 	ldr	r0, [sp, #44]
    4dac:	c2444064 	subgt	r4, r4, #100	; 0x64
    4db0:	ebfff957 	bl	3314 <vs_assign_by_id>
    4db4:	e59d3030 	ldr	r3, [sp, #48]
    4db8:	e3530005 	cmp	r3, #5	; 0x5
    4dbc:	11a01005 	movne	r1, r5
    4dc0:	1a000001 	bne	4dcc <burn_image_loop+0x33c>
    4dc4:	eb000d3d 	bl	82c0 <fnd_align>
    4dc8:	e1a01000 	mov	r1, r0
    4dcc:	e59dc028 	ldr	ip, [sp, #40]
    4dd0:	e1a00007 	mov	r0, r7
    4dd4:	e1a0200a 	mov	r2, sl
    4dd8:	e1a0300b 	mov	r3, fp
    4ddc:	e88d1002 	stm	sp, {r1, ip}
    4de0:	ebfff9f8 	bl	35c8 <vs_read>
    4de4:	e59d0040 	ldr	r0, [sp, #64]
    4de8:	e3500000 	cmp	r0, #0	; 0x0
    4dec:	0a000003 	beq	4e00 <burn_image_loop+0x370>
    4df0:	e1a00007 	mov	r0, r7
    4df4:	e1a01007 	mov	r1, r7
    4df8:	e1a02005 	mov	r2, r5
    4dfc:	ebfffa99 	bl	3868 <ss_aes_data>
    4e00:	e59d0024 	ldr	r0, [sp, #36]
    4e04:	e3a01000 	mov	r1, #0	; 0x0
    4e08:	ebfff941 	bl	3314 <vs_assign_by_id>
    4e0c:	e3500000 	cmp	r0, #0	; 0x0
    4e10:	1a000030 	bne	4ed8 <burn_image_loop+0x448>
    4e14:	e59d1044 	ldr	r1, [sp, #68]
    4e18:	e3510000 	cmp	r1, #0	; 0x0
    4e1c:	0a000020 	beq	4ea4 <burn_image_loop+0x414>
    4e20:	e1cd01d8 	ldrd	r0, [sp, #24]
    4e24:	e0082000 	and	r2, r8, r0
    4e28:	e0093001 	and	r3, r9, r1
    4e2c:	e1921003 	orrs	r1, r2, r3
    4e30:	0a000013 	beq	4e84 <burn_image_loop+0x3f4>
    4e34:	ea00001a 	b	4ea4 <burn_image_loop+0x414>
    4e38:	e59dc03c 	ldr	ip, [sp, #60]
    4e3c:	e59d1044 	ldr	r1, [sp, #68]
    4e40:	e15c0001 	cmp	ip, r1
    4e44:	e061c00c 	rsb	ip, r1, ip
    4e48:	e58dc03c 	str	ip, [sp, #60]
    4e4c:	da000006 	ble	4e6c <burn_image_loop+0x3dc>
    4e50:	e59fc0e8 	ldr	ip, [pc, #232]	; 4f40 <burn_image_loop+0x4b0>
    4e54:	e1a0e00f 	mov	lr, pc
    4e58:	e59cf000 	ldr	pc, [ip]
    4e5c:	e1cd01d0 	ldrd	r0, [sp, #16]
    4e60:	e0988000 	adds	r8, r8, r0
    4e64:	e0a99001 	adc	r9, r9, r1
    4e68:	ea000005 	b	4e84 <burn_image_loop+0x3f4>
    4e6c:	e59f0108 	ldr	r0, [pc, #264]	; 4f7c <burn_image_loop+0x4ec>
    4e70:	e59f30c8 	ldr	r3, [pc, #200]	; 4f40 <burn_image_loop+0x4b0>
    4e74:	e1a0e00f 	mov	lr, pc
    4e78:	e593f000 	ldr	pc, [r3]
    4e7c:	e3e00034 	mvn	r0, #52	; 0x34
    4e80:	ea00002c 	b	4f38 <burn_image_loop+0x4a8>
    4e84:	e1a00008 	mov	r0, r8
    4e88:	e1a01009 	mov	r1, r9
    4e8c:	ebfff8da 	bl	31fc <vs_isbad>
    4e90:	e3500000 	cmp	r0, #0	; 0x0
    4e94:	e1a02008 	mov	r2, r8
    4e98:	e1a03009 	mov	r3, r9
    4e9c:	e59f00dc 	ldr	r0, [pc, #220]	; 4f80 <burn_image_loop+0x4f0>
    4ea0:	1affffe4 	bne	4e38 <burn_image_loop+0x3a8>
    4ea4:	e59d1030 	ldr	r1, [sp, #48]
    4ea8:	e3510005 	cmp	r1, #5	; 0x5
    4eac:	11a01005 	movne	r1, r5
    4eb0:	1a000001 	bne	4ebc <burn_image_loop+0x42c>
    4eb4:	eb000d01 	bl	82c0 <fnd_align>
    4eb8:	e1a01000 	mov	r1, r0
    4ebc:	e58d1000 	str	r1, [sp]
    4ec0:	e1a00007 	mov	r0, r7
    4ec4:	e3a01000 	mov	r1, #0	; 0x0
    4ec8:	e1a02008 	mov	r2, r8
    4ecc:	e1a03009 	mov	r3, r9
    4ed0:	e58d1004 	str	r1, [sp, #4]
    4ed4:	ebfff8a3 	bl	3168 <vs_write>
    4ed8:	e59d2030 	ldr	r2, [sp, #48]
    4edc:	e3520001 	cmp	r2, #1	; 0x1
    4ee0:	01a00005 	moveq	r0, r5
    4ee4:	01a02005 	moveq	r2, r5
    4ee8:	0a000005 	beq	4f04 <burn_image_loop+0x474>
    4eec:	e59d3030 	ldr	r3, [sp, #48]
    4ef0:	e3530005 	cmp	r3, #5	; 0x5
    4ef4:	11a00005 	movne	r0, r5
    4ef8:	1a000000 	bne	4f00 <burn_image_loop+0x470>
    4efc:	eb000cef 	bl	82c0 <fnd_align>
    4f00:	e3a02000 	mov	r2, #0	; 0x0
    4f04:	e1560005 	cmp	r6, r5
    4f08:	31a03006 	movcc	r3, r6
    4f0c:	21a03005 	movcs	r3, r5
    4f10:	e09aa000 	adds	sl, sl, r0
    4f14:	e2abb000 	adc	fp, fp, #0	; 0x0
    4f18:	e1cd00d8 	ldrd	r0, [sp, #8]
    4f1c:	e0988000 	adds	r8, r8, r0
    4f20:	e0877002 	add	r7, r7, r2
    4f24:	e0a99001 	adc	r9, r9, r1
    4f28:	e0636006 	rsb	r6, r3, r6
    4f2c:	e3560000 	cmp	r6, #0	; 0x0
    4f30:	1affff8b 	bne	4d64 <burn_image_loop+0x2d4>
    4f34:	e1a00006 	mov	r0, r6
    4f38:	e28dd04c 	add	sp, sp, #76	; 0x4c
    4f3c:	e8bd8ff0 	pop	{r4, r5, r6, r7, r8, r9, sl, fp, pc}
    4f40:	3c00a94c 	.word	0x3c00a94c
    4f44:	000193a2 	.word	0x000193a2
    4f48:	00018a5d 	.word	0x00018a5d
    4f4c:	00019571 	.word	0x00019571
    4f50:	00019578 	.word	0x00019578
    4f54:	0001958e 	.word	0x0001958e
    4f58:	00019a82 	.word	0x00019a82
    4f5c:	3c00a000 	.word	0x3c00a000
    4f60:	000195bb 	.word	0x000195bb
    4f64:	00018c89 	.word	0x00018c89
    4f68:	0001939e 	.word	0x0001939e
    4f6c:	000186e4 	.word	0x000186e4
    4f70:	000195d8 	.word	0x000195d8
    4f74:	000195f0 	.word	0x000195f0
    4f78:	000195ff 	.word	0x000195ff
    4f7c:	0001962b 	.word	0x0001962b
    4f80:	0001960c 	.word	0x0001960c

00004f84 <burn_images>:
    4f84:	e92d4ff0 	push	{r4, r5, r6, r7, r8, r9, sl, fp, lr}
    4f88:	e1a05000 	mov	r5, r0
    4f8c:	e24dd014 	sub	sp, sp, #20	; 0x14
    4f90:	e3a00901 	mov	r0, #16384	; 0x4000
    4f94:	e58d100c 	str	r1, [sp, #12]
    4f98:	e58d2008 	str	r2, [sp, #8]
    4f9c:	e595b01c 	ldr	fp, [r5, #28]
    4fa0:	ebfff1eb 	bl	1754 <malloc>
    4fa4:	e250a000 	subs	sl, r0, #0	; 0x0
    4fa8:	e59f41a8 	ldr	r4, [pc, #424]	; 5158 <burn_images+0x1d4>
    4fac:	1a000004 	bne	4fc4 <burn_images+0x40>
    4fb0:	e59f01a4 	ldr	r0, [pc, #420]	; 515c <burn_images+0x1d8>
    4fb4:	e1a0e00f 	mov	lr, pc
    4fb8:	e594f000 	ldr	pc, [r4]
    4fbc:	e3e04000 	mvn	r4, #0	; 0x0
    4fc0:	ea00005f 	b	5144 <burn_images+0x1c0>
    4fc4:	e59f0194 	ldr	r0, [pc, #404]	; 5160 <burn_images+0x1dc>
    4fc8:	e1a0100b 	mov	r1, fp
    4fcc:	e3a08000 	mov	r8, #0	; 0x0
    4fd0:	e1a0e00f 	mov	lr, pc
    4fd4:	e594f000 	ldr	pc, [r4]
    4fd8:	e2857020 	add	r7, r5, #32	; 0x20
    4fdc:	e1a09008 	mov	r9, r8
    4fe0:	ea000052 	b	5130 <burn_images+0x1ac>
    4fe4:	e59f0178 	ldr	r0, [pc, #376]	; 5164 <burn_images+0x1e0>
    4fe8:	e1a01008 	mov	r1, r8
    4fec:	e59f3164 	ldr	r3, [pc, #356]	; 5158 <burn_images+0x1d4>
    4ff0:	e1a0e00f 	mov	lr, pc
    4ff4:	e593f000 	ldr	pc, [r3]
    4ff8:	e5d76003 	ldrb	r6, [r7, #3]
    4ffc:	e5975008 	ldr	r5, [r7, #8]
    5000:	e3560005 	cmp	r6, #5	; 0x5
    5004:	979ff106 	ldrls	pc, [pc, r6, lsl #2]
    5008:	ea000016 	b	5068 <burn_images+0xe4>
    500c:	00005150 	.word	0x00005150
    5010:	0000504c 	.word	0x0000504c
    5014:	00005044 	.word	0x00005044
    5018:	00005024 	.word	0x00005024
    501c:	0000502c 	.word	0x0000502c
    5020:	00005034 	.word	0x00005034
    5024:	e59f013c 	ldr	r0, [pc, #316]	; 5168 <burn_images+0x1e4>
    5028:	ea000002 	b	5038 <burn_images+0xb4>
    502c:	e59f0138 	ldr	r0, [pc, #312]	; 516c <burn_images+0x1e8>
    5030:	ea000000 	b	5038 <burn_images+0xb4>
    5034:	e59f0134 	ldr	r0, [pc, #308]	; 5170 <burn_images+0x1ec>
    5038:	ebfff90d 	bl	3474 <vs_device_id>
    503c:	e1a04000 	mov	r4, r0
    5040:	ea00000e 	b	5080 <burn_images+0xfc>
    5044:	e1a04825 	lsr	r4, r5, #16
    5048:	ea00000c 	b	5080 <burn_images+0xfc>
    504c:	e59f0120 	ldr	r0, [pc, #288]	; 5174 <burn_images+0x1f0>
    5050:	e1a01005 	mov	r1, r5
    5054:	e59f30fc 	ldr	r3, [pc, #252]	; 5158 <burn_images+0x1d4>
    5058:	e1a09005 	mov	r9, r5
    505c:	e1a0e00f 	mov	lr, pc
    5060:	e593f000 	ldr	pc, [r3]
    5064:	ea000039 	b	5150 <burn_images+0x1cc>
    5068:	e59f0108 	ldr	r0, [pc, #264]	; 5178 <burn_images+0x1f4>
    506c:	e59f30e4 	ldr	r3, [pc, #228]	; 5158 <burn_images+0x1d4>
    5070:	e1a0e00f 	mov	lr, pc
    5074:	e593f000 	ldr	pc, [r3]
    5078:	e3e04003 	mvn	r4, #3	; 0x3
    507c:	ea00002e 	b	513c <burn_images+0x1b8>
    5080:	e354000f 	cmp	r4, #15	; 0xf
    5084:	0a00000a 	beq	50b4 <burn_images+0x130>
    5088:	e1a00004 	mov	r0, r4
    508c:	e3a01001 	mov	r1, #1	; 0x1
    5090:	ebfff89f 	bl	3314 <vs_assign_by_id>
    5094:	e3500000 	cmp	r0, #0	; 0x0
    5098:	0a000005 	beq	50b4 <burn_images+0x130>
    509c:	e59f00d8 	ldr	r0, [pc, #216]	; 517c <burn_images+0x1f8>
    50a0:	e59f30b0 	ldr	r3, [pc, #176]	; 5158 <burn_images+0x1d4>
    50a4:	e1a0e00f 	mov	lr, pc
    50a8:	e593f000 	ldr	pc, [r3]
    50ac:	e3e04002 	mvn	r4, #2	; 0x2
    50b0:	ea000021 	b	513c <burn_images+0x1b8>
    50b4:	e3560001 	cmp	r6, #1	; 0x1
    50b8:	e1a0c825 	lsr	ip, r5, #16
    50bc:	01a0e009 	moveq	lr, r9
    50c0:	11a0e00a 	movne	lr, sl
    50c4:	e1a0c80c 	lsl	ip, ip, #16
    50c8:	e1a03004 	mov	r3, r4
    50cc:	e1a00007 	mov	r0, r7
    50d0:	e59d100c 	ldr	r1, [sp, #12]
    50d4:	e59d2008 	ldr	r2, [sp, #8]
    50d8:	e88d5000 	stm	sp, {ip, lr}
    50dc:	ebfffe6b 	bl	4a90 <burn_image_loop>
    50e0:	e3500000 	cmp	r0, #0	; 0x0
    50e4:	aa000006 	bge	5104 <burn_images+0x180>
    50e8:	e1a01008 	mov	r1, r8
    50ec:	e59f008c 	ldr	r0, [pc, #140]	; 5180 <burn_images+0x1fc>
    50f0:	e59f3060 	ldr	r3, [pc, #96]	; 5158 <burn_images+0x1d4>
    50f4:	e1a0e00f 	mov	lr, pc
    50f8:	e593f000 	ldr	pc, [r3]
    50fc:	e3e04000 	mvn	r4, #0	; 0x0
    5100:	ea00000d 	b	513c <burn_images+0x1b8>
    5104:	e3560001 	cmp	r6, #1	; 0x1
    5108:	1a000002 	bne	5118 <burn_images+0x194>
    510c:	e5970004 	ldr	r0, [r7, #4]
    5110:	ebfffd67 	bl	46b4 <cdbg_jump>
    5114:	ea000003 	b	5128 <burn_images+0x1a4>
    5118:	e3560000 	cmp	r6, #0	; 0x0
    511c:	1a000001 	bne	5128 <burn_images+0x1a4>
    5120:	e1a0000a 	mov	r0, sl
    5124:	ebfffe38 	bl	4a0c <cdbg_config_isi>
    5128:	e2888001 	add	r8, r8, #1	; 0x1
    512c:	e2877010 	add	r7, r7, #16	; 0x10
    5130:	e158000b 	cmp	r8, fp
    5134:	baffffaa 	blt	4fe4 <burn_images+0x60>
    5138:	e3a04000 	mov	r4, #0	; 0x0
    513c:	e1a0000a 	mov	r0, sl
    5140:	ebfff1eb 	bl	18f4 <free>
    5144:	e1a00004 	mov	r0, r4
    5148:	e28dd014 	add	sp, sp, #20	; 0x14
    514c:	e8bd8ff0 	pop	{r4, r5, r6, r7, r8, r9, sl, fp, pc}
    5150:	e3a0400f 	mov	r4, #15	; 0xf
    5154:	eaffffd6 	b	50b4 <burn_images+0x130>
    5158:	3c00a94c 	.word	0x3c00a94c
    515c:	00019649 	.word	0x00019649
    5160:	0001966b 	.word	0x0001966b
    5164:	00019688 	.word	0x00019688
    5168:	000186e4 	.word	0x000186e4
    516c:	00018c89 	.word	0x00018c89
    5170:	0001939e 	.word	0x0001939e
    5174:	0001969e 	.word	0x0001969e
    5178:	000196bb 	.word	0x000196bb
    517c:	000196cf 	.word	0x000196cf
    5180:	000196ec 	.word	0x000196ec

00005184 <burn>:
    5184:	e92d4ff0 	push	{r4, r5, r6, r7, r8, r9, sl, fp, lr}
    5188:	e1a09000 	mov	r9, r0
    518c:	e24dd00c 	sub	sp, sp, #12	; 0xc
    5190:	e3a00c02 	mov	r0, #512	; 0x200
    5194:	ebfff16e 	bl	1754 <malloc>
    5198:	e2507000 	subs	r7, r0, #0	; 0x0
    519c:	1a000004 	bne	51b4 <burn+0x30>
    51a0:	e59f019c 	ldr	r0, [pc, #412]	; 5344 <burn+0x1c0>
    51a4:	e59f319c 	ldr	r3, [pc, #412]	; 5348 <burn+0x1c4>
    51a8:	e1a0e00f 	mov	lr, pc
    51ac:	e593f000 	ldr	pc, [r3]
    51b0:	ea000060 	b	5338 <burn+0x1b4>
    51b4:	ebffed71 	bl	780 <boot_device>
    51b8:	e3a05000 	mov	r5, #0	; 0x0
    51bc:	e3a0b001 	mov	fp, #1	; 0x1
    51c0:	e59f8180 	ldr	r8, [pc, #384]	; 5348 <burn+0x1c4>
    51c4:	e1a0a000 	mov	sl, r0
    51c8:	ea00004c 	b	5300 <burn+0x17c>
    51cc:	e1a00005 	mov	r0, r5
    51d0:	ebfff876 	bl	33b0 <vs_device_burnsrc>
    51d4:	e3500000 	cmp	r0, #0	; 0x0
    51d8:	0a000047 	beq	52fc <burn+0x178>
    51dc:	e155000a 	cmp	r5, sl
    51e0:	0a000045 	beq	52fc <burn+0x178>
    51e4:	e019351b 	ands	r3, r9, fp, lsl r5
    51e8:	1a000043 	bne	52fc <burn+0x178>
    51ec:	e1a00005 	mov	r0, r5
    51f0:	e59f1154 	ldr	r1, [pc, #340]	; 534c <burn+0x1c8>
    51f4:	ebfff8da 	bl	3564 <vs_is_device>
    51f8:	e3500000 	cmp	r0, #0	; 0x0
    51fc:	1a000004 	bne	5214 <burn+0x90>
    5200:	e1a00005 	mov	r0, r5
    5204:	e59f1144 	ldr	r1, [pc, #324]	; 5350 <burn+0x1cc>
    5208:	ebfff8d5 	bl	3564 <vs_is_device>
    520c:	e3500000 	cmp	r0, #0	; 0x0
    5210:	0a00000e 	beq	5250 <burn+0xcc>
    5214:	e1a00005 	mov	r0, r5
    5218:	e3a01000 	mov	r1, #0	; 0x0
    521c:	ebfff83c 	bl	3314 <vs_assign_by_id>
    5220:	e2506000 	subs	r6, r0, #0	; 0x0
    5224:	1a00000e 	bne	5264 <burn+0xe0>
    5228:	ebfff811 	bl	3274 <vs_special>
    522c:	e2506000 	subs	r6, r0, #0	; 0x0
    5230:	0a000038 	beq	5318 <burn+0x194>
    5234:	e1a00005 	mov	r0, r5
    5238:	e5984000 	ldr	r4, [r8]
    523c:	ebfff879 	bl	3428 <vs_device_name>
    5240:	e1a02006 	mov	r2, r6
    5244:	e1a01000 	mov	r1, r0
    5248:	e59f0104 	ldr	r0, [pc, #260]	; 5354 <burn+0x1d0>
    524c:	ea00000a 	b	527c <burn+0xf8>
    5250:	e1a00005 	mov	r0, r5
    5254:	e3a01001 	mov	r1, #1	; 0x1
    5258:	ebfff82d 	bl	3314 <vs_assign_by_id>
    525c:	e2506000 	subs	r6, r0, #0	; 0x0
    5260:	0a000007 	beq	5284 <burn+0x100>
    5264:	e1a00005 	mov	r0, r5
    5268:	e5984000 	ldr	r4, [r8]
    526c:	ebfff86d 	bl	3428 <vs_device_name>
    5270:	e1a01000 	mov	r1, r0
    5274:	e59f00dc 	ldr	r0, [pc, #220]	; 5358 <burn+0x1d4>
    5278:	e1a02006 	mov	r2, r6
    527c:	e12fff34 	blx	r4
    5280:	ea00001d 	b	52fc <burn+0x178>
    5284:	e1a01007 	mov	r1, r7
    5288:	e59f00cc 	ldr	r0, [pc, #204]	; 535c <burn+0x1d8>
    528c:	e3a02602 	mov	r2, #2097152	; 0x200000
    5290:	e3a03c02 	mov	r3, #512	; 0x200
    5294:	e58d6000 	str	r6, [sp]
    5298:	e1a0e00f 	mov	lr, pc
    529c:	e598f000 	ldr	pc, [r8]
    52a0:	e3a01c02 	mov	r1, #512	; 0x200
    52a4:	e3a02602 	mov	r2, #2097152	; 0x200000
    52a8:	e3a03000 	mov	r3, #0	; 0x0
    52ac:	e1a00007 	mov	r0, r7
    52b0:	e88d0042 	stm	sp, {r1, r6}
    52b4:	ebfff8c3 	bl	35c8 <vs_read>
    52b8:	e1a00007 	mov	r0, r7
    52bc:	eb003f3f 	bl	14fc0 <ius_check_header>
    52c0:	e2504000 	subs	r4, r0, #0	; 0x0
    52c4:	1a00000c 	bne	52fc <burn+0x178>
    52c8:	e1a01005 	mov	r1, r5
    52cc:	e59f3074 	ldr	r3, [pc, #116]	; 5348 <burn+0x1c4>
    52d0:	e59f0088 	ldr	r0, [pc, #136]	; 5360 <burn+0x1dc>
    52d4:	e1a0e00f 	mov	lr, pc
    52d8:	e593f000 	ldr	pc, [r3]
    52dc:	e1a00004 	mov	r0, r4
    52e0:	e1a01004 	mov	r1, r4
    52e4:	ebfffce7 	bl	4688 <cdbg_verify_burn_enable>
    52e8:	e1a00007 	mov	r0, r7
    52ec:	e1a01005 	mov	r1, r5
    52f0:	e1a02004 	mov	r2, r4
    52f4:	ebffff22 	bl	4f84 <burn_images>
    52f8:	ea000006 	b	5318 <burn+0x194>
    52fc:	e2855001 	add	r5, r5, #1	; 0x1
    5300:	ebfff859 	bl	346c <vs_device_count>
    5304:	e1550000 	cmp	r5, r0
    5308:	baffffaf 	blt	51cc <burn+0x48>
    530c:	e1a00007 	mov	r0, r7
    5310:	ebfff177 	bl	18f4 <free>
    5314:	ea000007 	b	5338 <burn+0x1b4>
    5318:	e59f0044 	ldr	r0, [pc, #68]	; 5364 <burn+0x1e0>
    531c:	e59f3024 	ldr	r3, [pc, #36]	; 5348 <burn+0x1c4>
    5320:	e1a0e00f 	mov	lr, pc
    5324:	e593f000 	ldr	pc, [r3]
    5328:	e1a00007 	mov	r0, r7
    532c:	ebfff170 	bl	18f4 <free>
    5330:	ebfffd1b 	bl	47a4 <cdbg_shell>
    5334:	eafffffe 	b	5334 <burn+0x1b0>
    5338:	e3e00000 	mvn	r0, #0	; 0x0
    533c:	e28dd00c 	add	sp, sp, #12	; 0xc
    5340:	e8bd8ff0 	pop	{r4, r5, r6, r7, r8, r9, sl, fp, pc}
    5344:	00019704 	.word	0x00019704
    5348:	3c00a94c 	.word	0x3c00a94c
    534c:	00019724 	.word	0x00019724
    5350:	00019728 	.word	0x00019728
    5354:	0001972c 	.word	0x0001972c
    5358:	00019749 	.word	0x00019749
    535c:	00019768 	.word	0x00019768
    5360:	00019798 	.word	0x00019798
    5364:	000197b0 	.word	0x000197b0

00005368 <eth_vs_align>:
    5368:	e3a00b01 	mov	r0, #1024	; 0x400
    536c:	e12fff1e 	bx	lr

00005370 <eth_vs_reset>:
    5370:	e92d4010 	push	{r4, lr}
    5374:	e3a00001 	mov	r0, #1	; 0x1
    5378:	eb000065 	bl	5514 <iuw_set_dev>
    537c:	eb000380 	bl	6184 <iuw_connect>
    5380:	e2504000 	subs	r4, r0, #0	; 0x0
    5384:	0a000004 	beq	539c <eth_vs_reset+0x2c>
    5388:	e59f0014 	ldr	r0, [pc, #20]	; 53a4 <eth_vs_reset+0x34>
    538c:	e1a01004 	mov	r1, r4
    5390:	e59f3010 	ldr	r3, [pc, #16]	; 53a8 <eth_vs_reset+0x38>
    5394:	e1a0e00f 	mov	lr, pc
    5398:	e593f000 	ldr	pc, [r3]
    539c:	e1a00004 	mov	r0, r4
    53a0:	e8bd8010 	pop	{r4, pc}
    53a4:	000197d3 	.word	0x000197d3
    53a8:	3c00a94c 	.word	0x3c00a94c

000053ac <eth_vs_special>:
    53ac:	e92d4010 	push	{r4, lr}
    53b0:	e3a00001 	mov	r0, #1	; 0x1
    53b4:	eb000056 	bl	5514 <iuw_set_dev>
    53b8:	eb000371 	bl	6184 <iuw_connect>
    53bc:	e2504000 	subs	r4, r0, #0	; 0x0
    53c0:	e59f3034 	ldr	r3, [pc, #52]	; 53fc <eth_vs_special+0x50>
    53c4:	0a000004 	beq	53dc <eth_vs_special+0x30>
    53c8:	e59f0030 	ldr	r0, [pc, #48]	; 5400 <eth_vs_special+0x54>
    53cc:	e1a01004 	mov	r1, r4
    53d0:	e1a0e00f 	mov	lr, pc
    53d4:	e593f000 	ldr	pc, [r3]
    53d8:	ea000005 	b	53f4 <eth_vs_special+0x48>
    53dc:	e59f0020 	ldr	r0, [pc, #32]	; 5404 <eth_vs_special+0x58>
    53e0:	e1a0e00f 	mov	lr, pc
    53e4:	e593f000 	ldr	pc, [r3]
    53e8:	eb0000fb 	bl	57dc <iuw_server>
    53ec:	e1a04000 	mov	r4, r0
    53f0:	eb00035b 	bl	6164 <iuw_close>
    53f4:	e1a00004 	mov	r0, r4
    53f8:	e8bd8010 	pop	{r4, pc}
    53fc:	3c00a94c 	.word	0x3c00a94c
    5400:	000197d3 	.word	0x000197d3
    5404:	000197f9 	.word	0x000197f9

00005408 <udc_vs_align>:
    5408:	e3a00b01 	mov	r0, #1024	; 0x400
    540c:	e12fff1e 	bx	lr

00005410 <udc_vs_reset>:
    5410:	e92d4010 	push	{r4, lr}
    5414:	e3a00000 	mov	r0, #0	; 0x0
    5418:	eb00003d 	bl	5514 <iuw_set_dev>
    541c:	eb000358 	bl	6184 <iuw_connect>
    5420:	e2504000 	subs	r4, r0, #0	; 0x0
    5424:	0a000004 	beq	543c <udc_vs_reset+0x2c>
    5428:	e59f0014 	ldr	r0, [pc, #20]	; 5444 <udc_vs_reset+0x34>
    542c:	e1a01004 	mov	r1, r4
    5430:	e59f3010 	ldr	r3, [pc, #16]	; 5448 <udc_vs_reset+0x38>
    5434:	e1a0e00f 	mov	lr, pc
    5438:	e593f000 	ldr	pc, [r3]
    543c:	e1a00004 	mov	r0, r4
    5440:	e8bd8010 	pop	{r4, pc}
    5444:	00019818 	.word	0x00019818
    5448:	3c00a94c 	.word	0x3c00a94c

0000544c <udc_vs_special>:
    544c:	e92d4010 	push	{r4, lr}
    5450:	e3a00000 	mov	r0, #0	; 0x0
    5454:	eb00002e 	bl	5514 <iuw_set_dev>
    5458:	eb000349 	bl	6184 <iuw_connect>
    545c:	e2504000 	subs	r4, r0, #0	; 0x0
    5460:	e59f3034 	ldr	r3, [pc, #52]	; 549c <udc_vs_special+0x50>
    5464:	0a000004 	beq	547c <udc_vs_special+0x30>
    5468:	e59f0030 	ldr	r0, [pc, #48]	; 54a0 <udc_vs_special+0x54>
    546c:	e1a01004 	mov	r1, r4
    5470:	e1a0e00f 	mov	lr, pc
    5474:	e593f000 	ldr	pc, [r3]
    5478:	ea000005 	b	5494 <udc_vs_special+0x48>
    547c:	e59f0020 	ldr	r0, [pc, #32]	; 54a4 <udc_vs_special+0x58>
    5480:	e1a0e00f 	mov	lr, pc
    5484:	e593f000 	ldr	pc, [r3]
    5488:	eb0000d3 	bl	57dc <iuw_server>
    548c:	e1a04000 	mov	r4, r0
    5490:	eb000333 	bl	6164 <iuw_close>
    5494:	e1a00004 	mov	r0, r4
    5498:	e8bd8010 	pop	{r4, pc}
    549c:	3c00a94c 	.word	0x3c00a94c
    54a0:	00019818 	.word	0x00019818
    54a4:	000197f9 	.word	0x000197f9

000054a8 <iuw_is_cmd>:
    54a8:	e52de004 	push	{lr}		; (str lr, [sp, #-4]!)
    54ac:	e5d03003 	ldrb	r3, [r0, #3]
    54b0:	e24dd004 	sub	sp, sp, #4	; 0x4
    54b4:	e35300aa 	cmp	r3, #170	; 0xaa
    54b8:	159f0048 	ldrne	r0, [pc, #72]	; 5508 <iuw_is_cmd+0x60>
    54bc:	1a00000b 	bne	54f0 <iuw_is_cmd+0x48>
    54c0:	e3a02000 	mov	r2, #0	; 0x0
    54c4:	e1a01002 	mov	r1, r2
    54c8:	e7d03002 	ldrb	r3, [r0, r2]
    54cc:	e2822001 	add	r2, r2, #1	; 0x1
    54d0:	e352001c 	cmp	r2, #28	; 0x1c
    54d4:	e0811003 	add	r1, r1, r3
    54d8:	1afffffa 	bne	54c8 <iuw_is_cmd+0x20>
    54dc:	e590301c 	ldr	r3, [r0, #28]
    54e0:	e1510003 	cmp	r1, r3
    54e4:	03a00001 	moveq	r0, #1	; 0x1
    54e8:	0a000004 	beq	5500 <iuw_is_cmd+0x58>
    54ec:	e59f0018 	ldr	r0, [pc, #24]	; 550c <iuw_is_cmd+0x64>
    54f0:	e59f3018 	ldr	r3, [pc, #24]	; 5510 <iuw_is_cmd+0x68>
    54f4:	e1a0e00f 	mov	lr, pc
    54f8:	e593f000 	ldr	pc, [r3]
    54fc:	e3a00000 	mov	r0, #0	; 0x0
    5500:	e28dd004 	add	sp, sp, #4	; 0x4
    5504:	e8bd8000 	pop	{pc}
    5508:	00019839 	.word	0x00019839
    550c:	00019856 	.word	0x00019856
    5510:	3c00a94c 	.word	0x3c00a94c

00005514 <iuw_set_dev>:
    5514:	e52de004 	push	{lr}		; (str lr, [sp, #-4]!)
    5518:	e3500001 	cmp	r0, #1	; 0x1
    551c:	e24dd004 	sub	sp, sp, #4	; 0x4
    5520:	e59f2048 	ldr	r2, [pc, #72]	; 5570 <iuw_set_dev+0x5c>
    5524:	8a00000b 	bhi	5558 <iuw_set_dev+0x44>
    5528:	e3a03003 	mov	r3, #3	; 0x3
    552c:	e0030093 	mul	r3, r3, r0
    5530:	e59f103c 	ldr	r1, [pc, #60]	; 5574 <iuw_set_dev+0x60>
    5534:	e0811183 	add	r1, r1, r3, lsl #3
    5538:	e59f3038 	ldr	r3, [pc, #56]	; 5578 <iuw_set_dev+0x64>
    553c:	e281100c 	add	r1, r1, #12	; 0xc
    5540:	e5830000 	str	r0, [r3]
    5544:	e59f0030 	ldr	r0, [pc, #48]	; 557c <iuw_set_dev+0x68>
    5548:	e1a0e00f 	mov	lr, pc
    554c:	e592f000 	ldr	pc, [r2]
    5550:	e3a00000 	mov	r0, #0	; 0x0
    5554:	ea000003 	b	5568 <iuw_set_dev+0x54>
    5558:	e59f0020 	ldr	r0, [pc, #32]	; 5580 <iuw_set_dev+0x6c>
    555c:	e1a0e00f 	mov	lr, pc
    5560:	e592f000 	ldr	pc, [r2]
    5564:	e3e00000 	mvn	r0, #0	; 0x0
    5568:	e28dd004 	add	sp, sp, #4	; 0x4
    556c:	e8bd8000 	pop	{pc}
    5570:	3c00a94c 	.word	0x3c00a94c
    5574:	000181dc 	.word	0x000181dc
    5578:	3c00a190 	.word	0x3c00a190
    557c:	00019876 	.word	0x00019876
    5580:	00019896 	.word	0x00019896

00005584 <init_iuw>:
    5584:	e59f300c 	ldr	r3, [pc, #12]	; 5598 <init_iuw+0x14>
    5588:	e3a02001 	mov	r2, #1	; 0x1
    558c:	e5832000 	str	r2, [r3]
    5590:	e3a00000 	mov	r0, #0	; 0x0
    5594:	e12fff1e 	bx	lr
    5598:	3c00a190 	.word	0x3c00a190

0000559c <iuw_local_rw>:
    559c:	e92d4010 	push	{r4, lr}
    55a0:	e59d100c 	ldr	r1, [sp, #12]
    55a4:	e1a04003 	mov	r4, r3
    55a8:	e3510015 	cmp	r1, #21	; 0x15
    55ac:	e1a03000 	mov	r3, r0
    55b0:	e59dc008 	ldr	ip, [sp, #8]
    55b4:	0a00001c 	beq	562c <iuw_local_rw+0x90>
    55b8:	ca00000c 	bgt	55f0 <iuw_local_rw+0x54>
    55bc:	e3510012 	cmp	r1, #18	; 0x12
    55c0:	0a000020 	beq	5648 <iuw_local_rw+0xac>
    55c4:	ca000004 	bgt	55dc <iuw_local_rw+0x40>
    55c8:	e3510010 	cmp	r1, #16	; 0x10
    55cc:	0a00001d 	beq	5648 <iuw_local_rw+0xac>
    55d0:	e3510011 	cmp	r1, #17	; 0x11
    55d4:	1a000031 	bne	56a0 <iuw_local_rw+0x104>
    55d8:	ea000013 	b	562c <iuw_local_rw+0x90>
    55dc:	e3510013 	cmp	r1, #19	; 0x13
    55e0:	0a000011 	beq	562c <iuw_local_rw+0x90>
    55e4:	e3510014 	cmp	r1, #20	; 0x14
    55e8:	1a00002c 	bne	56a0 <iuw_local_rw+0x104>
    55ec:	ea000015 	b	5648 <iuw_local_rw+0xac>
    55f0:	e3510021 	cmp	r1, #33	; 0x21
    55f4:	0a00001a 	beq	5664 <iuw_local_rw+0xc8>
    55f8:	ca000004 	bgt	5610 <iuw_local_rw+0x74>
    55fc:	e3510016 	cmp	r1, #22	; 0x16
    5600:	0a000010 	beq	5648 <iuw_local_rw+0xac>
    5604:	e3510020 	cmp	r1, #32	; 0x20
    5608:	1a000024 	bne	56a0 <iuw_local_rw+0x104>
    560c:	ea000016 	b	566c <iuw_local_rw+0xd0>
    5610:	e3510044 	cmp	r1, #68	; 0x44
    5614:	0a00001c 	beq	568c <iuw_local_rw+0xf0>
    5618:	e3510046 	cmp	r1, #70	; 0x46
    561c:	0a000017 	beq	5680 <iuw_local_rw+0xe4>
    5620:	e3510042 	cmp	r1, #66	; 0x42
    5624:	1a00001d 	bne	56a0 <iuw_local_rw+0x104>
    5628:	ea000017 	b	568c <iuw_local_rw+0xf0>
    562c:	e1a00003 	mov	r0, r3
    5630:	e3a01000 	mov	r1, #0	; 0x0
    5634:	e1a03004 	mov	r3, r4
    5638:	e58dc008 	str	ip, [sp, #8]
    563c:	e58d100c 	str	r1, [sp, #12]
    5640:	e8bd4010 	pop	{r4, lr}
    5644:	eafff7df 	b	35c8 <vs_read>
    5648:	e1a00003 	mov	r0, r3
    564c:	e3a01000 	mov	r1, #0	; 0x0
    5650:	e1a03004 	mov	r3, r4
    5654:	e58dc008 	str	ip, [sp, #8]
    5658:	e58d100c 	str	r1, [sp, #12]
    565c:	e8bd4010 	pop	{r4, lr}
    5660:	eafff6c0 	b	3168 <vs_write>
    5664:	e1a01002 	mov	r1, r2
    5668:	ea000001 	b	5674 <iuw_local_rw+0xd8>
    566c:	e1a00002 	mov	r0, r2
    5670:	e1a01003 	mov	r1, r3
    5674:	e1a0200c 	mov	r2, ip
    5678:	ebffefd0 	bl	15c0 <memcpy>
    567c:	ea00000b 	b	56b0 <iuw_local_rw+0x114>
    5680:	e1a0100c 	mov	r1, ip
    5684:	ebfff995 	bl	3ce0 <hash_data>
    5688:	ea000008 	b	56b0 <iuw_local_rw+0x114>
    568c:	e1a00003 	mov	r0, r3
    5690:	e1a0200c 	mov	r2, ip
    5694:	e2831a02 	add	r1, r3, #8192	; 0x2000
    5698:	ebfff872 	bl	3868 <ss_aes_data>
    569c:	ea000003 	b	56b0 <iuw_local_rw+0x114>
    56a0:	e59f0010 	ldr	r0, [pc, #16]	; 56b8 <iuw_local_rw+0x11c>
    56a4:	e59f3010 	ldr	r3, [pc, #16]	; 56bc <iuw_local_rw+0x120>
    56a8:	e1a0e00f 	mov	lr, pc
    56ac:	e593f000 	ldr	pc, [r3]
    56b0:	e3a00000 	mov	r0, #0	; 0x0
    56b4:	e8bd8010 	pop	{r4, pc}
    56b8:	000198ac 	.word	0x000198ac
    56bc:	3c00a94c 	.word	0x3c00a94c

000056c0 <iuw_send_cmd>:
    56c0:	e92d40f0 	push	{r4, r5, r6, r7, lr}
    56c4:	e59f3084 	ldr	r3, [pc, #132]	; 5750 <iuw_send_cmd+0x90>
    56c8:	e1a04000 	mov	r4, r0
    56cc:	e5937000 	ldr	r7, [r3]
    56d0:	e1a05001 	mov	r5, r1
    56d4:	e1a06002 	mov	r6, r2
    56d8:	e3a01000 	mov	r1, #0	; 0x0
    56dc:	e3a02020 	mov	r2, #32	; 0x20
    56e0:	e24dd004 	sub	sp, sp, #4	; 0x4
    56e4:	e1a00007 	mov	r0, r7
    56e8:	ebffefac 	bl	15a0 <memset>
    56ec:	e38444aa 	orr	r4, r4, #-1442840576	; 0xaa000000
    56f0:	e3a02000 	mov	r2, #0	; 0x0
    56f4:	e8870070 	stm	r7, {r4, r5, r6}
    56f8:	e1a01002 	mov	r1, r2
    56fc:	e7d73002 	ldrb	r3, [r7, r2]
    5700:	e2822001 	add	r2, r2, #1	; 0x1
    5704:	e352001c 	cmp	r2, #28	; 0x1c
    5708:	e0811003 	add	r1, r1, r3
    570c:	1afffffa 	bne	56fc <iuw_send_cmd+0x3c>
    5710:	e59f303c 	ldr	r3, [pc, #60]	; 5754 <iuw_send_cmd+0x94>
    5714:	e587101c 	str	r1, [r7, #28]
    5718:	e5932000 	ldr	r2, [r3]
    571c:	e59f1034 	ldr	r1, [pc, #52]	; 5758 <iuw_send_cmd+0x98>
    5720:	e3a03018 	mov	r3, #24	; 0x18
    5724:	e0221293 	mla	r2, r3, r2, r1
    5728:	e59f3020 	ldr	r3, [pc, #32]	; 5750 <iuw_send_cmd+0x90>
    572c:	e3a01020 	mov	r1, #32	; 0x20
    5730:	e5930000 	ldr	r0, [r3]
    5734:	e1a0e00f 	mov	lr, pc
    5738:	e592f008 	ldr	pc, [r2, #8]
    573c:	e3500000 	cmp	r0, #0	; 0x0
    5740:	b3e00000 	mvnlt	r0, #0	; 0x0
    5744:	a3a00000 	movge	r0, #0	; 0x0
    5748:	e28dd004 	add	sp, sp, #4	; 0x4
    574c:	e8bd80f0 	pop	{r4, r5, r6, r7, pc}
    5750:	3c00a18c 	.word	0x3c00a18c
    5754:	3c00a190 	.word	0x3c00a190
    5758:	000181dc 	.word	0x000181dc

0000575c <iuw_shake_hand>:
    575c:	e92d4010 	push	{r4, lr}
    5760:	e1a02001 	mov	r2, r1
    5764:	e1a01000 	mov	r1, r0
    5768:	e3a00002 	mov	r0, #2	; 0x2
    576c:	ebffffd3 	bl	56c0 <iuw_send_cmd>
    5770:	e59f3058 	ldr	r3, [pc, #88]	; 57d0 <iuw_shake_hand+0x74>
    5774:	e59f1058 	ldr	r1, [pc, #88]	; 57d4 <iuw_shake_hand+0x78>
    5778:	e5932000 	ldr	r2, [r3]
    577c:	e59f4054 	ldr	r4, [pc, #84]	; 57d8 <iuw_shake_hand+0x7c>
    5780:	e3a03018 	mov	r3, #24	; 0x18
    5784:	e0221293 	mla	r2, r3, r2, r1
    5788:	e5940000 	ldr	r0, [r4]
    578c:	e3a01020 	mov	r1, #32	; 0x20
    5790:	e1a0e00f 	mov	lr, pc
    5794:	e592f004 	ldr	pc, [r2, #4]
    5798:	e3500000 	cmp	r0, #0	; 0x0
    579c:	b8bd8010 	poplt	{r4, pc}
    57a0:	e5940000 	ldr	r0, [r4]
    57a4:	ebffff3f 	bl	54a8 <iuw_is_cmd>
    57a8:	e3500000 	cmp	r0, #0	; 0x0
    57ac:	0a000005 	beq	57c8 <iuw_shake_hand+0x6c>
    57b0:	e5943000 	ldr	r3, [r4]
    57b4:	e5933000 	ldr	r3, [r3]
    57b8:	e3c334ff 	bic	r3, r3, #-16777216	; 0xff000000
    57bc:	e3530002 	cmp	r3, #2	; 0x2
    57c0:	03a00000 	moveq	r0, #0	; 0x0
    57c4:	08bd8010 	popeq	{r4, pc}
    57c8:	e3e00000 	mvn	r0, #0	; 0x0
    57cc:	e8bd8010 	pop	{r4, pc}
    57d0:	3c00a190 	.word	0x3c00a190
    57d4:	000181dc 	.word	0x000181dc
    57d8:	3c00a18c 	.word	0x3c00a18c

000057dc <iuw_server>:
    57dc:	e92d4ff0 	push	{r4, r5, r6, r7, r8, r9, sl, fp, lr}
    57e0:	e3a00000 	mov	r0, #0	; 0x0
    57e4:	e24dd044 	sub	sp, sp, #68	; 0x44
    57e8:	e58d0018 	str	r0, [sp, #24]
    57ec:	ea000002 	b	57fc <iuw_server+0x20>
    57f0:	e59d1018 	ldr	r1, [sp, #24]
    57f4:	e2811001 	add	r1, r1, #1	; 0x1
    57f8:	e58d1018 	str	r1, [sp, #24]
    57fc:	e59f38e0 	ldr	r3, [pc, #2272]	; 60e4 <iuw_server+0x908>
    5800:	e59f08e0 	ldr	r0, [pc, #2272]	; 60e8 <iuw_server+0x90c>
    5804:	e5932000 	ldr	r2, [r3]
    5808:	e59f18dc 	ldr	r1, [pc, #2268]	; 60ec <iuw_server+0x910>
    580c:	e3a03018 	mov	r3, #24	; 0x18
    5810:	e0220293 	mla	r2, r3, r2, r0
    5814:	e5910000 	ldr	r0, [r1]
    5818:	e3a01020 	mov	r1, #32	; 0x20
    581c:	e1a0e00f 	mov	lr, pc
    5820:	e592f004 	ldr	pc, [r2, #4]
    5824:	e3500000 	cmp	r0, #0	; 0x0
    5828:	aa000009 	bge	5854 <iuw_server+0x78>
    582c:	e1a01000 	mov	r1, r0
    5830:	e59f28b8 	ldr	r2, [pc, #2232]	; 60f0 <iuw_server+0x914>
    5834:	e59f08b8 	ldr	r0, [pc, #2232]	; 60f4 <iuw_server+0x918>
    5838:	e1a0e00f 	mov	lr, pc
    583c:	e592f000 	ldr	pc, [r2]
    5840:	e59d3018 	ldr	r3, [sp, #24]
    5844:	e3530063 	cmp	r3, #99	; 0x63
    5848:	daffffe8 	ble	57f0 <iuw_server+0x14>
    584c:	e59f08a4 	ldr	r0, [pc, #2212]	; 60f8 <iuw_server+0x91c>
    5850:	ea000045 	b	596c <iuw_server+0x190>
    5854:	e59f1890 	ldr	r1, [pc, #2192]	; 60ec <iuw_server+0x910>
    5858:	e5910000 	ldr	r0, [r1]
    585c:	ebffff11 	bl	54a8 <iuw_is_cmd>
    5860:	e3500000 	cmp	r0, #0	; 0x0
    5864:	1a000003 	bne	5878 <iuw_server+0x9c>
    5868:	e59f088c 	ldr	r0, [pc, #2188]	; 60fc <iuw_server+0x920>
    586c:	e59f287c 	ldr	r2, [pc, #2172]	; 60f0 <iuw_server+0x914>
    5870:	e1a0e00f 	mov	lr, pc
    5874:	e592f000 	ldr	pc, [r2]
    5878:	e59f086c 	ldr	r0, [pc, #2156]	; 60ec <iuw_server+0x910>
    587c:	e5903000 	ldr	r3, [r0]
    5880:	e5933000 	ldr	r3, [r3]
    5884:	e3c344ff 	bic	r4, r3, #-16777216	; 0xff000000
    5888:	e3540033 	cmp	r4, #51	; 0x33
    588c:	0a00000c 	beq	58c4 <iuw_server+0xe8>
    5890:	ca000002 	bgt	58a0 <iuw_server+0xc4>
    5894:	e3540002 	cmp	r4, #2	; 0x2
    5898:	1a00003b 	bne	598c <iuw_server+0x1b0>
    589c:	ea000004 	b	58b4 <iuw_server+0xd8>
    58a0:	e35400e0 	cmp	r4, #224	; 0xe0
    58a4:	0a00002f 	beq	5968 <iuw_server+0x18c>
    58a8:	e35400f0 	cmp	r4, #240	; 0xf0
    58ac:	1a000036 	bne	598c <iuw_server+0x1b0>
    58b0:	ea000001 	b	58bc <iuw_server+0xe0>
    58b4:	e59f0844 	ldr	r0, [pc, #2116]	; 6100 <iuw_server+0x924>
    58b8:	ea000111 	b	5d04 <iuw_server+0x528>
    58bc:	e59f0840 	ldr	r0, [pc, #2112]	; 6104 <iuw_server+0x928>
    58c0:	ea0001d7 	b	6024 <iuw_server+0x848>
    58c4:	e59f083c 	ldr	r0, [pc, #2108]	; 6108 <iuw_server+0x92c>
    58c8:	e59f3820 	ldr	r3, [pc, #2080]	; 60f0 <iuw_server+0x914>
    58cc:	e1a0e00f 	mov	lr, pc
    58d0:	e593f000 	ldr	pc, [r3]
    58d4:	e59f2810 	ldr	r2, [pc, #2064]	; 60ec <iuw_server+0x910>
    58d8:	e3a00040 	mov	r0, #64	; 0x40
    58dc:	e3a01c02 	mov	r1, #512	; 0x200
    58e0:	e5924000 	ldr	r4, [r2]
    58e4:	ebffff9c 	bl	575c <iuw_shake_hand>
    58e8:	e2505000 	subs	r5, r0, #0	; 0x0
    58ec:	159f0818 	ldrne	r0, [pc, #2072]	; 610c <iuw_server+0x930>
    58f0:	1a0000b8 	bne	5bd8 <iuw_server+0x3fc>
    58f4:	e59f07e8 	ldr	r0, [pc, #2024]	; 60e4 <iuw_server+0x908>
    58f8:	e59f17e8 	ldr	r1, [pc, #2024]	; 60e8 <iuw_server+0x90c>
    58fc:	e5902000 	ldr	r2, [r0]
    5900:	e3a03018 	mov	r3, #24	; 0x18
    5904:	e0221293 	mla	r2, r3, r2, r1
    5908:	e59f37dc 	ldr	r3, [pc, #2012]	; 60ec <iuw_server+0x910>
    590c:	e3a01c02 	mov	r1, #512	; 0x200
    5910:	e5930000 	ldr	r0, [r3]
    5914:	e1a0e00f 	mov	lr, pc
    5918:	e592f004 	ldr	pc, [r2, #4]
    591c:	e1a00004 	mov	r0, r4
    5920:	eb003da6 	bl	14fc0 <ius_check_header>
    5924:	e2504000 	subs	r4, r0, #0	; 0x0
    5928:	0a000006 	beq	5948 <iuw_server+0x16c>
    592c:	e59f17bc 	ldr	r1, [pc, #1980]	; 60f0 <iuw_server+0x914>
    5930:	e59f07d8 	ldr	r0, [pc, #2008]	; 6110 <iuw_server+0x934>
    5934:	e1a0e00f 	mov	lr, pc
    5938:	e591f000 	ldr	pc, [r1]
    593c:	e1a02005 	mov	r2, r5
    5940:	e3a01002 	mov	r1, #2	; 0x2
    5944:	ea0001d9 	b	60b0 <iuw_server+0x8d4>
    5948:	e1a01004 	mov	r1, r4
    594c:	ebfffb4d 	bl	4688 <cdbg_verify_burn_enable>
    5950:	e1a00004 	mov	r0, r4
    5954:	e1a01004 	mov	r1, r4
    5958:	ebffff7f 	bl	575c <iuw_shake_hand>
    595c:	e3500000 	cmp	r0, #0	; 0x0
    5960:	0affffa5 	beq	57fc <iuw_server+0x20>
    5964:	ea0000ef 	b	5d28 <iuw_server+0x54c>
    5968:	e59f07a4 	ldr	r0, [pc, #1956]	; 6114 <iuw_server+0x938>
    596c:	e59f377c 	ldr	r3, [pc, #1916]	; 60f0 <iuw_server+0x914>
    5970:	e1a0e00f 	mov	lr, pc
    5974:	e593f000 	ldr	pc, [r3]
    5978:	e59f376c 	ldr	r3, [pc, #1900]	; 60ec <iuw_server+0x910>
    597c:	e5933000 	ldr	r3, [r3]
    5980:	e5930004 	ldr	r0, [r3, #4]
    5984:	e28dd044 	add	sp, sp, #68	; 0x44
    5988:	e8bd8ff0 	pop	{r4, r5, r6, r7, r8, r9, sl, fp, pc}
    598c:	ebfffb2b 	bl	4640 <cdbg_verify_burn>
    5990:	e2505000 	subs	r5, r0, #0	; 0x0
    5994:	0a000005 	beq	59b0 <iuw_server+0x1d4>
    5998:	e1a01004 	mov	r1, r4
    599c:	e59f0774 	ldr	r0, [pc, #1908]	; 6118 <iuw_server+0x93c>
    59a0:	e59f3748 	ldr	r3, [pc, #1864]	; 60f0 <iuw_server+0x914>
    59a4:	e1a0e00f 	mov	lr, pc
    59a8:	e593f000 	ldr	pc, [r3]
    59ac:	ea0001bd 	b	60a8 <iuw_server+0x8cc>
    59b0:	e3540031 	cmp	r4, #49	; 0x31
    59b4:	ca000009 	bgt	59e0 <iuw_server+0x204>
    59b8:	e3540030 	cmp	r4, #48	; 0x30
    59bc:	aa0001ae 	bge	607c <iuw_server+0x8a0>
    59c0:	e3540010 	cmp	r4, #16	; 0x10
    59c4:	ba0001b2 	blt	6094 <iuw_server+0x8b8>
    59c8:	e3540016 	cmp	r4, #22	; 0x16
    59cc:	da000009 	ble	59f8 <iuw_server+0x21c>
    59d0:	e2443020 	sub	r3, r4, #32	; 0x20
    59d4:	e3530001 	cmp	r3, #1	; 0x1
    59d8:	8a0001ad 	bhi	6094 <iuw_server+0x8b8>
    59dc:	ea000005 	b	59f8 <iuw_server+0x21c>
    59e0:	e3540044 	cmp	r4, #68	; 0x44
    59e4:	0a000003 	beq	59f8 <iuw_server+0x21c>
    59e8:	e3540046 	cmp	r4, #70	; 0x46
    59ec:	0a000001 	beq	59f8 <iuw_server+0x21c>
    59f0:	e3540042 	cmp	r4, #66	; 0x42
    59f4:	1a0001a6 	bne	6094 <iuw_server+0x8b8>
    59f8:	e59f06ec 	ldr	r0, [pc, #1772]	; 60ec <iuw_server+0x910>
    59fc:	e3a04000 	mov	r4, #0	; 0x0
    5a00:	e5906000 	ldr	r6, [r0]
    5a04:	e59f0710 	ldr	r0, [pc, #1808]	; 611c <iuw_server+0x940>
    5a08:	e5963000 	ldr	r3, [r6]
    5a0c:	e596200c 	ldr	r2, [r6, #12]
    5a10:	e3c334ff 	bic	r3, r3, #-16777216	; 0xff000000
    5a14:	e58d3020 	str	r3, [sp, #32]
    5a18:	e5963004 	ldr	r3, [r6, #4]
    5a1c:	e59d1020 	ldr	r1, [sp, #32]
    5a20:	e1848003 	orr	r8, r4, r3
    5a24:	e58d2028 	str	r2, [sp, #40]
    5a28:	e59f36c0 	ldr	r3, [pc, #1728]	; 60f0 <iuw_server+0x914>
    5a2c:	e1d650b8 	ldrh	r5, [r6, #8]
    5a30:	e5967008 	ldr	r7, [r6, #8]
    5a34:	e1a0e00f 	mov	lr, pc
    5a38:	e593f000 	ldr	pc, [r3]
    5a3c:	e59d0020 	ldr	r0, [sp, #32]
    5a40:	e1a09005 	mov	r9, r5
    5a44:	e2403010 	sub	r3, r0, #16	; 0x10
    5a48:	e3530001 	cmp	r3, #1	; 0x1
    5a4c:	8a000003 	bhi	5a60 <iuw_server+0x284>
    5a50:	e1d650ba 	ldrh	r5, [r6, #10]
    5a54:	e355000f 	cmp	r5, #15	; 0xf
    5a58:	0a000078 	beq	5c40 <iuw_server+0x464>
    5a5c:	ea00002f 	b	5b20 <iuw_server+0x344>
    5a60:	e59d1020 	ldr	r1, [sp, #32]
    5a64:	e2413012 	sub	r3, r1, #18	; 0x12
    5a68:	e3530001 	cmp	r3, #1	; 0x1
    5a6c:	91a05004 	movls	r5, r4
    5a70:	9a00002a 	bls	5b20 <iuw_server+0x344>
    5a74:	e59d2020 	ldr	r2, [sp, #32]
    5a78:	e2423014 	sub	r3, r2, #20	; 0x14
    5a7c:	e3530001 	cmp	r3, #1	; 0x1
    5a80:	93a05001 	movls	r5, #1	; 0x1
    5a84:	9a000025 	bls	5b20 <iuw_server+0x344>
    5a88:	e59d0020 	ldr	r0, [sp, #32]
    5a8c:	e2403016 	sub	r3, r0, #22	; 0x16
    5a90:	e3530001 	cmp	r3, #1	; 0x1
    5a94:	9a000190 	bls	60dc <iuw_server+0x900>
    5a98:	e2403020 	sub	r3, r0, #32	; 0x20
    5a9c:	e3530001 	cmp	r3, #1	; 0x1
    5aa0:	8a000006 	bhi	5ac0 <iuw_server+0x2e4>
    5aa4:	e5963004 	ldr	r3, [r6, #4]
    5aa8:	e5961008 	ldr	r1, [r6, #8]
    5aac:	e3e0b000 	mvn	fp, #0	; 0x0
    5ab0:	e1a08003 	mov	r8, r3
    5ab4:	e3a09000 	mov	r9, #0	; 0x0
    5ab8:	e58d1028 	str	r1, [sp, #40]
    5abc:	ea00017e 	b	60bc <iuw_server+0x8e0>
    5ac0:	e59d2020 	ldr	r2, [sp, #32]
    5ac4:	e3520044 	cmp	r2, #68	; 0x44
    5ac8:	13520042 	cmpne	r2, #66	; 0x42
    5acc:	1a000006 	bne	5aec <iuw_server+0x310>
    5ad0:	e5963008 	ldr	r3, [r6, #8]
    5ad4:	e3e00000 	mvn	r0, #0	; 0x0
    5ad8:	e58d3028 	str	r3, [sp, #40]
    5adc:	e3a0b001 	mov	fp, #1	; 0x1
    5ae0:	e58d001c 	str	r0, [sp, #28]
    5ae4:	e3a0aa02 	mov	sl, #8192	; 0x2000
    5ae8:	ea000175 	b	60c4 <iuw_server+0x8e8>
    5aec:	e59d1020 	ldr	r1, [sp, #32]
    5af0:	e3510046 	cmp	r1, #70	; 0x46
    5af4:	13e0b000 	mvnne	fp, #0	; 0x0
    5af8:	1a00016f 	bne	60bc <iuw_server+0x8e0>
    5afc:	e5962004 	ldr	r2, [r6, #4]
    5b00:	e5961008 	ldr	r1, [r6, #8]
    5b04:	e1a00002 	mov	r0, r2
    5b08:	e58d201c 	str	r2, [sp, #28]
    5b0c:	ebfff891 	bl	3d58 <hash_init>
    5b10:	e5963008 	ldr	r3, [r6, #8]
    5b14:	e3e0b000 	mvn	fp, #0	; 0x0
    5b18:	e58d3028 	str	r3, [sp, #40]
    5b1c:	ea000167 	b	60c0 <iuw_server+0x8e4>
    5b20:	e59f15c8 	ldr	r1, [pc, #1480]	; 60f0 <iuw_server+0x914>
    5b24:	e1a00005 	mov	r0, r5
    5b28:	e5914000 	ldr	r4, [r1]
    5b2c:	ebfff63d 	bl	3428 <vs_device_name>
    5b30:	e1a01000 	mov	r1, r0
    5b34:	e59f05e4 	ldr	r0, [pc, #1508]	; 6120 <iuw_server+0x944>
    5b38:	e12fff34 	blx	r4
    5b3c:	e1a00005 	mov	r0, r5
    5b40:	e3a01001 	mov	r1, #1	; 0x1
    5b44:	ebfff5f2 	bl	3314 <vs_assign_by_id>
    5b48:	e3500000 	cmp	r0, #0	; 0x0
    5b4c:	aa000007 	bge	5b70 <iuw_server+0x394>
    5b50:	e59f2598 	ldr	r2, [pc, #1432]	; 60f0 <iuw_server+0x914>
    5b54:	e1a00005 	mov	r0, r5
    5b58:	e5924000 	ldr	r4, [r2]
    5b5c:	ebfff631 	bl	3428 <vs_device_name>
    5b60:	e1a01000 	mov	r1, r0
    5b64:	e59f05b8 	ldr	r0, [pc, #1464]	; 6124 <iuw_server+0x948>
    5b68:	e12fff34 	blx	r4
    5b6c:	ea00014d 	b	60a8 <iuw_server+0x8cc>
    5b70:	e1a00005 	mov	r0, r5
    5b74:	e59f15ac 	ldr	r1, [pc, #1452]	; 6128 <iuw_server+0x94c>
    5b78:	ebfff679 	bl	3564 <vs_is_device>
    5b7c:	e3500000 	cmp	r0, #0	; 0x0
    5b80:	1a000009 	bne	5bac <iuw_server+0x3d0>
    5b84:	e1a00005 	mov	r0, r5
    5b88:	e59f159c 	ldr	r1, [pc, #1436]	; 612c <iuw_server+0x950>
    5b8c:	ebfff674 	bl	3564 <vs_is_device>
    5b90:	e3500000 	cmp	r0, #0	; 0x0
    5b94:	1a000004 	bne	5bac <iuw_server+0x3d0>
    5b98:	e1a00005 	mov	r0, r5
    5b9c:	e59f158c 	ldr	r1, [pc, #1420]	; 6130 <iuw_server+0x954>
    5ba0:	ebfff66f 	bl	3564 <vs_is_device>
    5ba4:	e3500000 	cmp	r0, #0	; 0x0
    5ba8:	0a000024 	beq	5c40 <iuw_server+0x464>
    5bac:	e59f1574 	ldr	r1, [pc, #1396]	; 6128 <iuw_server+0x94c>
    5bb0:	e1a00005 	mov	r0, r5
    5bb4:	ebfff66a 	bl	3564 <vs_is_device>
    5bb8:	e3500000 	cmp	r0, #0	; 0x0
    5bbc:	13a00000 	movne	r0, #0	; 0x0
    5bc0:	03a00001 	moveq	r0, #1	; 0x1
    5bc4:	eb00098f 	bl	8208 <nand_get_config>
    5bc8:	e3500000 	cmp	r0, #0	; 0x0
    5bcc:	e1a03000 	mov	r3, r0
    5bd0:	1a000004 	bne	5be8 <iuw_server+0x40c>
    5bd4:	e59f0558 	ldr	r0, [pc, #1368]	; 6134 <iuw_server+0x958>
    5bd8:	e59f3510 	ldr	r3, [pc, #1296]	; 60f0 <iuw_server+0x914>
    5bdc:	e1a0e00f 	mov	lr, pc
    5be0:	e593f000 	ldr	pc, [r3]
    5be4:	eaffff04 	b	57fc <iuw_server+0x20>
    5be8:	e593301c 	ldr	r3, [r3, #28]
    5bec:	e1a00005 	mov	r0, r5
    5bf0:	e59f1538 	ldr	r1, [pc, #1336]	; 6130 <iuw_server+0x954>
    5bf4:	e58d3030 	str	r3, [sp, #48]
    5bf8:	ebfff659 	bl	3564 <vs_is_device>
    5bfc:	e3500000 	cmp	r0, #0	; 0x0
    5c00:	03a0a901 	moveq	sl, #16384	; 0x4000
    5c04:	03e0b000 	mvneq	fp, #0	; 0x0
    5c08:	0a000010 	beq	5c50 <iuw_server+0x474>
    5c0c:	e59d0028 	ldr	r0, [sp, #40]
    5c10:	eb0009b4 	bl	82e8 <fnd_size_match>
    5c14:	e3500000 	cmp	r0, #0	; 0x0
    5c18:	059f0518 	ldreq	r0, [pc, #1304]	; 6138 <iuw_server+0x95c>
    5c1c:	0a000038 	beq	5d04 <iuw_server+0x528>
    5c20:	eb0009a6 	bl	82c0 <fnd_align>
    5c24:	e3e0b000 	mvn	fp, #0	; 0x0
    5c28:	e1a0a000 	mov	sl, r0
    5c2c:	e1a00005 	mov	r0, r5
    5c30:	e58db01c 	str	fp, [sp, #28]
    5c34:	ebfff59d 	bl	32b0 <vs_align>
    5c38:	e58d0034 	str	r0, [sp, #52]
    5c3c:	ea000005 	b	5c58 <iuw_server+0x47c>
    5c40:	e3a02000 	mov	r2, #0	; 0x0
    5c44:	e3a0a901 	mov	sl, #16384	; 0x4000
    5c48:	e3e0b000 	mvn	fp, #0	; 0x0
    5c4c:	e58d2030 	str	r2, [sp, #48]
    5c50:	e58da034 	str	sl, [sp, #52]
    5c54:	e58db01c 	str	fp, [sp, #28]
    5c58:	e59d3020 	ldr	r3, [sp, #32]
    5c5c:	e1a07827 	lsr	r7, r7, #16
    5c60:	e2133001 	ands	r3, r3, #1	; 0x1
    5c64:	e58d3038 	str	r3, [sp, #56]
    5c68:	e1a07807 	lsl	r7, r7, #16
    5c6c:	1a000007 	bne	5c90 <iuw_server+0x4b4>
    5c70:	e1a00005 	mov	r0, r5
    5c74:	ebfff5f2 	bl	3444 <vs_device_erasable>
    5c78:	e3500000 	cmp	r0, #0	; 0x0
    5c7c:	0a000003 	beq	5c90 <iuw_server+0x4b4>
    5c80:	e1a00008 	mov	r0, r8
    5c84:	e1a01009 	mov	r1, r9
    5c88:	e1a02007 	mov	r2, r7
    5c8c:	ebfff54b 	bl	31c0 <vs_erase>
    5c90:	e35b0001 	cmp	fp, #1	; 0x1
    5c94:	1a00001e 	bne	5d14 <iuw_server+0x538>
    5c98:	e5961004 	ldr	r1, [r6, #4]
    5c9c:	e3510000 	cmp	r1, #0	; 0x0
    5ca0:	0a00000f 	beq	5ce4 <iuw_server+0x508>
    5ca4:	e59f0490 	ldr	r0, [pc, #1168]	; 613c <iuw_server+0x960>
    5ca8:	e59f1440 	ldr	r1, [pc, #1088]	; 60f0 <iuw_server+0x914>
    5cac:	e1a0e00f 	mov	lr, pc
    5cb0:	e591f000 	ldr	pc, [r1]
    5cb4:	e59f3428 	ldr	r3, [pc, #1064]	; 60e4 <iuw_server+0x908>
    5cb8:	e59f0428 	ldr	r0, [pc, #1064]	; 60e8 <iuw_server+0x90c>
    5cbc:	e5932000 	ldr	r2, [r3]
    5cc0:	e59f1424 	ldr	r1, [pc, #1060]	; 60ec <iuw_server+0x910>
    5cc4:	e3a03018 	mov	r3, #24	; 0x18
    5cc8:	e0220293 	mla	r2, r3, r2, r0
    5ccc:	e5910000 	ldr	r0, [r1]
    5cd0:	e3a01020 	mov	r1, #32	; 0x20
    5cd4:	e1a0e00f 	mov	lr, pc
    5cd8:	e592f004 	ldr	pc, [r2, #4]
    5cdc:	e59f2408 	ldr	r2, [pc, #1032]	; 60ec <iuw_server+0x910>
    5ce0:	e5921000 	ldr	r1, [r2]
    5ce4:	e59d3020 	ldr	r3, [sp, #32]
    5ce8:	e59f2450 	ldr	r2, [pc, #1104]	; 6140 <iuw_server+0x964>
    5cec:	e2530042 	subs	r0, r3, #66	; 0x42
    5cf0:	13a00001 	movne	r0, #1	; 0x1
    5cf4:	ebfff6f5 	bl	38d0 <ss_aes_init>
    5cf8:	e3500000 	cmp	r0, #0	; 0x0
    5cfc:	aa000004 	bge	5d14 <iuw_server+0x538>
    5d00:	e59f043c 	ldr	r0, [pc, #1084]	; 6144 <iuw_server+0x968>
    5d04:	e59f13e4 	ldr	r1, [pc, #996]	; 60f0 <iuw_server+0x914>
    5d08:	e1a0e00f 	mov	lr, pc
    5d0c:	e591f000 	ldr	pc, [r1]
    5d10:	ea0000e4 	b	60a8 <iuw_server+0x8cc>
    5d14:	e3a00040 	mov	r0, #64	; 0x40
    5d18:	e1a0100a 	mov	r1, sl
    5d1c:	ebfffe8e 	bl	575c <iuw_shake_hand>
    5d20:	e2504000 	subs	r4, r0, #0	; 0x0
    5d24:	0a000004 	beq	5d3c <iuw_server+0x560>
    5d28:	e59f03dc 	ldr	r0, [pc, #988]	; 610c <iuw_server+0x930>
    5d2c:	e59f23bc 	ldr	r2, [pc, #956]	; 60f0 <iuw_server+0x914>
    5d30:	e1a0e00f 	mov	lr, pc
    5d34:	e592f000 	ldr	pc, [r2]
    5d38:	eafffeaf 	b	57fc <iuw_server+0x20>
    5d3c:	e59d3028 	ldr	r3, [sp, #40]
    5d40:	e59f0400 	ldr	r0, [pc, #1024]	; 6148 <iuw_server+0x96c>
    5d44:	e58d3000 	str	r3, [sp]
    5d48:	e1a02008 	mov	r2, r8
    5d4c:	e1a03009 	mov	r3, r9
    5d50:	e59f1398 	ldr	r1, [pc, #920]	; 60f0 <iuw_server+0x914>
    5d54:	e58da004 	str	sl, [sp, #4]
    5d58:	e1a0e00f 	mov	lr, pc
    5d5c:	e591f000 	ldr	pc, [r1]
    5d60:	e59d2030 	ldr	r2, [sp, #48]
    5d64:	e59d0028 	ldr	r0, [sp, #40]
    5d68:	e2423001 	sub	r3, r2, #1	; 0x1
    5d6c:	e59d5028 	ldr	r5, [sp, #40]
    5d70:	e0607007 	rsb	r7, r0, r7
    5d74:	e1a00003 	mov	r0, r3
    5d78:	e1a01fc0 	asr	r1, r0, #31
    5d7c:	e1a03fc2 	asr	r3, r2, #31
