
/home/user/wellie/infotm-irom/out/vmirom:     file format elf32-littlearm


Disassembly of section .text:

00000000 <_start>:
       0:	ea000012 	b	50 <reset>
       4:	ebfffffe 	bl	4 <_start+0x4>
       8:	ebfffffe 	bl	8 <_start+0x8>
       c:	ebfffffe 	bl	c <_start+0xc>
      10:	ebfffffe 	bl	10 <_start+0x10>
      14:	ebfffffe 	bl	14 <_start+0x14>
      18:	ebfffffe 	bl	18 <_start+0x18>
      1c:	ebfffffe 	bl	1c <_start+0x1c>
      20:	00000000 	.word	0x00000000
      24:	00000001 	.word	0x00000001
      28:	00000002 	.word	0x00000002
      2c:	00000003 	.word	0x00000003
      30:	00000004 	.word	0x00000004
      34:	00000005 	.word	0x00000005
      38:	00000006 	.word	0x00000006
      3c:	00000007 	.word	0x00000007

00000040 <_armboot_start>:
      40:	00000000 	.word	0x00000000

00000044 <_bss_start>:
      44:	3c00d120 	.word	0x3c00d120

00000048 <_bss_end>:
      48:	3c00ddb8 	.word	0x3c00ddb8

0000004c <__stack>:
      4c:	3c00cfe0 	.word	0x3c00cfe0

00000050 <reset>:
      50:	e10f0000 	mrs	r0, CPSR
      54:	e3c0001f 	bic	r0, r0, #31	; 0x1f
      58:	e38000d3 	orr	r0, r0, #211	; 0xd3
      5c:	e129f000 	msr	CPSR_fc, r0
      60:	eb00000e 	bl	a0 <core_init_crit>
      64:	ee100fb0 	mrc	15, 0, r0, cr0, cr0, {5}
      68:	e7e10050 	ubfx	r0, r0, #0, #2
      6c:	e3500000 	cmp	r0, #0	; 0x0
      70:	1a000019 	bne	dc <core_hold>
      74:	e51fd030 	ldr	sp, [pc, #-48]	; 4c <__stack>
      78:	eb00041a 	bl	10e8 <chip_test>
      7c:	e51f0040 	ldr	r0, [pc, #-64]	; 44 <_bss_start>
      80:	e51f1040 	ldr	r1, [pc, #-64]	; 48 <_bss_end>
      84:	e3a02000 	mov	r2, #0	; 0x0

00000088 <clbss_l>:
      88:	e5802000 	str	r2, [r0]
      8c:	e2800004 	add	r0, r0, #4	; 0x4
      90:	e1500001 	cmp	r0, r1
      94:	1afffffb 	bne	88 <clbss_l>
      98:	e51ff004 	ldr	pc, [pc, #-4]	; 9c <_main>

0000009c <_main>:
      9c:	00000580 	.word	0x00000580

000000a0 <core_init_crit>:
      a0:	e3a00000 	mov	r0, #0	; 0x0
      a4:	ee080f17 	mcr	15, 0, r0, cr8, cr7, {0}
      a8:	ee070f15 	mcr	15, 0, r0, cr7, cr5, {0}
      ac:	ee110f10 	mrc	15, 0, r0, cr1, cr0, {0}
      b0:	e3c00a02 	bic	r0, r0, #8192	; 0x2000
      b4:	e3c00007 	bic	r0, r0, #7	; 0x7
      b8:	e3800002 	orr	r0, r0, #2	; 0x2
      bc:	e3800b02 	orr	r0, r0, #2048	; 0x800
      c0:	ee010f10 	mcr	15, 0, r0, cr1, cr0, {0}
      c4:	e59f1070 	ldr	r1, [pc, #112]	; 13c <low_power+0x8>
      c8:	e59f0070 	ldr	r0, [pc, #112]	; 140 <low_power+0xc>
      cc:	e5810034 	str	r0, [r1, #52]
      d0:	e59f006c 	ldr	r0, [pc, #108]	; 144 <low_power+0x10>
      d4:	e5810034 	str	r0, [r1, #52]
      d8:	e1a0f00e 	mov	pc, lr

000000dc <core_hold>:
      dc:	e59f3064 	ldr	r3, [pc, #100]	; 148 <low_power+0x14>
      e0:	e5931000 	ldr	r1, [r3]
      e4:	e3a0203b 	mov	r2, #59	; 0x3b
      e8:	e1510002 	cmp	r1, r2
      ec:	1a000010 	bne	134 <low_power>
      f0:	e593100c 	ldr	r1, [r3, #12]
      f4:	e1a02401 	lsl	r2, r1, #8
      f8:	e5931008 	ldr	r1, [r3, #8]
      fc:	e1822001 	orr	r2, r2, r1
     100:	e1a02402 	lsl	r2, r2, #8
     104:	e5931004 	ldr	r1, [r3, #4]
     108:	e1822001 	orr	r2, r2, r1
     10c:	e1a01402 	lsl	r1, r2, #8
     110:	e1a02100 	lsl	r2, r0, #2
     114:	e0821001 	add	r1, r2, r1
     118:	e3a02001 	mov	r2, #1	; 0x1
     11c:	e5812000 	str	r2, [r1]
     120:	f57ff04f 	.word	0xf57ff04f

00000124 <hold_l>:
     124:	e5910000 	ldr	r0, [r1]
     128:	e3500001 	cmp	r0, #1	; 0x1
     12c:	0afffffc 	beq	124 <hold_l>
     130:	e1a0f000 	mov	pc, r0

00000134 <low_power>:
     134:	e320f003 	.word	0xe320f003
     138:	eafffffe 	b	138 <low_power+0x4>
     13c:	21b00600 	.word	0x21b00600
     140:	12345678 	.word	0x12345678
     144:	87654321 	.word	0x87654321
     148:	21e09c2c 	.word	0x21e09c2c
     14c:	e1a00000 	.word	0xe1a00000

00000150 <bl_load_isi>:
     150:	e92d4ff0 	push	{r4, r5, r6, r7, r8, r9, sl, fp, lr}
     154:	e1a04001 	mov	r4, r1
     158:	e24dd02c 	sub	sp, sp, #44	; 0x2c
     15c:	e58d0020 	str	r0, [sp, #32]
     160:	e3a01001 	mov	r1, #1	; 0x1
     164:	e1a00004 	mov	r0, r4
     168:	e58d2008 	str	r2, [sp, #8]
     16c:	eb0018da 	bl	64dc <vs_assign_by_id>
     170:	e3500000 	cmp	r0, #0	; 0x0
     174:	e58d0024 	str	r0, [sp, #36]
     178:	0a000008 	beq	1a0 <bl_load_isi+0x50>
     17c:	e59f31d4 	ldr	r3, [pc, #468]	; 358 <bl_load_isi+0x208>
     180:	e1a00004 	mov	r0, r4
     184:	e5934000 	ldr	r4, [r3]
     188:	eb0017dd 	bl	6104 <vs_device_name>
     18c:	e59d2024 	ldr	r2, [sp, #36]
     190:	e1a01000 	mov	r1, r0
     194:	e59f01c0 	ldr	r0, [pc, #448]	; 35c <bl_load_isi+0x20c>
     198:	e12fff34 	blx	r4
     19c:	ea00006a 	b	34c <bl_load_isi+0x1fc>
     1a0:	e1a00004 	mov	r0, r4
     1a4:	e59f11b4 	ldr	r1, [pc, #436]	; 360 <bl_load_isi+0x210>
     1a8:	eb00180c 	bl	61e0 <vs_is_device>
     1ac:	e3500000 	cmp	r0, #0	; 0x0
     1b0:	03a09b01 	moveq	r9, #1024	; 0x400
     1b4:	0a000006 	beq	1d4 <bl_load_isi+0x84>
     1b8:	e59d0024 	ldr	r0, [sp, #36]
     1bc:	eb00275c 	bl	9f34 <nand_get_config>
     1c0:	e3500000 	cmp	r0, #0	; 0x0
     1c4:	03e00033 	mvneq	r0, #51	; 0x33
     1c8:	058d0024 	streq	r0, [sp, #36]
     1cc:	0a00005e 	beq	34c <bl_load_isi+0x1fc>
     1d0:	e5909014 	ldr	r9, [r0, #20]
     1d4:	e1a02009 	mov	r2, r9
     1d8:	e1a03fc2 	asr	r3, r2, #31
     1dc:	e1cd21f8 	strd	r2, [sp, #24]
     1e0:	e3a06000 	mov	r6, #0	; 0x0
     1e4:	e59da008 	ldr	sl, [sp, #8]
     1e8:	e59f0174 	ldr	r0, [pc, #372]	; 364 <bl_load_isi+0x214>
     1ec:	e89a000c 	ldm	sl, {r2, r3}
     1f0:	e3a01000 	mov	r1, #0	; 0x0
     1f4:	e0922000 	adds	r2, r2, r0
     1f8:	e3e0b000 	mvn	fp, #0	; 0x0
     1fc:	e0a33001 	adc	r3, r3, r1
     200:	e59fa160 	ldr	sl, [pc, #352]	; 368 <bl_load_isi+0x218>
     204:	e003300b 	and	r3, r3, fp
     208:	e59db008 	ldr	fp, [sp, #8]
     20c:	e002200a 	and	r2, r2, sl
     210:	e88b000c 	stm	fp, {r2, r3}
     214:	e3a04000 	mov	r4, #0	; 0x0
     218:	e1a07004 	mov	r7, r4
     21c:	e1a08004 	mov	r8, r4
     220:	e58d400c 	str	r4, [sp, #12]
     224:	e1540009 	cmp	r4, r9
     228:	1a000013 	bne	27c <bl_load_isi+0x12c>
     22c:	e59d0020 	ldr	r0, [sp, #32]
     230:	eb00062f 	bl	1af4 <isi_check_header>
     234:	e3500000 	cmp	r0, #0	; 0x0
     238:	e1a02006 	mov	r2, r6
     23c:	e59f0128 	ldr	r0, [pc, #296]	; 36c <bl_load_isi+0x21c>
     240:	1a000007 	bne	264 <bl_load_isi+0x114>
     244:	e59d1020 	ldr	r1, [sp, #32]
     248:	e591300c 	ldr	r3, [r1, #12]
     24c:	e2837c02 	add	r7, r3, #512	; 0x200
     250:	e1a01007 	mov	r1, r7
     254:	e59f30fc 	ldr	r3, [pc, #252]	; 358 <bl_load_isi+0x208>
     258:	e1a0e00f 	mov	lr, pc
     25c:	e593f000 	ldr	pc, [r3]
     260:	ea000005 	b	27c <bl_load_isi+0x12c>
     264:	e59f0104 	ldr	r0, [pc, #260]	; 370 <bl_load_isi+0x220>
     268:	e1a01006 	mov	r1, r6
     26c:	e59fa0e4 	ldr	sl, [pc, #228]	; 358 <bl_load_isi+0x208>
     270:	e1a0e00f 	mov	lr, pc
     274:	e59af000 	ldr	pc, [sl]
     278:	ea00002e 	b	338 <bl_load_isi+0x1e8>
     27c:	e2575000 	subs	r5, r7, #0	; 0x0
     280:	13a05001 	movne	r5, #1	; 0x1
     284:	e1540007 	cmp	r4, r7
     288:	e59db020 	ldr	fp, [sp, #32]
     28c:	b3a05000 	movlt	r5, #0	; 0x0
     290:	e3550000 	cmp	r5, #0	; 0x0
     294:	e08b0004 	add	r0, fp, r4
     298:	0a000009 	beq	2c4 <bl_load_isi+0x174>
     29c:	e1a0000b 	mov	r0, fp
     2a0:	eb00066c 	bl	1c58 <isi_check_data>
     2a4:	e3500000 	cmp	r0, #0	; 0x0
     2a8:	0a000027 	beq	34c <bl_load_isi+0x1fc>
     2ac:	e59f00c0 	ldr	r0, [pc, #192]	; 374 <bl_load_isi+0x224>
     2b0:	e1a01006 	mov	r1, r6
     2b4:	e59f209c 	ldr	r2, [pc, #156]	; 358 <bl_load_isi+0x208>
     2b8:	e1a0e00f 	mov	lr, pc
     2bc:	e592f000 	ldr	pc, [r2]
     2c0:	ea00001c 	b	338 <bl_load_isi+0x1e8>
     2c4:	e3580004 	cmp	r8, #4	; 0x4
     2c8:	e2888001 	add	r8, r8, #1	; 0x1
     2cc:	da000005 	ble	2e8 <bl_load_isi+0x198>
     2d0:	e59f009c 	ldr	r0, [pc, #156]	; 374 <bl_load_isi+0x224>
     2d4:	e1a01006 	mov	r1, r6
     2d8:	e59f3078 	ldr	r3, [pc, #120]	; 358 <bl_load_isi+0x208>
     2dc:	e1a0e00f 	mov	lr, pc
     2e0:	e593f000 	ldr	pc, [r3]
     2e4:	ea000013 	b	338 <bl_load_isi+0x1e8>
     2e8:	e59da008 	ldr	sl, [sp, #8]
     2ec:	e89a000c 	ldm	sl, {r2, r3}
     2f0:	e58d9000 	str	r9, [sp]
     2f4:	e58d5004 	str	r5, [sp, #4]
     2f8:	eb0017d1 	bl	6244 <vs_read>
     2fc:	e1cda1d8 	ldrd	sl, [sp, #24]
     300:	e59d3008 	ldr	r3, [sp, #8]
     304:	e893000c 	ldm	r3, {r2, r3}
     308:	e092200a 	adds	r2, r2, sl
     30c:	e0a3300b 	adc	r3, r3, fp
     310:	e1500009 	cmp	r0, r9
     314:	e59d000c 	ldr	r0, [sp, #12]
     318:	e59db008 	ldr	fp, [sp, #8]
     31c:	e2800001 	add	r0, r0, #1	; 0x1
     320:	00844009 	addeq	r4, r4, r9
     324:	01a08005 	moveq	r8, r5
     328:	e3500080 	cmp	r0, #128	; 0x80
     32c:	e88b000c 	stm	fp, {r2, r3}
     330:	e58d000c 	str	r0, [sp, #12]
     334:	1affffba 	bne	224 <bl_load_isi+0xd4>
     338:	e2866001 	add	r6, r6, #1	; 0x1
     33c:	e3560010 	cmp	r6, #16	; 0x10
     340:	1affffa7 	bne	1e4 <bl_load_isi+0x94>
     344:	e3e01000 	mvn	r1, #0	; 0x0
     348:	e58d1024 	str	r1, [sp, #36]
     34c:	e59d0024 	ldr	r0, [sp, #36]
     350:	e28dd02c 	add	sp, sp, #44	; 0x2c
     354:	e8bd8ff0 	pop	{r4, r5, r6, r7, r8, r9, sl, fp, pc}
     358:	3c00d6cc 	.word	0x3c00d6cc
     35c:	00016103 	.word	0x00016103
     360:	00016127 	.word	0x00016127
     364:	0001ffff 	.word	0x0001ffff
     368:	fffe0000 	.word	0xfffe0000
     36c:	0001612b 	.word	0x0001612b
     370:	00016142 	.word	0x00016142
     374:	00016154 	.word	0x00016154

00000378 <try_get_bl>:
     378:	e92d40f0 	push	{r4, r5, r6, r7, lr}
     37c:	e3a02602 	mov	r2, #2097152	; 0x200000
     380:	e24dd00c 	sub	sp, sp, #12	; 0xc
     384:	e3a03000 	mov	r3, #0	; 0x0
     388:	e88d000c 	stm	sp, {r2, r3}
     38c:	e1a07001 	mov	r7, r1
     390:	e1a06000 	mov	r6, r0
     394:	eb0000a9 	bl	640 <boot_device>
     398:	e1a04000 	mov	r4, r0
     39c:	eb001711 	bl	5fe8 <vs_device_bootable>
     3a0:	e2505000 	subs	r5, r0, #0	; 0x0
     3a4:	1a000008 	bne	3cc <try_get_bl+0x54>
     3a8:	e59f308c 	ldr	r3, [pc, #140]	; 43c <try_get_bl+0xc4>
     3ac:	e1a00004 	mov	r0, r4
     3b0:	e5934000 	ldr	r4, [r3]
     3b4:	eb001752 	bl	6104 <vs_device_name>
     3b8:	e1a01000 	mov	r1, r0
     3bc:	e59f007c 	ldr	r0, [pc, #124]	; 440 <try_get_bl+0xc8>
     3c0:	e12fff34 	blx	r4
     3c4:	e1a00005 	mov	r0, r5
     3c8:	ea000019 	b	434 <try_get_bl+0xbc>
     3cc:	e1a00004 	mov	r0, r4
     3d0:	eb001739 	bl	60bc <vs_device_boot0>
     3d4:	e3500000 	cmp	r0, #0	; 0x0
     3d8:	13a02000 	movne	r2, #0	; 0x0
     3dc:	13a03000 	movne	r3, #0	; 0x0
     3e0:	188d000c 	stmne	sp, {r2, r3}
     3e4:	e3a0030f 	mov	r0, #1006632960	; 0x3c000000
     3e8:	e1a01004 	mov	r1, r4
     3ec:	e1a0200d 	mov	r2, sp
     3f0:	e3a03000 	mov	r3, #0	; 0x0
     3f4:	ebffff55 	bl	150 <bl_load_isi>
     3f8:	e3500000 	cmp	r0, #0	; 0x0
     3fc:	13a00000 	movne	r0, #0	; 0x0
     400:	1a00000b 	bne	434 <try_get_bl+0xbc>
     404:	e3a0330f 	mov	r3, #1006632960	; 0x3c000000
     408:	e5932008 	ldr	r2, [r3, #8]
     40c:	e3c22102 	bic	r2, r2, #-2147483648	; 0x80000000
     410:	e5862000 	str	r2, [r6]
     414:	e5874000 	str	r4, [r7]
     418:	e5933008 	ldr	r3, [r3, #8]
     41c:	e3530000 	cmp	r3, #0	; 0x0
     420:	aa000002 	bge	430 <try_get_bl+0xb8>
     424:	e3a00001 	mov	r0, #1	; 0x1
     428:	e59f1014 	ldr	r1, [pc, #20]	; 444 <try_get_bl+0xcc>
     42c:	eb001bf3 	bl	7400 <cdbg_verify_burn_enable>
     430:	e3a00001 	mov	r0, #1	; 0x1
     434:	e28dd00c 	add	sp, sp, #12	; 0xc
     438:	e8bd80f0 	pop	{r4, r5, r6, r7, pc}
     43c:	3c00d6cc 	.word	0x3c00d6cc
     440:	00016166 	.word	0x00016166
     444:	3c000100 	.word	0x3c000100

00000448 <try_boot>:
     448:	e92d41f0 	push	{r4, r5, r6, r7, r8, lr}
     44c:	e3a03000 	mov	r3, #0	; 0x0
     450:	e24dd008 	sub	sp, sp, #8	; 0x8
     454:	e1a07000 	mov	r7, r0
     458:	e1a00003 	mov	r0, r3
     45c:	e58d3004 	str	r3, [sp, #4]
     460:	e58d3000 	str	r3, [sp]
     464:	e1a04003 	mov	r4, r3
     468:	eb00005b 	bl	5dc <set_xom>
     46c:	eb000060 	bl	5f4 <boot_info>
     470:	e28d8004 	add	r8, sp, #4	; 0x4
     474:	e1a05000 	mov	r5, r0
     478:	ea000008 	b	4a0 <try_boot+0x58>
     47c:	eb000127 	bl	920 <gtc_time>
     480:	e1a00004 	mov	r0, r4
     484:	eb000054 	bl	5dc <set_xom>
     488:	e1a00008 	mov	r0, r8
     48c:	e1a0100d 	mov	r1, sp
     490:	ebffffb8 	bl	378 <try_get_bl>
     494:	e3500000 	cmp	r0, #0	; 0x0
     498:	13a04001 	movne	r4, #1	; 0x1
     49c:	1a000003 	bne	4b0 <try_boot+0x68>
     4a0:	e1540005 	cmp	r4, r5
     4a4:	e2844001 	add	r4, r4, #1	; 0x1
     4a8:	bafffff3 	blt	47c <try_boot+0x34>
     4ac:	e3a04000 	mov	r4, #0	; 0x0
     4b0:	eb00011a 	bl	920 <gtc_time>
     4b4:	e3a00001 	mov	r0, #1	; 0x1
     4b8:	eb00012e 	bl	978 <ecfg_check_flag>
     4bc:	e3500000 	cmp	r0, #0	; 0x0
     4c0:	1a00000c 	bne	4f8 <try_boot+0xb0>
     4c4:	e3570000 	cmp	r7, #0	; 0x0
     4c8:	1a00000a 	bne	4f8 <try_boot+0xb0>
     4cc:	eb0000ca 	bl	7fc <get_reset_stats>
     4d0:	e3500000 	cmp	r0, #0	; 0x0
     4d4:	13500002 	cmpne	r0, #2	; 0x2
     4d8:	1a000006 	bne	4f8 <try_boot+0xb0>
     4dc:	e3500002 	cmp	r0, #2	; 0x2
     4e0:	1a000001 	bne	4ec <try_boot+0xa4>
     4e4:	e28d0004 	add	r0, sp, #4	; 0x4
     4e8:	eb0000d0 	bl	830 <update_mask_on_reset>
     4ec:	e59d0004 	ldr	r0, [sp, #4]
     4f0:	eb001e41 	bl	7dfc <burn>
     4f4:	eb000109 	bl	920 <gtc_time>
     4f8:	e3540000 	cmp	r4, #0	; 0x0
     4fc:	0a000004 	beq	514 <try_boot+0xcc>
     500:	e3a0330f 	mov	r3, #1006632960	; 0x3c000000
     504:	e5930014 	ldr	r0, [r3, #20]
     508:	e59d1000 	ldr	r1, [sp]
     50c:	eb001bc6 	bl	742c <cdbg_jump>
     510:	eafffffe 	b	510 <try_boot+0xc8>
     514:	eb001bf6 	bl	74f4 <cdbg_shell>
     518:	eafffffe 	b	518 <try_boot+0xd0>

0000051c <init_data_section>:
     51c:	e59f1010 	ldr	r1, [pc, #16]	; 534 <init_data_section+0x18>
     520:	e59f0010 	ldr	r0, [pc, #16]	; 538 <init_data_section+0x1c>
     524:	e1510000 	cmp	r1, r0
     528:	012fff1e 	bxeq	lr
     52c:	e59f2008 	ldr	r2, [pc, #8]	; 53c <init_data_section+0x20>
     530:	ea000407 	b	1554 <memcpy>
     534:	00019254 	.word	0x00019254
     538:	3c00d000 	.word	0x3c00d000
     53c:	00000120 	.word	0x00000120

00000540 <initialization>:
     540:	e52de004 	push	{lr}		; (str lr, [sp, #-4]!)
     544:	e24dd004 	sub	sp, sp, #4	; 0x4
     548:	ebfffff3 	bl	51c <init_data_section>
     54c:	eb000027 	bl	5f0 <init_xom>
     550:	eb000098 	bl	7b8 <init_lowlevel>
     554:	eb000528 	bl	19fc <init_malloc>
     558:	eb003563 	bl	daec <init_timer>
     55c:	eb0000fc 	bl	954 <init_gtc>
     560:	eb0034f4 	bl	d938 <init_serial>
     564:	eb001f7f 	bl	8368 <init_mmc>
     568:	eb0026c6 	bl	a088 <init_nand>
     56c:	eb0000a1 	bl	7f8 <init_crypto>
     570:	eb000247 	bl	e94 <init_alternate>
     574:	e3a00000 	mov	r0, #0	; 0x0
     578:	e28dd004 	add	sp, sp, #4	; 0x4
     57c:	e8bd8000 	pop	{pc}

00000580 <main>:
     580:	e52de004 	push	{lr}		; (str lr, [sp, #-4]!)
     584:	e3a00000 	mov	r0, #0	; 0x0
     588:	e24dd004 	sub	sp, sp, #4	; 0x4
     58c:	eb001b7f 	bl	7390 <cdbg_log_toggle>
     590:	ebffffea 	bl	540 <initialization>
     594:	eb0000e1 	bl	920 <gtc_time>
     598:	e3a00001 	mov	r0, #1	; 0x1
     59c:	eb001b7b 	bl	7390 <cdbg_log_toggle>
     5a0:	e59f001c 	ldr	r0, [pc, #28]	; 5c4 <main+0x44>
     5a4:	e59f301c 	ldr	r3, [pc, #28]	; 5c8 <main+0x48>
     5a8:	e1a0e00f 	mov	lr, pc
     5ac:	e593f000 	ldr	pc, [r3]
     5b0:	e3a00000 	mov	r0, #0	; 0x0
     5b4:	eb001b75 	bl	7390 <cdbg_log_toggle>
     5b8:	e3a00000 	mov	r0, #0	; 0x0
     5bc:	ebffffa1 	bl	448 <try_boot>
     5c0:	eafffffe 	b	5c0 <main+0x40>
     5c4:	00016180 	.word	0x00016180
     5c8:	3c00d6cc 	.word	0x3c00d6cc

000005cc <get_xom>:
     5cc:	e59f3004 	ldr	r3, [pc, #4]	; 5d8 <get_xom+0xc>
     5d0:	e1d300b0 	ldrh	r0, [r3]
     5d4:	e12fff1e 	bx	lr
     5d8:	3c00d120 	.word	0x3c00d120

000005dc <set_xom>:
     5dc:	e59f3008 	ldr	r3, [pc, #8]	; 5ec <set_xom+0x10>
     5e0:	e200001f 	and	r0, r0, #31	; 0x1f
     5e4:	e1c300b0 	strh	r0, [r3]
     5e8:	e12fff1e 	bx	lr
     5ec:	3c00d120 	.word	0x3c00d120

000005f0 <init_xom>:
     5f0:	e12fff1e 	bx	lr

000005f4 <boot_info>:
     5f4:	e92d4010 	push	{r4, lr}
     5f8:	eb0000e7 	bl	99c <ecfg_paras>
     5fc:	e1a04000 	mov	r4, r0
     600:	e3a00b01 	mov	r0, #1024	; 0x400
     604:	eb0000db 	bl	978 <ecfg_check_flag>
     608:	e59f3028 	ldr	r3, [pc, #40]	; 638 <boot_info+0x44>
     60c:	e3500000 	cmp	r0, #0	; 0x0
     610:	11d330b0 	ldrhne	r3, [r3]
     614:	01d330b0 	ldrheq	r3, [r3]
     618:	1203301f 	andne	r3, r3, #31	; 0x1f
     61c:	0203301f 	andeq	r3, r3, #31	; 0x1f
     620:	159f2014 	ldrne	r2, [pc, #20]	; 63c <boot_info+0x48>
     624:	11a03083 	lslne	r3, r3, #1
     628:	00843083 	addeq	r3, r4, r3, lsl #1
     62c:	119200b3 	ldrhne	r0, [r2, r3]
     630:	01d302b0 	ldrheq	r0, [r3, #32]
     634:	e8bd8010 	pop	{r4, pc}
     638:	3c00d120 	.word	0x3c00d120
     63c:	00015d40 	.word	0x00015d40

00000640 <boot_device>:
     640:	e52de004 	push	{lr}		; (str lr, [sp, #-4]!)
     644:	e24dd004 	sub	sp, sp, #4	; 0x4
     648:	ebffffe9 	bl	5f4 <boot_info>
     64c:	e1a00620 	lsr	r0, r0, #12
     650:	e6ff0070 	uxth	r0, r0
     654:	e28dd004 	add	sp, sp, #4	; 0x4
     658:	e8bd8000 	pop	{pc}

0000065c <set_pll>:
     65c:	e3500003 	cmp	r0, #3	; 0x3
     660:	e92d45f0 	push	{r4, r5, r6, r7, r8, sl, lr}
     664:	e1a02001 	mov	r2, r1
     668:	88bd85f0 	pophi	{r4, r5, r6, r7, r8, sl, pc}
     66c:	e3a03018 	mov	r3, #24	; 0x18
     670:	e0030093 	mul	r3, r3, r0
     674:	e59f808c 	ldr	r8, [pc, #140]	; 708 <set_pll+0xac>
     678:	e59f108c 	ldr	r1, [pc, #140]	; 70c <set_pll+0xb0>
     67c:	e59f008c 	ldr	r0, [pc, #140]	; 710 <set_pll+0xb4>
     680:	e59fc08c 	ldr	ip, [pc, #140]	; 714 <set_pll+0xb8>
     684:	e59f408c 	ldr	r4, [pc, #140]	; 718 <set_pll+0xbc>
     688:	e59fa08c 	ldr	sl, [pc, #140]	; 71c <set_pll+0xc0>
     68c:	e0838008 	add	r8, r3, r8
     690:	e083c00c 	add	ip, r3, ip
     694:	e0831001 	add	r1, r3, r1
     698:	e3a07001 	mov	r7, #1	; 0x1
     69c:	e0830000 	add	r0, r3, r0
     6a0:	e1a06422 	lsr	r6, r2, #8
     6a4:	e0834004 	add	r4, r3, r4
     6a8:	e3a05000 	mov	r5, #0	; 0x0
     6ac:	e6ef2072 	uxtb	r2, r2
     6b0:	e083a00a 	add	sl, r3, sl
     6b4:	e3a03002 	mov	r3, #2	; 0x2
     6b8:	e5c87000 	strb	r7, [r8]
     6bc:	e5c12000 	strb	r2, [r1]
     6c0:	e5c06000 	strb	r6, [r0]
     6c4:	e5cc5000 	strb	r5, [ip]
     6c8:	e5c43000 	strb	r3, [r4]
     6cc:	e0833007 	add	r3, r3, r7
     6d0:	e5c83000 	strb	r3, [r8]
     6d4:	e1a02005 	mov	r2, r5
     6d8:	e5cc7000 	strb	r7, [ip]
     6dc:	e3011a0a 	movw	r1, #6666	; 0x1a0a
     6e0:	ea000001 	b	6ec <set_pll+0x90>
     6e4:	e1520001 	cmp	r2, r1
     6e8:	0a000003 	beq	6fc <set_pll+0xa0>
     6ec:	e5da3000 	ldrb	r3, [sl]
     6f0:	e2822001 	add	r2, r2, #1	; 0x1
     6f4:	e3130001 	tst	r3, #1	; 0x1
     6f8:	0afffff9 	beq	6e4 <set_pll+0x88>
     6fc:	e3a03002 	mov	r3, #2	; 0x2
     700:	e5883000 	str	r3, [r8]
     704:	e8bd85f0 	pop	{r4, r5, r6, r7, r8, sl, pc}
     708:	21e0a00c 	.word	0x21e0a00c
     70c:	21e0a000 	.word	0x21e0a000
     710:	21e0a004 	.word	0x21e0a004
     714:	21e0a010 	.word	0x21e0a010
     718:	21e0a008 	.word	0x21e0a008
     71c:	21e0a014 	.word	0x21e0a014

00000720 <set_clk_divider>:
     720:	e3500005 	cmp	r0, #5	; 0x5
     724:	812fff1e 	bxhi	lr
     728:	e59fc020 	ldr	ip, [pc, #32]	; 750 <set_clk_divider+0x30>
     72c:	e1a03280 	lsl	r3, r0, #5
     730:	e083c00c 	add	ip, r3, ip
     734:	e3a02000 	mov	r2, #0	; 0x0
     738:	e7d13002 	ldrb	r3, [r1, r2]
     73c:	e2822001 	add	r2, r2, #1	; 0x1
     740:	e3520008 	cmp	r2, #8	; 0x8
     744:	e4cc3004 	strb	r3, [ip], #4
     748:	1afffffa 	bne	738 <set_clk_divider+0x18>
     74c:	e12fff1e 	bx	lr
     750:	21e0a070 	.word	0x21e0a070

00000754 <module_set_clock>:
     754:	e59f3020 	ldr	r3, [pc, #32]	; 77c <module_set_clock+0x28>
     758:	e1500003 	cmp	r0, r3
     75c:	13a03001 	movne	r3, #1	; 0x1
     760:	1580300c 	strne	r3, [r0, #12]
     764:	e2013007 	and	r3, r1, #7	; 0x7
     768:	e5803000 	str	r3, [r0]
     76c:	e3a03000 	mov	r3, #0	; 0x0
     770:	e5802004 	str	r2, [r0, #4]
     774:	e580300c 	str	r3, [r0, #12]
     778:	e12fff1e 	bx	lr
     77c:	21e0a360 	.word	0x21e0a360

00000780 <module_enable>:
     780:	e3a020ff 	mov	r2, #255	; 0xff
     784:	e3a01000 	mov	r1, #0	; 0x0
     788:	e3a03011 	mov	r3, #17	; 0x11
     78c:	e580100c 	str	r1, [r0, #12]
     790:	e5802000 	str	r2, [r0]
     794:	e5802004 	str	r2, [r0, #4]
     798:	e5803008 	str	r3, [r0, #8]
     79c:	e5903008 	ldr	r3, [r0, #8]
     7a0:	e3c33010 	bic	r3, r3, #16	; 0x10
     7a4:	e5803008 	str	r3, [r0, #8]
     7a8:	e5802018 	str	r2, [r0, #24]
     7ac:	e5801000 	str	r1, [r0]
     7b0:	e580200c 	str	r2, [r0, #12]
     7b4:	e12fff1e 	bx	lr

000007b8 <init_lowlevel>:
     7b8:	e3a01000 	mov	r1, #0	; 0x0
     7bc:	e3e00000 	mvn	r0, #0	; 0x0
     7c0:	e59f3018 	ldr	r3, [pc, #24]	; 7e0 <init_lowlevel+0x28>
     7c4:	e1a02101 	lsl	r2, r1, #2
     7c8:	e2811001 	add	r1, r1, #1	; 0x1
     7cc:	e0823003 	add	r3, r2, r3
     7d0:	e3510008 	cmp	r1, #8	; 0x8
     7d4:	e5830000 	str	r0, [r3]
     7d8:	1afffff8 	bne	7c0 <init_lowlevel+0x8>
     7dc:	e12fff1e 	bx	lr
     7e0:	21b01180 	.word	0x21b01180

000007e4 <init_igps_ram>:
     7e4:	e59f3008 	ldr	r3, [pc, #8]	; 7f4 <init_igps_ram+0x10>
     7e8:	e3a02001 	mov	r2, #1	; 0x1
     7ec:	e5832c10 	str	r2, [r3, #3088]
     7f0:	e12fff1e 	bx	lr
     7f4:	21e0a000 	.word	0x21e0a000

000007f8 <init_crypto>:
     7f8:	e12fff1e 	bx	lr

000007fc <get_reset_stats>:
     7fc:	e59f2028 	ldr	r2, [pc, #40]	; 82c <get_reset_stats+0x30>
     800:	e5923c10 	ldr	r3, [r2, #3088]
     804:	e2130002 	ands	r0, r3, #2	; 0x2
     808:	012fff1e 	bxeq	lr
     80c:	e5920c2c 	ldr	r0, [r2, #3116]
     810:	e3100001 	tst	r0, #1	; 0x1
     814:	03a00001 	moveq	r0, #1	; 0x1
     818:	012fff1e 	bxeq	lr
     81c:	e3500037 	cmp	r0, #55	; 0x37
     820:	03a00002 	moveq	r0, #2	; 0x2
     824:	13a00003 	movne	r0, #3	; 0x3
     828:	e12fff1e 	bx	lr
     82c:	21e09000 	.word	0x21e09000

00000830 <update_mask_on_reset>:
     830:	e59f3018 	ldr	r3, [pc, #24]	; 850 <update_mask_on_reset+0x20>
     834:	e5932c30 	ldr	r2, [r3, #3120]
     838:	e3120080 	tst	r2, #128	; 0x80
     83c:	13a03001 	movne	r3, #1	; 0x1
     840:	1202200f 	andne	r2, r2, #15	; 0xf
     844:	11e03213 	mvnne	r3, r3, lsl r2
     848:	15803000 	strne	r3, [r0]
     84c:	e12fff1e 	bx	lr
     850:	21e09000 	.word	0x21e09000

00000854 <get_wakeup_entry>:
     854:	e59f301c 	ldr	r3, [pc, #28]	; 878 <get_wakeup_entry+0x24>
     858:	e5931c38 	ldr	r1, [r3, #3128]
     85c:	e5932c34 	ldr	r2, [r3, #3124]
     860:	e5930c30 	ldr	r0, [r3, #3120]
     864:	e1822401 	orr	r2, r2, r1, lsl #8
     868:	e5933c2c 	ldr	r3, [r3, #3116]
     86c:	e1800402 	orr	r0, r0, r2, lsl #8
     870:	e1830400 	orr	r0, r3, r0, lsl #8
     874:	e12fff1e 	bx	lr
     878:	21e09000 	.word	0x21e09000

0000087c <system_reset>:
     87c:	e59f3010 	ldr	r3, [pc, #16]	; 894 <system_reset+0x18>
     880:	e3a02001 	mov	r2, #1	; 0x1
     884:	e5832c2c 	str	r2, [r3, #3116]
     888:	e2822002 	add	r2, r2, #2	; 0x2
     88c:	e5832c00 	str	r2, [r3, #3072]
     890:	e12fff1e 	bx	lr
     894:	21e09000 	.word	0x21e09000

00000898 <pads_init_module>:
     898:	e92d4030 	push	{r4, r5, lr}
     89c:	e1a05000 	mov	r5, r0
     8a0:	e24dd004 	sub	sp, sp, #4	; 0x4
     8a4:	e59f404c 	ldr	r4, [pc, #76]	; 8f8 <pads_init_module+0x60>
     8a8:	ea00000d 	b	8e4 <pads_init_module+0x4c>
     8ac:	e1500005 	cmp	r0, r5
     8b0:	1a00000a 	bne	8e0 <pads_init_module+0x48>
     8b4:	e3a01000 	mov	r1, #0	; 0x0
     8b8:	e1a02001 	mov	r2, r1
     8bc:	e5140004 	ldr	r0, [r4, #-4]
     8c0:	eb0000c4 	bl	bd8 <pads_chmod>
     8c4:	e3a00101 	mov	r0, #1073741824	; 0x40000000
     8c8:	eb00002a 	bl	978 <ecfg_check_flag>
     8cc:	e3500000 	cmp	r0, #0	; 0x0
     8d0:	0a000002 	beq	8e0 <pads_init_module+0x48>
     8d4:	e8140005 	ldmda	r4, {r0, r2}
     8d8:	e3a01001 	mov	r1, #1	; 0x1
     8dc:	eb000112 	bl	d2c <pads_pull>
     8e0:	e284400c 	add	r4, r4, #12	; 0xc
     8e4:	e5140008 	ldr	r0, [r4, #-8]
     8e8:	e3500000 	cmp	r0, #0	; 0x0
     8ec:	1affffee 	bne	8ac <pads_init_module+0x14>
     8f0:	e28dd004 	add	sp, sp, #4	; 0x4
     8f4:	e8bd8030 	pop	{r4, r5, pc}
     8f8:	3c00d008 	.word	0x3c00d008

000008fc <module_reset>:
     8fc:	e3a030ff 	mov	r3, #255	; 0xff
     900:	e5803000 	str	r3, [r0]
     904:	e92d4010 	push	{r4, lr}
     908:	e1a04000 	mov	r4, r0
     90c:	e3a0000a 	mov	r0, #10	; 0xa
     910:	eb003431 	bl	d9dc <udelay>
     914:	e3a03000 	mov	r3, #0	; 0x0
     918:	e5843000 	str	r3, [r4]
     91c:	e8bd8010 	pop	{r4, pc}

00000920 <gtc_time>:
     920:	e59f3020 	ldr	r3, [pc, #32]	; 948 <gtc_time+0x28>
     924:	e92d4010 	push	{r4, lr}
     928:	e5930000 	ldr	r0, [r3]
     92c:	e59f3018 	ldr	r3, [pc, #24]	; 94c <gtc_time+0x2c>
     930:	e5934000 	ldr	r4, [r3]
     934:	eb00344c 	bl	da6c <get_timer>
     938:	e1a01000 	mov	r1, r0
     93c:	e59f000c 	ldr	r0, [pc, #12]	; 950 <gtc_time+0x30>
     940:	e12fff34 	blx	r4
     944:	e8bd8010 	pop	{r4, pc}
     948:	3c00d124 	.word	0x3c00d124
     94c:	3c00d6cc 	.word	0x3c00d6cc
     950:	00016185 	.word	0x00016185

00000954 <init_gtc>:
     954:	e52de004 	push	{lr}		; (str lr, [sp, #-4]!)
     958:	e3a00000 	mov	r0, #0	; 0x0
     95c:	e24dd004 	sub	sp, sp, #4	; 0x4
     960:	eb003441 	bl	da6c <get_timer>
     964:	e59f3008 	ldr	r3, [pc, #8]	; 974 <init_gtc+0x20>
     968:	e5830000 	str	r0, [r3]
     96c:	e28dd004 	add	sp, sp, #4	; 0x4
     970:	e8bd8000 	pop	{pc}
     974:	3c00d124 	.word	0x3c00d124

00000978 <ecfg_check_flag>:
     978:	e3500801 	cmp	r0, #65536	; 0x10000
     97c:	0a000004 	beq	994 <ecfg_check_flag+0x1c>
     980:	e3500101 	cmp	r0, #1073741824	; 0x40000000
     984:	0a000002 	beq	994 <ecfg_check_flag+0x1c>
     988:	e3500001 	cmp	r0, #1	; 0x1
     98c:	13a00001 	movne	r0, #1	; 0x1
     990:	112fff1e 	bxne	lr
     994:	e3a00000 	mov	r0, #0	; 0x0
     998:	e12fff1e 	bx	lr

0000099c <ecfg_paras>:
     99c:	e59f0000 	ldr	r0, [pc, #0]	; 9a4 <ecfg_paras+0x8>
     9a0:	e12fff1e 	bx	lr
     9a4:	3c00d6d0 	.word	0x3c00d6d0

000009a8 <efuse_mac>:
     9a8:	e3a00000 	mov	r0, #0	; 0x0
     9ac:	e3a01000 	mov	r1, #0	; 0x0
     9b0:	e12fff1e 	bx	lr

000009b4 <efuse_info>:
     9b4:	e92d40f0 	push	{r4, r5, r6, r7, lr}
     9b8:	e1a04000 	mov	r4, r0
     9bc:	e24dd004 	sub	sp, sp, #4	; 0x4
     9c0:	e59f6144 	ldr	r6, [pc, #324]	; b0c <efuse_info+0x158>
     9c4:	e59f0144 	ldr	r0, [pc, #324]	; b10 <efuse_info+0x15c>
     9c8:	e1a0e00f 	mov	lr, pc
     9cc:	e596f000 	ldr	pc, [r6]
     9d0:	e59f013c 	ldr	r0, [pc, #316]	; b14 <efuse_info+0x160>
     9d4:	e1a0e00f 	mov	lr, pc
     9d8:	e596f000 	ldr	pc, [r6]
     9dc:	e3540000 	cmp	r4, #0	; 0x0
     9e0:	0a00003c 	beq	ad8 <efuse_info+0x124>
     9e4:	e59f412c 	ldr	r4, [pc, #300]	; b18 <efuse_info+0x164>
     9e8:	e59f012c 	ldr	r0, [pc, #300]	; b1c <efuse_info+0x168>
     9ec:	e5941000 	ldr	r1, [r4]
     9f0:	e1a0e00f 	mov	lr, pc
     9f4:	e596f000 	ldr	pc, [r6]
     9f8:	e5d41004 	ldrb	r1, [r4, #4]
     9fc:	e59f011c 	ldr	r0, [pc, #284]	; b20 <efuse_info+0x16c>
     a00:	e1a0e00f 	mov	lr, pc
     a04:	e596f000 	ldr	pc, [r6]
     a08:	e5d41005 	ldrb	r1, [r4, #5]
     a0c:	e59f0110 	ldr	r0, [pc, #272]	; b24 <efuse_info+0x170>
     a10:	e1a0e00f 	mov	lr, pc
     a14:	e596f000 	ldr	pc, [r6]
     a18:	e5d41006 	ldrb	r1, [r4, #6]
     a1c:	e59f0104 	ldr	r0, [pc, #260]	; b28 <efuse_info+0x174>
     a20:	e1a0e00f 	mov	lr, pc
     a24:	e596f000 	ldr	pc, [r6]
     a28:	e5d41007 	ldrb	r1, [r4, #7]
     a2c:	e59f00f8 	ldr	r0, [pc, #248]	; b2c <efuse_info+0x178>
     a30:	e1a0e00f 	mov	lr, pc
     a34:	e596f000 	ldr	pc, [r6]
     a38:	e1d410b8 	ldrh	r1, [r4, #8]
     a3c:	e59f00ec 	ldr	r0, [pc, #236]	; b30 <efuse_info+0x17c>
     a40:	e1a0e00f 	mov	lr, pc
     a44:	e596f000 	ldr	pc, [r6]
     a48:	e1d410ba 	ldrh	r1, [r4, #10]
     a4c:	e59f00e0 	ldr	r0, [pc, #224]	; b34 <efuse_info+0x180>
     a50:	e1a0e00f 	mov	lr, pc
     a54:	e596f000 	ldr	pc, [r6]
     a58:	e1d410bc 	ldrh	r1, [r4, #12]
     a5c:	e59f00d4 	ldr	r0, [pc, #212]	; b38 <efuse_info+0x184>
     a60:	e1a0e00f 	mov	lr, pc
     a64:	e596f000 	ldr	pc, [r6]
     a68:	e1d410be 	ldrh	r1, [r4, #14]
     a6c:	e59f00c8 	ldr	r0, [pc, #200]	; b3c <efuse_info+0x188>
     a70:	e1a0e00f 	mov	lr, pc
     a74:	e596f000 	ldr	pc, [r6]
     a78:	e1a05004 	mov	r5, r4
     a7c:	e3a04000 	mov	r4, #0	; 0x0
     a80:	e1a01004 	mov	r1, r4
     a84:	e5952010 	ldr	r2, [r5, #16]
     a88:	e2844001 	add	r4, r4, #1	; 0x1
     a8c:	e59f00ac 	ldr	r0, [pc, #172]	; b40 <efuse_info+0x18c>
     a90:	e1a0e00f 	mov	lr, pc
     a94:	e596f000 	ldr	pc, [r6]
     a98:	e3540004 	cmp	r4, #4	; 0x4
     a9c:	e2855004 	add	r5, r5, #4	; 0x4
     aa0:	1afffff6 	bne	a80 <efuse_info+0xcc>
     aa4:	e59f6060 	ldr	r6, [pc, #96]	; b0c <efuse_info+0x158>
     aa8:	e59f5068 	ldr	r5, [pc, #104]	; b18 <efuse_info+0x164>
     aac:	e284400c 	add	r4, r4, #12	; 0xc
     ab0:	e1a03084 	lsl	r3, r4, #1
     ab4:	e1a01004 	mov	r1, r4
     ab8:	e19520b3 	ldrh	r2, [r5, r3]
     abc:	e2844001 	add	r4, r4, #1	; 0x1
     ac0:	e59f007c 	ldr	r0, [pc, #124]	; b44 <efuse_info+0x190>
     ac4:	e1a0e00f 	mov	lr, pc
     ac8:	e596f000 	ldr	pc, [r6]
     acc:	e354001c 	cmp	r4, #28	; 0x1c
     ad0:	1afffff6 	bne	ab0 <efuse_info+0xfc>
     ad4:	ea00000a 	b	b04 <efuse_info+0x150>
     ad8:	e59f4068 	ldr	r4, [pc, #104]	; b48 <efuse_info+0x194>
     adc:	e59f7068 	ldr	r7, [pc, #104]	; b4c <efuse_info+0x198>
     ae0:	e1a05006 	mov	r5, r6
     ae4:	e5942000 	ldr	r2, [r4]
     ae8:	e1a01004 	mov	r1, r4
     aec:	e59f005c 	ldr	r0, [pc, #92]	; b50 <efuse_info+0x19c>
     af0:	e2844004 	add	r4, r4, #4	; 0x4
     af4:	e1a0e00f 	mov	lr, pc
     af8:	e595f000 	ldr	pc, [r5]
     afc:	e1540007 	cmp	r4, r7
     b00:	1afffff7 	bne	ae4 <efuse_info+0x130>
     b04:	e28dd004 	add	sp, sp, #4	; 0x4
     b08:	e8bd80f0 	pop	{r4, r5, r6, r7, pc}
     b0c:	3c00d6cc 	.word	0x3c00d6cc
     b10:	0001618d 	.word	0x0001618d
     b14:	000185c3 	.word	0x000185c3
     b18:	3c00d6d0 	.word	0x3c00d6d0
     b1c:	000161a2 	.word	0x000161a2
     b20:	000161b1 	.word	0x000161b1
     b24:	000161c0 	.word	0x000161c0
     b28:	000161d3 	.word	0x000161d3
     b2c:	000161e2 	.word	0x000161e2
     b30:	000161f7 	.word	0x000161f7
     b34:	00016204 	.word	0x00016204
     b38:	00016214 	.word	0x00016214
     b3c:	00016225 	.word	0x00016225
     b40:	00016237 	.word	0x00016237
     b44:	00016247 	.word	0x00016247
     b48:	21e0d9b4 	.word	0x21e0d9b4
     b4c:	21e0da94 	.word	0x21e0da94
     b50:	00016258 	.word	0x00016258

00000b54 <init_efuse>:
     b54:	e59f0008 	ldr	r0, [pc, #8]	; b64 <init_efuse+0x10>
     b58:	e3a01000 	mov	r1, #0	; 0x0
     b5c:	e3a02038 	mov	r2, #56	; 0x38
     b60:	ea000273 	b	1534 <memset>
     b64:	3c00d6d0 	.word	0x3c00d6d0

00000b68 <assert_linkpc>:
     b68:	e59f300c 	ldr	r3, [pc, #12]	; b7c <assert_linkpc+0x14>
     b6c:	e5930440 	ldr	r0, [r3, #1088]
     b70:	e2700001 	rsbs	r0, r0, #1	; 0x1
     b74:	33a00000 	movcc	r0, #0	; 0x0
     b78:	e12fff1e 	bx	lr
     b7c:	20f02000 	.word	0x20f02000

00000b80 <pads_states>:
     b80:	e3500000 	cmp	r0, #0	; 0x0
     b84:	e2803007 	add	r3, r0, #7	; 0x7
     b88:	a1a03000 	movge	r3, r0
     b8c:	e1a031c3 	asr	r3, r3, #3
     b90:	e59f203c 	ldr	r2, [pc, #60]	; bd4 <pads_states+0x54>
     b94:	e1a03103 	lsl	r3, r3, #2
     b98:	e0832002 	add	r2, r3, r2
     b9c:	e5921000 	ldr	r1, [r2]
     ba0:	e3a03001 	mov	r3, #1	; 0x1
     ba4:	e2002007 	and	r2, r0, #7	; 0x7
     ba8:	e0113213 	ands	r3, r1, r3, lsl r2
     bac:	01a00003 	moveq	r0, r3
     bb0:	012fff1e 	bxeq	lr
     bb4:	e1a03300 	lsl	r3, r0, #6
     bb8:	e2833282 	add	r3, r3, #536870920	; 0x20000008
     bbc:	e283360f 	add	r3, r3, #15728640	; 0xf00000
     bc0:	e5933000 	ldr	r3, [r3]
     bc4:	e3530000 	cmp	r3, #0	; 0x0
     bc8:	13a00002 	movne	r0, #2	; 0x2
     bcc:	03a00001 	moveq	r0, #1	; 0x1
     bd0:	e12fff1e 	bx	lr
     bd4:	21e09064 	.word	0x21e09064

00000bd8 <pads_chmod>:
     bd8:	e92d4ff0 	push	{r4, r5, r6, r7, r8, r9, sl, fp, lr}
     bdc:	e1b08840 	asrs	r8, r0, #16
     be0:	e1a00800 	lsl	r0, r0, #16
     be4:	03a03000 	moveq	r3, #0	; 0x0
     be8:	13a03001 	movne	r3, #1	; 0x1
     bec:	e1a00820 	lsr	r0, r0, #16
     bf0:	e1580000 	cmp	r8, r0
     bf4:	a3a0c000 	movge	ip, #0	; 0x0
     bf8:	b203c001 	andlt	ip, r3, #1	; 0x1
     bfc:	e35c0000 	cmp	ip, #0	; 0x0
     c00:	e24dd004 	sub	sp, sp, #4	; 0x4
     c04:	e1a06001 	mov	r6, r1
     c08:	e1a0b002 	mov	fp, r2
     c0c:	1a000040 	bne	d14 <pads_chmod+0x13c>
     c10:	e2803883 	add	r3, r0, #8585216	; 0x830000
     c14:	e2833903 	add	r3, r3, #49152	; 0xc000
     c18:	e1a02303 	lsl	r2, r3, #6
     c1c:	e3580000 	cmp	r8, #0	; 0x0
     c20:	01a08000 	moveq	r8, r0
     c24:	e2827008 	add	r7, r2, #8	; 0x8
     c28:	e282a004 	add	sl, r2, #4	; 0x4
     c2c:	e1a04000 	mov	r4, r0
     c30:	e240501f 	sub	r5, r0, #31	; 0x1f
     c34:	e3a09001 	mov	r9, #1	; 0x1
     c38:	ea000033 	b	d0c <pads_chmod+0x134>
     c3c:	e3540000 	cmp	r4, #0	; 0x0
     c40:	e2843007 	add	r3, r4, #7	; 0x7
     c44:	a1a03004 	movge	r3, r4
     c48:	e3550006 	cmp	r5, #6	; 0x6
     c4c:	959f20c8 	ldrls	r2, [pc, #200]	; d1c <pads_chmod+0x144>
     c50:	e1a011c3 	asr	r1, r3, #3
     c54:	95923008 	ldrls	r3, [r2, #8]
     c58:	e2040007 	and	r0, r4, #7	; 0x7
     c5c:	91833519 	orrls	r3, r3, r9, lsl r5
     c60:	95823008 	strls	r3, [r2, #8]
     c64:	e3560001 	cmp	r6, #1	; 0x1
     c68:	0a00000a 	beq	c98 <pads_chmod+0xc0>
     c6c:	e3560002 	cmp	r6, #2	; 0x2
     c70:	0a000011 	beq	cbc <pads_chmod+0xe4>
     c74:	e3560000 	cmp	r6, #0	; 0x0
     c78:	1a00001a 	bne	ce8 <pads_chmod+0x110>
     c7c:	e59f309c 	ldr	r3, [pc, #156]	; d20 <pads_chmod+0x148>
     c80:	e1a02101 	lsl	r2, r1, #2
     c84:	e0823003 	add	r3, r2, r3
     c88:	e5932000 	ldr	r2, [r3]
     c8c:	e1c22019 	bic	r2, r2, r9, lsl r0
     c90:	e5832000 	str	r2, [r3]
     c94:	ea000018 	b	cfc <pads_chmod+0x124>
     c98:	e59f3080 	ldr	r3, [pc, #128]	; d20 <pads_chmod+0x148>
     c9c:	e1a02101 	lsl	r2, r1, #2
     ca0:	e0823003 	add	r3, r2, r3
     ca4:	e5932000 	ldr	r2, [r3]
     ca8:	e1822016 	orr	r2, r2, r6, lsl r0
     cac:	e5832000 	str	r2, [r3]
     cb0:	e3a03000 	mov	r3, #0	; 0x0
     cb4:	e5873000 	str	r3, [r7]
     cb8:	ea00000f 	b	cfc <pads_chmod+0x124>
     cbc:	e59f205c 	ldr	r2, [pc, #92]	; d20 <pads_chmod+0x148>
     cc0:	e1a03101 	lsl	r3, r1, #2
     cc4:	e0832002 	add	r2, r3, r2
     cc8:	e5923000 	ldr	r3, [r2]
     ccc:	e25b1000 	subs	r1, fp, #0	; 0x0
     cd0:	13a01001 	movne	r1, #1	; 0x1
     cd4:	e1833019 	orr	r3, r3, r9, lsl r0
     cd8:	e5823000 	str	r3, [r2]
     cdc:	e5879000 	str	r9, [r7]
     ce0:	e58a1000 	str	r1, [sl]
     ce4:	ea000004 	b	cfc <pads_chmod+0x124>
     ce8:	e59f0034 	ldr	r0, [pc, #52]	; d24 <pads_chmod+0x14c>
     cec:	e1a01006 	mov	r1, r6
     cf0:	e59f2030 	ldr	r2, [pc, #48]	; d28 <pads_chmod+0x150>
     cf4:	e1a0e00f 	mov	lr, pc
     cf8:	e592f000 	ldr	pc, [r2]
     cfc:	e2844001 	add	r4, r4, #1	; 0x1
     d00:	e2877040 	add	r7, r7, #64	; 0x40
     d04:	e28aa040 	add	sl, sl, #64	; 0x40
     d08:	e2855001 	add	r5, r5, #1	; 0x1
     d0c:	e1540008 	cmp	r4, r8
     d10:	daffffc9 	ble	c3c <pads_chmod+0x64>
     d14:	e28dd004 	add	sp, sp, #4	; 0x4
     d18:	e8bd8ff0 	pop	{r4, r5, r6, r7, r8, r9, sl, fp, pc}
     d1c:	21e09000 	.word	0x21e09000
     d20:	21e09064 	.word	0x21e09064
     d24:	00016268 	.word	0x00016268
     d28:	3c00d6cc 	.word	0x3c00d6cc

00000d2c <pads_pull>:
     d2c:	e92d47f0 	push	{r4, r5, r6, r7, r8, r9, sl, lr}
     d30:	e1b06840 	asrs	r6, r0, #16
     d34:	e1a00800 	lsl	r0, r0, #16
     d38:	03a03000 	moveq	r3, #0	; 0x0
     d3c:	13a03001 	movne	r3, #1	; 0x1
     d40:	e1a00820 	lsr	r0, r0, #16
     d44:	e1560000 	cmp	r6, r0
     d48:	a3a03000 	movge	r3, #0	; 0x0
     d4c:	b2033001 	andlt	r3, r3, #1	; 0x1
     d50:	e3530000 	cmp	r3, #0	; 0x0
     d54:	e1a09001 	mov	r9, r1
     d58:	e1a0a002 	mov	sl, r2
     d5c:	18bd87f0 	popne	{r4, r5, r6, r7, r8, r9, sl, pc}
     d60:	e3560000 	cmp	r6, #0	; 0x0
     d64:	01a06000 	moveq	r6, r0
     d68:	e1a0c000 	mov	ip, r0
     d6c:	e1a07003 	mov	r7, r3
     d70:	e240501f 	sub	r5, r0, #31	; 0x1f
     d74:	e3a08001 	mov	r8, #1	; 0x1
     d78:	ea000020 	b	e00 <pads_pull+0xd4>
     d7c:	e35c0000 	cmp	ip, #0	; 0x0
     d80:	e28c3007 	add	r3, ip, #7	; 0x7
     d84:	a1a0300c 	movge	r3, ip
     d88:	e1a031c3 	asr	r3, r3, #3
     d8c:	e3590000 	cmp	r9, #0	; 0x0
     d90:	e1a00103 	lsl	r0, r3, #2
     d94:	e20c4007 	and	r4, ip, #7	; 0x7
     d98:	059f206c 	ldreq	r2, [pc, #108]	; e0c <pads_pull+0xe0>
     d9c:	00802002 	addeq	r2, r0, r2
     da0:	05923000 	ldreq	r3, [r2]
     da4:	01c33418 	biceq	r3, r3, r8, lsl r4
     da8:	0a000010 	beq	df0 <pads_pull+0xc4>
     dac:	e3550006 	cmp	r5, #6	; 0x6
     db0:	859f2058 	ldrhi	r2, [pc, #88]	; e10 <pads_pull+0xe4>
     db4:	91a03005 	movls	r3, r5
     db8:	81a03004 	movhi	r3, r4
     dbc:	959f2050 	ldrls	r2, [pc, #80]	; e14 <pads_pull+0xe8>
     dc0:	80802002 	addhi	r2, r0, r2
     dc4:	e01a1718 	ands	r1, sl, r8, lsl r7
     dc8:	e1a01318 	lsl	r1, r8, r3
     dcc:	15923000 	ldrne	r3, [r2]
     dd0:	05923000 	ldreq	r3, [r2]
     dd4:	11813003 	orrne	r3, r1, r3
     dd8:	01c33001 	biceq	r3, r3, r1
     ddc:	e5823000 	str	r3, [r2]
     de0:	e59f2024 	ldr	r2, [pc, #36]	; e0c <pads_pull+0xe0>
     de4:	e0802002 	add	r2, r0, r2
     de8:	e5923000 	ldr	r3, [r2]
     dec:	e1833418 	orr	r3, r3, r8, lsl r4
     df0:	e5823000 	str	r3, [r2]
     df4:	e28cc001 	add	ip, ip, #1	; 0x1
     df8:	e2877001 	add	r7, r7, #1	; 0x1
     dfc:	e2855001 	add	r5, r5, #1	; 0x1
     e00:	e15c0006 	cmp	ip, r6
     e04:	daffffdc 	ble	d7c <pads_pull+0x50>
     e08:	e8bd87f0 	pop	{r4, r5, r6, r7, r8, r9, sl, pc}
     e0c:	21e09014 	.word	0x21e09014
     e10:	21e091a4 	.word	0x21e091a4
     e14:	21e0900c 	.word	0x21e0900c

00000e18 <pads_setpin>:
     e18:	e1b0c840 	asrs	ip, r0, #16
     e1c:	e1a00800 	lsl	r0, r0, #16
     e20:	03a03000 	moveq	r3, #0	; 0x0
     e24:	13a03001 	movne	r3, #1	; 0x1
     e28:	e1a00820 	lsr	r0, r0, #16
     e2c:	e15c0000 	cmp	ip, r0
     e30:	a3a03000 	movge	r3, #0	; 0x0
     e34:	b2033001 	andlt	r3, r3, #1	; 0x1
     e38:	e3530000 	cmp	r3, #0	; 0x0
     e3c:	112fff1e 	bxne	lr
     e40:	e1a03300 	lsl	r3, r0, #6
     e44:	e2832242 	add	r2, r3, #536870916	; 0x20000004
     e48:	e35c0000 	cmp	ip, #0	; 0x0
     e4c:	01a0c000 	moveq	ip, r0
     e50:	e282260f 	add	r2, r2, #15728640	; 0xf00000
     e54:	ea000002 	b	e64 <pads_setpin+0x4c>
     e58:	e2513000 	subs	r3, r1, #0	; 0x0
     e5c:	13a03001 	movne	r3, #1	; 0x1
     e60:	e4823040 	str	r3, [r2], #64
     e64:	e150000c 	cmp	r0, ip
     e68:	e2800001 	add	r0, r0, #1	; 0x1
     e6c:	dafffff9 	ble	e58 <pads_setpin+0x40>
     e70:	e12fff1e 	bx	lr

00000e74 <pads_getpin>:
     e74:	e59f3014 	ldr	r3, [pc, #20]	; e90 <pads_getpin+0x1c>
     e78:	e6f30070 	uxtah	r0, r3, r0
     e7c:	e1a00300 	lsl	r0, r0, #6
     e80:	e5900000 	ldr	r0, [r0]
     e84:	e2500000 	subs	r0, r0, #0	; 0x0
     e88:	13a00001 	movne	r0, #1	; 0x1
     e8c:	e12fff1e 	bx	lr
     e90:	0083c000 	.word	0x0083c000

00000e94 <init_alternate>:
     e94:	e52de004 	push	{lr}		; (str lr, [sp, #-4]!)
     e98:	e59f0030 	ldr	r0, [pc, #48]	; ed0 <init_alternate+0x3c>
     e9c:	e24dd004 	sub	sp, sp, #4	; 0x4
     ea0:	ebfffe36 	bl	780 <module_enable>
     ea4:	e3a00091 	mov	r0, #145	; 0x91
     ea8:	e3a01001 	mov	r1, #1	; 0x1
     eac:	e3a02000 	mov	r2, #0	; 0x0
     eb0:	ebffff48 	bl	bd8 <pads_chmod>
     eb4:	e3a01001 	mov	r1, #1	; 0x1
     eb8:	e3a00091 	mov	r0, #145	; 0x91
     ebc:	e1a02001 	mov	r2, r1
     ec0:	ebffff99 	bl	d2c <pads_pull>
     ec4:	e3a00000 	mov	r0, #0	; 0x0
     ec8:	e28dd004 	add	sp, sp, #4	; 0x4
     ecc:	e8bd8000 	pop	{pc}
     ed0:	21e13c00 	.word	0x21e13c00

00000ed4 <cpu_recase>:
     ed4:	e92d4010 	push	{r4, lr}
     ed8:	e59f10a8 	ldr	r1, [pc, #168]	; f88 <cpu_recase+0xb4>
     edc:	e3a02003 	mov	r2, #3	; 0x3
     ee0:	e1a04000 	mov	r4, r0
     ee4:	eb000161 	bl	1470 <strncmp>
     ee8:	e3500000 	cmp	r0, #0	; 0x0
     eec:	0a00000b 	beq	f20 <cpu_recase+0x4c>
     ef0:	e1a00004 	mov	r0, r4
     ef4:	e59f1090 	ldr	r1, [pc, #144]	; f8c <cpu_recase+0xb8>
     ef8:	e3a02003 	mov	r2, #3	; 0x3
     efc:	eb00015b 	bl	1470 <strncmp>
     f00:	e3500000 	cmp	r0, #0	; 0x0
     f04:	0a000005 	beq	f20 <cpu_recase+0x4c>
     f08:	e1a00004 	mov	r0, r4
     f0c:	e59f107c 	ldr	r1, [pc, #124]	; f90 <cpu_recase+0xbc>
     f10:	e3a02003 	mov	r2, #3	; 0x3
     f14:	eb000155 	bl	1470 <strncmp>
     f18:	e3500000 	cmp	r0, #0	; 0x0
     f1c:	1a000001 	bne	f28 <cpu_recase+0x54>
     f20:	e3a02002 	mov	r2, #2	; 0x2
     f24:	ea000006 	b	f44 <cpu_recase+0x70>
     f28:	e1a00004 	mov	r0, r4
     f2c:	e59f1060 	ldr	r1, [pc, #96]	; f94 <cpu_recase+0xc0>
     f30:	e3a02004 	mov	r2, #4	; 0x4
     f34:	eb00014d 	bl	1470 <strncmp>
     f38:	e3500000 	cmp	r0, #0	; 0x0
     f3c:	18bd8010 	popne	{r4, pc}
     f40:	e3a02001 	mov	r2, #1	; 0x1
     f44:	e59f304c 	ldr	r3, [pc, #76]	; f98 <cpu_recase+0xc4>
     f48:	e59f4048 	ldr	r4, [pc, #72]	; f98 <cpu_recase+0xc4>
     f4c:	e59f1048 	ldr	r1, [pc, #72]	; f9c <cpu_recase+0xc8>
     f50:	e5832000 	str	r2, [r3]
     f54:	e5942000 	ldr	r2, [r4]
     f58:	e5913000 	ldr	r3, [r1]
     f5c:	e1520003 	cmp	r2, r3
     f60:	08bd8010 	popeq	{r4, pc}
     f64:	e1a00002 	mov	r0, r2
     f68:	e5812000 	str	r2, [r1]
     f6c:	eb00009f 	bl	11f0 <set_mux>
     f70:	e5941000 	ldr	r1, [r4]
     f74:	e59f0024 	ldr	r0, [pc, #36]	; fa0 <cpu_recase+0xcc>
     f78:	e59f3024 	ldr	r3, [pc, #36]	; fa4 <cpu_recase+0xd0>
     f7c:	e1a0e00f 	mov	lr, pc
     f80:	e593f000 	ldr	pc, [r3]
     f84:	e8bd8010 	pop	{r4, pc}
     f88:	00016127 	.word	0x00016127
     f8c:	0001627f 	.word	0x0001627f
     f90:	00016283 	.word	0x00016283
     f94:	00016287 	.word	0x00016287
     f98:	3c00d128 	.word	0x3c00d128
     f9c:	3c00d084 	.word	0x3c00d084
     fa0:	0001628c 	.word	0x0001628c
     fa4:	3c00d6cc 	.word	0x3c00d6cc

00000fa8 <set_clk>:
     fa8:	e92d4030 	push	{r4, r5, lr}
     fac:	e1d010b2 	ldrh	r1, [r0, #2]
     fb0:	e24dd004 	sub	sp, sp, #4	; 0x4
     fb4:	e3510000 	cmp	r1, #0	; 0x0
     fb8:	e1a04000 	mov	r4, r0
     fbc:	0a000001 	beq	fc8 <set_clk+0x20>
     fc0:	e3a00001 	mov	r0, #1	; 0x1
     fc4:	ebfffda4 	bl	65c <set_pll>
     fc8:	e1d410b4 	ldrh	r1, [r4, #4]
     fcc:	e3510000 	cmp	r1, #0	; 0x0
     fd0:	0a000001 	beq	fdc <set_clk+0x34>
     fd4:	e3a00002 	mov	r0, #2	; 0x2
     fd8:	ebfffd9f 	bl	65c <set_pll>
     fdc:	e1d410b6 	ldrh	r1, [r4, #6]
     fe0:	e3510000 	cmp	r1, #0	; 0x0
     fe4:	0a000001 	beq	ff0 <set_clk+0x48>
     fe8:	e3a00003 	mov	r0, #3	; 0x3
     fec:	ebfffd9a 	bl	65c <set_pll>
     ff0:	e59f00c4 	ldr	r0, [pc, #196]	; 10bc <set_clk+0x114>
     ff4:	e3a01000 	mov	r1, #0	; 0x0
     ff8:	e3a02003 	mov	r2, #3	; 0x3
     ffc:	ebfffdd4 	bl	754 <module_set_clock>
    1000:	e59f00b8 	ldr	r0, [pc, #184]	; 10c0 <set_clk+0x118>
    1004:	e3a01001 	mov	r1, #1	; 0x1
    1008:	e3a0200b 	mov	r2, #11	; 0xb
    100c:	ebfffdd0 	bl	754 <module_set_clock>
    1010:	e59f00ac 	ldr	r0, [pc, #172]	; 10c4 <set_clk+0x11c>
    1014:	e3a01001 	mov	r1, #1	; 0x1
    1018:	e3a02005 	mov	r2, #5	; 0x5
    101c:	ebfffdcc 	bl	754 <module_set_clock>
    1020:	e59f00a0 	ldr	r0, [pc, #160]	; 10c8 <set_clk+0x120>
    1024:	e3a01001 	mov	r1, #1	; 0x1
    1028:	e3a02013 	mov	r2, #19	; 0x13
    102c:	ebfffdc8 	bl	754 <module_set_clock>
    1030:	e59f0094 	ldr	r0, [pc, #148]	; 10cc <set_clk+0x124>
    1034:	e3a01002 	mov	r1, #2	; 0x2
    1038:	e3a0200f 	mov	r2, #15	; 0xf
    103c:	ebfffdc4 	bl	754 <module_set_clock>
    1040:	e59f0088 	ldr	r0, [pc, #136]	; 10d0 <set_clk+0x128>
    1044:	e3a01002 	mov	r1, #2	; 0x2
    1048:	e3a02005 	mov	r2, #5	; 0x5
    104c:	ebfffdc0 	bl	754 <module_set_clock>
    1050:	e59f007c 	ldr	r0, [pc, #124]	; 10d4 <set_clk+0x12c>
    1054:	e3a01002 	mov	r1, #2	; 0x2
    1058:	e3a0200b 	mov	r2, #11	; 0xb
    105c:	ebfffdbc 	bl	754 <module_set_clock>
    1060:	e59f0070 	ldr	r0, [pc, #112]	; 10d8 <set_clk+0x130>
    1064:	e3a01002 	mov	r1, #2	; 0x2
    1068:	e3a02019 	mov	r2, #25	; 0x19
    106c:	ebfffdb8 	bl	754 <module_set_clock>
    1070:	e59f4064 	ldr	r4, [pc, #100]	; 10dc <set_clk+0x134>
    1074:	e59f5040 	ldr	r5, [pc, #64]	; 10bc <set_clk+0x114>
    1078:	e3a01003 	mov	r1, #3	; 0x3
    107c:	e1a00004 	mov	r0, r4
    1080:	e1a02001 	mov	r2, r1
    1084:	e2844010 	add	r4, r4, #16	; 0x10
    1088:	ebfffdb1 	bl	754 <module_set_clock>
    108c:	e1540005 	cmp	r4, r5
    1090:	1afffff8 	bne	1078 <set_clk+0xd0>
    1094:	e59f0044 	ldr	r0, [pc, #68]	; 10e0 <set_clk+0x138>
    1098:	e3a01003 	mov	r1, #3	; 0x3
    109c:	e3a02013 	mov	r2, #19	; 0x13
    10a0:	ebfffdab 	bl	754 <module_set_clock>
    10a4:	e59f0038 	ldr	r0, [pc, #56]	; 10e4 <set_clk+0x13c>
    10a8:	e3a01000 	mov	r1, #0	; 0x0
    10ac:	e3a02005 	mov	r2, #5	; 0x5
    10b0:	e28dd004 	add	sp, sp, #4	; 0x4
    10b4:	e8bd4030 	pop	{r4, r5, lr}
    10b8:	eafffda5 	b	754 <module_set_clock>
    10bc:	21e0a190 	.word	0x21e0a190
    10c0:	21e0a250 	.word	0x21e0a250
    10c4:	21e0a270 	.word	0x21e0a270
    10c8:	21e0a2c0 	.word	0x21e0a2c0
    10cc:	a240      	.short	0xa240
    10ce:	e0          	.byte	0xe0
    10cf:	21          	.byte	0x21
    10d0:	21e0a2f0 	.word	0x21e0a2f0
    10d4:	21e0a2e0 	.word	0x21e0a2e0
    10d8:	21e0a290 	.word	0x21e0a290
    10dc:	21e0a130 	.word	0x21e0a130
    10e0:	21e0a260 	.word	0x21e0a260
    10e4:	21e0a360 	.word	0x21e0a360

000010e8 <chip_test>:
    10e8:	e59f0044 	ldr	r0, [pc, #68]	; 1134 <end+0x4>
    10ec:	e5901000 	ldr	r1, [r0]
    10f0:	e59f2040 	ldr	r2, [pc, #64]	; 1138 <end+0x8>
    10f4:	e1520001 	cmp	r2, r1
    10f8:	1a00000c 	bne	1130 <end>
    10fc:	e5901004 	ldr	r1, [r0, #4]
    1100:	e59f2034 	ldr	r2, [pc, #52]	; 113c <end+0xc>
    1104:	e1520001 	cmp	r2, r1
    1108:	1a000008 	bne	1130 <end>
    110c:	e5901008 	ldr	r1, [r0, #8]
    1110:	e59f2028 	ldr	r2, [pc, #40]	; 1140 <end+0x10>
    1114:	e1520001 	cmp	r2, r1
    1118:	1a000004 	bne	1130 <end>
    111c:	e590100c 	ldr	r1, [r0, #12]
    1120:	e59f201c 	ldr	r2, [pc, #28]	; 1144 <end+0x14>
    1124:	e1520001 	cmp	r2, r1
    1128:	1a000000 	bne	1130 <end>
    112c:	e3a0f30f 	mov	pc, #1006632960	; 0x3c000000

00001130 <end>:
    1130:	e1a0f00e 	mov	pc, lr
    1134:	3c007ff0 	.word	0x3c007ff0
    1138:	6f666e69 	.word	0x6f666e69
    113c:	612d6d74 	.word	0x612d6d74
    1140:	2d6e696c 	.word	0x2d6e696c
    1144:	796c6e6f 	.word	0x796c6e6f

00001148 <module_get_clock>:
    1148:	e59f3080 	ldr	r3, [pc, #128]	; 11d0 <module_get_clock+0x88>
    114c:	e1500003 	cmp	r0, r3
    1150:	0a000018 	beq	11b8 <module_get_clock+0x70>
    1154:	8a00000b 	bhi	1188 <module_get_clock+0x40>
    1158:	e3500003 	cmp	r0, #3	; 0x3
    115c:	059f0070 	ldreq	r0, [pc, #112]	; 11d4 <module_get_clock+0x8c>
    1160:	012fff1e 	bxeq	lr
    1164:	8a000002 	bhi	1174 <module_get_clock+0x2c>
    1168:	e3500001 	cmp	r0, #1	; 0x1
    116c:	1a000015 	bne	11c8 <module_get_clock+0x80>
    1170:	ea000012 	b	11c0 <module_get_clock+0x78>
    1174:	e59f305c 	ldr	r3, [pc, #92]	; 11d8 <module_get_clock+0x90>
    1178:	e1500003 	cmp	r0, r3
    117c:	12833010 	addne	r3, r3, #16	; 0x10
    1180:	1a00000a 	bne	11b0 <module_get_clock+0x68>
    1184:	ea00000b 	b	11b8 <module_get_clock+0x70>
    1188:	e59f304c 	ldr	r3, [pc, #76]	; 11dc <module_get_clock+0x94>
    118c:	e1500003 	cmp	r0, r3
    1190:	0a000008 	beq	11b8 <module_get_clock+0x70>
    1194:	92433020 	subls	r3, r3, #32	; 0x20
    1198:	9a000004 	bls	11b0 <module_get_clock+0x68>
    119c:	e59f303c 	ldr	r3, [pc, #60]	; 11e0 <module_get_clock+0x98>
    11a0:	e1500003 	cmp	r0, r3
    11a4:	059f0038 	ldreq	r0, [pc, #56]	; 11e4 <module_get_clock+0x9c>
    11a8:	012fff1e 	bxeq	lr
    11ac:	e28330a0 	add	r3, r3, #160	; 0xa0
    11b0:	e1500003 	cmp	r0, r3
    11b4:	1a000003 	bne	11c8 <module_get_clock+0x80>
    11b8:	e59f0028 	ldr	r0, [pc, #40]	; 11e8 <module_get_clock+0xa0>
    11bc:	e12fff1e 	bx	lr
    11c0:	e59f0024 	ldr	r0, [pc, #36]	; 11ec <module_get_clock+0xa4>
    11c4:	e12fff1e 	bx	lr
    11c8:	e3a00000 	mov	r0, #0	; 0x0
    11cc:	e12fff1e 	bx	lr
    11d0:	21e0a260 	.word	0x21e0a260
    11d4:	00989680 	.word	0x00989680
    11d8:	21e0a240 	.word	0x21e0a240
    11dc:	21e0a290 	.word	0x21e0a290
    11e0:	21e0a2c0 	.word	0x21e0a2c0
    11e4:	02dc6c00 	.word	0x02dc6c00
    11e8:	02625a00 	.word	0x02625a00
    11ec:	01312d00 	.word	0x01312d00

000011f0 <set_mux>:
    11f0:	e59f3004 	ldr	r3, [pc, #4]	; 11fc <set_mux+0xc>
    11f4:	e5830000 	str	r0, [r3]
    11f8:	e12fff1e 	bx	lr
    11fc:	21e09000 	.word	0x21e09000

00001200 <efuse_inject>:
    1200:	e92d4010 	push	{r4, lr}
    1204:	e24dd058 	sub	sp, sp, #88	; 0x58
    1208:	e3a01000 	mov	r1, #0	; 0x0
    120c:	e3a02038 	mov	r2, #56	; 0x38
    1210:	e1a0000d 	mov	r0, sp
    1214:	eb0000c6 	bl	1534 <memset>
    1218:	e3a03017 	mov	r3, #23	; 0x17
    121c:	e5cd3004 	strb	r3, [sp, #4]
    1220:	e3a03016 	mov	r3, #22	; 0x16
    1224:	e5cd3005 	strb	r3, [sp, #5]
    1228:	e3e03078 	mvn	r3, #120	; 0x78
    122c:	e5cd3006 	strb	r3, [sp, #6]
    1230:	e28330ca 	add	r3, r3, #202	; 0xca
    1234:	e5cd3007 	strb	r3, [sp, #7]
    1238:	e3073259 	movw	r3, #29273	; 0x7259
    123c:	e1cd30b8 	strh	r3, [sp, #8]
    1240:	e3043023 	movw	r3, #16419	; 0x4023
    1244:	e1cd30ba 	strh	r3, [sp, #10]
    1248:	e3003994 	movw	r3, #2452	; 0x994
    124c:	e1cd30be 	strh	r3, [sp, #14]
    1250:	e59f310c 	ldr	r3, [pc, #268]	; 1364 <efuse_inject+0x164>
    1254:	e59f110c 	ldr	r1, [pc, #268]	; 1368 <efuse_inject+0x168>
    1258:	e58d3010 	str	r3, [sp, #16]
    125c:	e59f3108 	ldr	r3, [pc, #264]	; 136c <efuse_inject+0x16c>
    1260:	e3a02020 	mov	r2, #32	; 0x20
    1264:	e58d3014 	str	r3, [sp, #20]
    1268:	e59f3100 	ldr	r3, [pc, #256]	; 1370 <efuse_inject+0x170>
    126c:	e28d0038 	add	r0, sp, #56	; 0x38
    1270:	e58d3018 	str	r3, [sp, #24]
    1274:	e59f30f8 	ldr	r3, [pc, #248]	; 1374 <efuse_inject+0x174>
    1278:	e1a0400d 	mov	r4, sp
    127c:	e58d301c 	str	r3, [sp, #28]
    1280:	e3003f93 	movw	r3, #3987	; 0xf93
    1284:	e1cd32b4 	strh	r3, [sp, #36]
    1288:	e2433010 	sub	r3, r3, #16	; 0x10
    128c:	e1cd32b6 	strh	r3, [sp, #38]
    1290:	e3a03a09 	mov	r3, #36864	; 0x9000
    1294:	e1cd32ba 	strh	r3, [sp, #42]
    1298:	e3a03c07 	mov	r3, #1792	; 0x700
    129c:	e1cd30bc 	strh	r3, [sp, #12]
    12a0:	e3a03005 	mov	r3, #5	; 0x5
    12a4:	e1cd32b0 	strh	r3, [sp, #32]
    12a8:	e3a03a07 	mov	r3, #28672	; 0x7000
    12ac:	e1cd32b2 	strh	r3, [sp, #34]
    12b0:	e3a03901 	mov	r3, #16384	; 0x4000
    12b4:	e1cd32b8 	strh	r3, [sp, #40]
    12b8:	eb0000a5 	bl	1554 <memcpy>
    12bc:	e59f10b4 	ldr	r1, [pc, #180]	; 1378 <efuse_inject+0x178>
    12c0:	e3a02000 	mov	r2, #0	; 0x0
    12c4:	e7d43002 	ldrb	r3, [r4, r2]
    12c8:	e2822001 	add	r2, r2, #1	; 0x1
    12cc:	e3520038 	cmp	r2, #56	; 0x38
    12d0:	e4813004 	str	r3, [r1], #4
    12d4:	1afffffa 	bne	12c4 <efuse_inject+0xc4>
    12d8:	e59f309c 	ldr	r3, [pc, #156]	; 137c <efuse_inject+0x17c>
    12dc:	e59f109c 	ldr	r1, [pc, #156]	; 1380 <efuse_inject+0x180>
    12e0:	e3a02000 	mov	r2, #0	; 0x0
    12e4:	e4832004 	str	r2, [r3], #4
    12e8:	e1530001 	cmp	r3, r1
    12ec:	1afffffc 	bne	12e4 <efuse_inject+0xe4>
    12f0:	e59f108c 	ldr	r1, [pc, #140]	; 1384 <efuse_inject+0x184>
    12f4:	e3a02000 	mov	r2, #0	; 0x0
    12f8:	e28d0038 	add	r0, sp, #56	; 0x38
    12fc:	e7d03002 	ldrb	r3, [r0, r2]
    1300:	e2822001 	add	r2, r2, #1	; 0x1
    1304:	e3520020 	cmp	r2, #32	; 0x20
    1308:	e4813004 	str	r3, [r1], #4
    130c:	1afffffa 	bne	12fc <efuse_inject+0xfc>
    1310:	e59f3070 	ldr	r3, [pc, #112]	; 1388 <efuse_inject+0x188>
    1314:	e59f1060 	ldr	r1, [pc, #96]	; 137c <efuse_inject+0x17c>
    1318:	e3a02001 	mov	r2, #1	; 0x1
    131c:	e4832004 	str	r2, [r3], #4
    1320:	e1530001 	cmp	r3, r1
    1324:	1afffffc 	bne	131c <efuse_inject+0x11c>
    1328:	e59f1050 	ldr	r1, [pc, #80]	; 1380 <efuse_inject+0x180>
    132c:	e28d2038 	add	r2, sp, #56	; 0x38
    1330:	e28d0032 	add	r0, sp, #50	; 0x32
    1334:	e5d23013 	ldrb	r3, [r2, #19]
    1338:	e2422001 	sub	r2, r2, #1	; 0x1
    133c:	e1520000 	cmp	r2, r0
    1340:	e4813004 	str	r3, [r1], #4
    1344:	1afffffa 	bne	1334 <efuse_inject+0x134>
    1348:	e59f303c 	ldr	r3, [pc, #60]	; 138c <efuse_inject+0x18c>
    134c:	e3a02001 	mov	r2, #1	; 0x1
    1350:	e5832000 	str	r2, [r3]
    1354:	ebfffdfe 	bl	b54 <init_efuse>
    1358:	e3a00000 	mov	r0, #0	; 0x0
    135c:	e28dd058 	add	sp, sp, #88	; 0x58
    1360:	e8bd8010 	pop	{r4, pc}
    1364:	1c723550 	.word	0x1c723550
    1368:	00015f4c 	.word	0x00015f4c
    136c:	20fe074e 	.word	0x20fe074e
    1370:	1698347e 	.word	0x1698347e
    1374:	3fff2c80 	.word	0x3fff2c80
    1378:	21e0e5b4 	.word	0x21e0e5b4
    137c:	21e0e57c 	.word	0x21e0e57c
    1380:	21e0e59c 	.word	0x21e0e59c
    1384:	21e0e47c 	.word	0x21e0e47c
    1388:	21e0e4fc 	.word	0x21e0e4fc
    138c:	21e0d000 	.word	0x21e0d000

00001390 <strcpy>:
    1390:	e3a02000 	mov	r2, #0	; 0x0
    1394:	e7d13002 	ldrb	r3, [r1, r2]
    1398:	e3530000 	cmp	r3, #0	; 0x0
    139c:	e7c03002 	strb	r3, [r0, r2]
    13a0:	e2822001 	add	r2, r2, #1	; 0x1
    13a4:	1afffffa 	bne	1394 <strcpy+0x4>
    13a8:	e12fff1e 	bx	lr

000013ac <strncpy>:
    13ac:	e3a0c000 	mov	ip, #0	; 0x0
    13b0:	e3520000 	cmp	r2, #0	; 0x0
    13b4:	e2422001 	sub	r2, r2, #1	; 0x1
    13b8:	012fff1e 	bxeq	lr
    13bc:	e7d1300c 	ldrb	r3, [r1, ip]
    13c0:	e3530000 	cmp	r3, #0	; 0x0
    13c4:	e7c0300c 	strb	r3, [r0, ip]
    13c8:	e28cc001 	add	ip, ip, #1	; 0x1
    13cc:	1afffff7 	bne	13b0 <strncpy+0x4>
    13d0:	e12fff1e 	bx	lr

000013d4 <strncat>:
    13d4:	e92d4030 	push	{r4, r5, lr}
    13d8:	e2525000 	subs	r5, r2, #0	; 0x0
    13dc:	e1a04001 	mov	r4, r1
    13e0:	11a0c000 	movne	ip, r0
    13e4:	1a000001 	bne	13f0 <strncat+0x1c>
    13e8:	e8bd8030 	pop	{r4, r5, pc}
    13ec:	e28cc001 	add	ip, ip, #1	; 0x1
    13f0:	e5dc3000 	ldrb	r3, [ip]
    13f4:	e3530000 	cmp	r3, #0	; 0x0
    13f8:	1afffffb 	bne	13ec <strncat+0x18>
    13fc:	ea000004 	b	1414 <strncat+0x40>
    1400:	e1550002 	cmp	r5, r2
    1404:	1a000004 	bne	141c <strncat+0x48>
    1408:	e3a03000 	mov	r3, #0	; 0x0
    140c:	e5cc3000 	strb	r3, [ip]
    1410:	e8bd8030 	pop	{r4, r5, pc}
    1414:	e1a02003 	mov	r2, r3
    1418:	e1a0100c 	mov	r1, ip
    141c:	e7d43002 	ldrb	r3, [r4, r2]
    1420:	e28cc001 	add	ip, ip, #1	; 0x1
    1424:	e3530000 	cmp	r3, #0	; 0x0
    1428:	e7c13002 	strb	r3, [r1, r2]
    142c:	e2822001 	add	r2, r2, #1	; 0x1
    1430:	1afffff2 	bne	1400 <strncat+0x2c>
    1434:	e8bd8030 	pop	{r4, r5, pc}

00001438 <strcmp>:
    1438:	e92d4010 	push	{r4, lr}
    143c:	e3a02000 	mov	r2, #0	; 0x0
    1440:	e1a04000 	mov	r4, r0
    1444:	e7d4c002 	ldrb	ip, [r4, r2]
    1448:	e7d13002 	ldrb	r3, [r1, r2]
    144c:	e2822001 	add	r2, r2, #1	; 0x1
    1450:	e063300c 	rsb	r3, r3, ip
    1454:	e6ef0073 	uxtb	r0, r3
    1458:	e3500000 	cmp	r0, #0	; 0x0
    145c:	1a000001 	bne	1468 <strcmp+0x30>
    1460:	e35c0000 	cmp	ip, #0	; 0x0
    1464:	1afffff6 	bne	1444 <strcmp+0xc>
    1468:	e6af0070 	sxtb	r0, r0
    146c:	e8bd8010 	pop	{r4, pc}

00001470 <strncmp>:
    1470:	e92d4030 	push	{r4, r5, lr}
    1474:	e3a0c000 	mov	ip, #0	; 0x0
    1478:	e1a05000 	mov	r5, r0
    147c:	e1a04001 	mov	r4, r1
    1480:	ea000009 	b	14ac <strncmp+0x3c>
    1484:	e7d5100c 	ldrb	r1, [r5, ip]
    1488:	e7d4300c 	ldrb	r3, [r4, ip]
    148c:	e2422001 	sub	r2, r2, #1	; 0x1
    1490:	e0633001 	rsb	r3, r3, r1
    1494:	e6ef0073 	uxtb	r0, r3
    1498:	e3500000 	cmp	r0, #0	; 0x0
    149c:	e28cc001 	add	ip, ip, #1	; 0x1
    14a0:	1a000004 	bne	14b8 <strncmp+0x48>
    14a4:	e3510000 	cmp	r1, #0	; 0x0
    14a8:	0a000002 	beq	14b8 <strncmp+0x48>
    14ac:	e3520000 	cmp	r2, #0	; 0x0
    14b0:	1afffff3 	bne	1484 <strncmp+0x14>
    14b4:	e1a00002 	mov	r0, r2
    14b8:	e6af0070 	sxtb	r0, r0
    14bc:	e8bd8030 	pop	{r4, r5, pc}

000014c0 <strchr>:
    14c0:	e1a03000 	mov	r3, r0
    14c4:	e6ef1071 	uxtb	r1, r1
    14c8:	ea000002 	b	14d8 <strchr+0x18>
    14cc:	e3500000 	cmp	r0, #0	; 0x0
    14d0:	012fff1e 	bxeq	lr
    14d4:	e2833001 	add	r3, r3, #1	; 0x1
    14d8:	e5d30000 	ldrb	r0, [r3]
    14dc:	e1500001 	cmp	r0, r1
    14e0:	1afffff9 	bne	14cc <strchr+0xc>
    14e4:	e1a00003 	mov	r0, r3
    14e8:	e12fff1e 	bx	lr

000014ec <strlen>:
    14ec:	e1a02000 	mov	r2, r0
    14f0:	ea000000 	b	14f8 <strlen+0xc>
    14f4:	e2800001 	add	r0, r0, #1	; 0x1
    14f8:	e5d03000 	ldrb	r3, [r0]
    14fc:	e3530000 	cmp	r3, #0	; 0x0
    1500:	1afffffb 	bne	14f4 <strlen+0x8>
    1504:	e0620000 	rsb	r0, r2, r0
    1508:	e12fff1e 	bx	lr

0000150c <strnlen>:
    150c:	e3a02000 	mov	r2, #0	; 0x0
    1510:	e1510002 	cmp	r1, r2
    1514:	e080c002 	add	ip, r0, r2
    1518:	0a000003 	beq	152c <strnlen+0x20>
    151c:	e7d03002 	ldrb	r3, [r0, r2]
    1520:	e2822001 	add	r2, r2, #1	; 0x1
    1524:	e3530000 	cmp	r3, #0	; 0x0
    1528:	1afffff8 	bne	1510 <strnlen+0x4>
    152c:	e060000c 	rsb	r0, r0, ip
    1530:	e12fff1e 	bx	lr

00001534 <memset>:
    1534:	e3a03000 	mov	r3, #0	; 0x0
    1538:	ea000001 	b	1544 <memset+0x10>
    153c:	e7c01003 	strb	r1, [r0, r3]
    1540:	e2833001 	add	r3, r3, #1	; 0x1
    1544:	e3520000 	cmp	r2, #0	; 0x0
    1548:	e2422001 	sub	r2, r2, #1	; 0x1
    154c:	1afffffa 	bne	153c <memset+0x8>
    1550:	e12fff1e 	bx	lr

00001554 <memcpy>:
    1554:	e3a0c000 	mov	ip, #0	; 0x0
    1558:	ea000002 	b	1568 <memcpy+0x14>
    155c:	e7d1300c 	ldrb	r3, [r1, ip]
    1560:	e7c0300c 	strb	r3, [r0, ip]
    1564:	e28cc001 	add	ip, ip, #1	; 0x1
    1568:	e3520000 	cmp	r2, #0	; 0x0
    156c:	e2422001 	sub	r2, r2, #1	; 0x1
    1570:	1afffff9 	bne	155c <memcpy+0x8>
    1574:	e12fff1e 	bx	lr

00001578 <memmove>:
    1578:	e1500001 	cmp	r0, r1
    157c:	e92d4010 	push	{r4, lr}
    1580:	08bd8010 	popeq	{r4, pc}
    1584:	93a0c000 	movls	ip, #0	; 0x0
    1588:	9a000003 	bls	159c <memmove+0x24>
    158c:	ea000006 	b	15ac <memmove+0x34>
    1590:	e7d1300c 	ldrb	r3, [r1, ip]
    1594:	e7c0300c 	strb	r3, [r0, ip]
    1598:	e28cc001 	add	ip, ip, #1	; 0x1
    159c:	e3520000 	cmp	r2, #0	; 0x0
    15a0:	e2422001 	sub	r2, r2, #1	; 0x1
    15a4:	1afffff9 	bne	1590 <memmove+0x18>
    15a8:	e8bd8010 	pop	{r4, pc}
    15ac:	e0814002 	add	r4, r1, r2
    15b0:	e3a0c000 	mov	ip, #0	; 0x0
    15b4:	e0801002 	add	r1, r0, r2
    15b8:	ea000001 	b	15c4 <memmove+0x4c>
    15bc:	e7d4300c 	ldrb	r3, [r4, ip]
    15c0:	e7c1300c 	strb	r3, [r1, ip]
    15c4:	e3520000 	cmp	r2, #0	; 0x0
    15c8:	e24cc001 	sub	ip, ip, #1	; 0x1
    15cc:	e2422001 	sub	r2, r2, #1	; 0x1
    15d0:	1afffff9 	bne	15bc <memmove+0x44>
    15d4:	e8bd8010 	pop	{r4, pc}

000015d8 <memcmp>:
    15d8:	e92d4030 	push	{r4, r5, lr}
    15dc:	e3a0c000 	mov	ip, #0	; 0x0
    15e0:	e1a04001 	mov	r4, r1
    15e4:	e1a05000 	mov	r5, r0
    15e8:	e1a01002 	mov	r1, r2
    15ec:	ea000005 	b	1608 <memcmp+0x30>
    15f0:	e7d5200c 	ldrb	r2, [r5, ip]
    15f4:	e7d4300c 	ldrb	r3, [r4, ip]
    15f8:	e28cc001 	add	ip, ip, #1	; 0x1
    15fc:	e0520003 	subs	r0, r2, r3
    1600:	18bd8030 	popne	{r4, r5, pc}
    1604:	e2411001 	sub	r1, r1, #1	; 0x1
    1608:	e3510000 	cmp	r1, #0	; 0x0
    160c:	1afffff7 	bne	15f0 <memcmp+0x18>
    1610:	e1a00001 	mov	r0, r1
    1614:	e8bd8030 	pop	{r4, r5, pc}

00001618 <so_m_isused>:
    1618:	e5903004 	ldr	r3, [r0, #4]
    161c:	e3130103 	tst	r3, #-1073741824	; 0xc0000000
    1620:	03a00000 	moveq	r0, #0	; 0x0
    1624:	13a00001 	movne	r0, #1	; 0x1
    1628:	e12fff1e 	bx	lr

0000162c <so_m_set_used>:
    162c:	e5903004 	ldr	r3, [r0, #4]
    1630:	e3833101 	orr	r3, r3, #1073741824	; 0x40000000
    1634:	e5803004 	str	r3, [r0, #4]
    1638:	e12fff1e 	bx	lr

0000163c <so_m_unset_used>:
    163c:	e5903004 	ldr	r3, [r0, #4]
    1640:	e3c33103 	bic	r3, r3, #-1073741824	; 0xc0000000
    1644:	e5803004 	str	r3, [r0, #4]
    1648:	e12fff1e 	bx	lr

0000164c <so_m_get_size>:
    164c:	e5900004 	ldr	r0, [r0, #4]
    1650:	e3c00103 	bic	r0, r0, #-1073741824	; 0xc0000000
    1654:	e12fff1e 	bx	lr

00001658 <so_m_set_size>:
    1658:	e5903004 	ldr	r3, [r0, #4]
    165c:	e3c11103 	bic	r1, r1, #-1073741824	; 0xc0000000
    1660:	e2033103 	and	r3, r3, #-1073741824	; 0xc0000000
    1664:	e1811003 	orr	r1, r1, r3
    1668:	e5801004 	str	r1, [r0, #4]
    166c:	e12fff1e 	bx	lr

00001670 <so_m_alloc>:
    1670:	e59f3048 	ldr	r3, [pc, #72]	; 16c0 <so_m_alloc+0x50>
    1674:	e3a02000 	mov	r2, #0	; 0x0
    1678:	e593c000 	ldr	ip, [r3]
    167c:	e5931008 	ldr	r1, [r3, #8]
    1680:	ea000007 	b	16a4 <so_m_alloc+0x34>
    1684:	e5903004 	ldr	r3, [r0, #4]
    1688:	e3530000 	cmp	r3, #0	; 0x0
    168c:	1a000004 	bne	16a4 <so_m_alloc+0x34>
    1690:	e59f2028 	ldr	r2, [pc, #40]	; 16c0 <so_m_alloc+0x50>
    1694:	e5923004 	ldr	r3, [r2, #4]
    1698:	e2433001 	sub	r3, r3, #1	; 0x1
    169c:	e5823004 	str	r3, [r2, #4]
    16a0:	e12fff1e 	bx	lr
    16a4:	e152000c 	cmp	r2, ip
    16a8:	e1a00001 	mov	r0, r1
    16ac:	e2822001 	add	r2, r2, #1	; 0x1
    16b0:	e2811010 	add	r1, r1, #16	; 0x10
    16b4:	3afffff2 	bcc	1684 <so_m_alloc+0x14>
    16b8:	e3a00000 	mov	r0, #0	; 0x0
    16bc:	e12fff1e 	bx	lr
    16c0:	3c00d70c 	.word	0x3c00d70c

000016c4 <so_m_remove>:
    16c4:	e3a03000 	mov	r3, #0	; 0x0
    16c8:	e59f2014 	ldr	r2, [pc, #20]	; 16e4 <so_m_remove+0x20>
    16cc:	e5803000 	str	r3, [r0]
    16d0:	e5803004 	str	r3, [r0, #4]
    16d4:	e5923004 	ldr	r3, [r2, #4]
    16d8:	e2833001 	add	r3, r3, #1	; 0x1
    16dc:	e5823004 	str	r3, [r2, #4]
    16e0:	e12fff1e 	bx	lr
    16e4:	3c00d70c 	.word	0x3c00d70c

000016e8 <malloc>:
    16e8:	e3500000 	cmp	r0, #0	; 0x0
    16ec:	e92d4070 	push	{r4, r5, r6, lr}
    16f0:	0a000047 	beq	1814 <malloc+0x12c>
    16f4:	e59f1120 	ldr	r1, [pc, #288]	; 181c <malloc+0x134>
    16f8:	e280301f 	add	r3, r0, #31	; 0x1f
    16fc:	e5b12014 	ldr	r2, [r1, #20]!
    1700:	e3c3401f 	bic	r4, r3, #31	; 0x1f
    1704:	e2425008 	sub	r5, r2, #8	; 0x8
    1708:	ea000009 	b	1734 <malloc+0x4c>
    170c:	e5953004 	ldr	r3, [r5, #4]
    1710:	e2130103 	ands	r0, r3, #-1073741824	; 0xc0000000
    1714:	e3c32103 	bic	r2, r3, #-1073741824	; 0xc0000000
    1718:	1a000003 	bne	172c <malloc+0x44>
    171c:	e1520004 	cmp	r2, r4
    1720:	3a000001 	bcc	172c <malloc+0x44>
    1724:	9a000030 	bls	17ec <malloc+0x104>
    1728:	ea000005 	b	1744 <malloc+0x5c>
    172c:	e5953008 	ldr	r3, [r5, #8]
    1730:	e2435008 	sub	r5, r3, #8	; 0x8
    1734:	e2853008 	add	r3, r5, #8	; 0x8
    1738:	e1530001 	cmp	r3, r1
    173c:	1afffff2 	bne	170c <malloc+0x24>
    1740:	ea000033 	b	1814 <malloc+0x12c>
    1744:	e59f30d0 	ldr	r3, [pc, #208]	; 181c <malloc+0x134>
    1748:	e1a01000 	mov	r1, r0
    174c:	e5932008 	ldr	r2, [r3, #8]
    1750:	e5930000 	ldr	r0, [r3]
    1754:	ea00000a 	b	1784 <malloc+0x9c>
    1758:	e5923004 	ldr	r3, [r2, #4]
    175c:	e2822010 	add	r2, r2, #16	; 0x10
    1760:	e3530000 	cmp	r3, #0	; 0x0
    1764:	1a000006 	bne	1784 <malloc+0x9c>
    1768:	e59f20ac 	ldr	r2, [pc, #172]	; 181c <malloc+0x134>
    176c:	e3560000 	cmp	r6, #0	; 0x0
    1770:	e5923004 	ldr	r3, [r2, #4]
    1774:	e2433001 	sub	r3, r3, #1	; 0x1
    1778:	e5823004 	str	r3, [r2, #4]
    177c:	1a000005 	bne	1798 <malloc+0xb0>
    1780:	ea000023 	b	1814 <malloc+0x12c>
    1784:	e1510000 	cmp	r1, r0
    1788:	e1a06002 	mov	r6, r2
    178c:	e2811001 	add	r1, r1, #1	; 0x1
    1790:	3afffff0 	bcc	1758 <malloc+0x70>
    1794:	ea00001e 	b	1814 <malloc+0x12c>
    1798:	e5953004 	ldr	r3, [r5, #4]
    179c:	e5962004 	ldr	r2, [r6, #4]
    17a0:	e0643003 	rsb	r3, r4, r3
    17a4:	e2022103 	and	r2, r2, #-1073741824	; 0xc0000000
    17a8:	e3c33103 	bic	r3, r3, #-1073741824	; 0xc0000000
    17ac:	e1833002 	orr	r3, r3, r2
    17b0:	e5863004 	str	r3, [r6, #4]
    17b4:	e5951000 	ldr	r1, [r5]
    17b8:	e5950004 	ldr	r0, [r5, #4]
    17bc:	e1a0c005 	mov	ip, r5
    17c0:	e1a03006 	mov	r3, r6
    17c4:	e0841001 	add	r1, r4, r1
    17c8:	e3c42103 	bic	r2, r4, #-1073741824	; 0xc0000000
    17cc:	e2000103 	and	r0, r0, #-1073741824	; 0xc0000000
    17d0:	e5bc4008 	ldr	r4, [ip, #8]!
    17d4:	e4831008 	str	r1, [r3], #8
    17d8:	e1822000 	orr	r2, r2, r0
    17dc:	e5864008 	str	r4, [r6, #8]
    17e0:	e5843004 	str	r3, [r4, #4]
    17e4:	e985000c 	stmib	r5, {r2, r3}
    17e8:	e586c00c 	str	ip, [r6, #12]
    17ec:	e5953004 	ldr	r3, [r5, #4]
    17f0:	e59f1024 	ldr	r1, [pc, #36]	; 181c <malloc+0x134>
    17f4:	e3833101 	orr	r3, r3, #1073741824	; 0x40000000
    17f8:	e5853004 	str	r3, [r5, #4]
    17fc:	e5912010 	ldr	r2, [r1, #16]
    1800:	e3c33103 	bic	r3, r3, #-1073741824	; 0xc0000000
    1804:	e0833002 	add	r3, r3, r2
    1808:	e5813010 	str	r3, [r1, #16]
    180c:	e5950000 	ldr	r0, [r5]
    1810:	e8bd8070 	pop	{r4, r5, r6, pc}
    1814:	e3a00000 	mov	r0, #0	; 0x0
    1818:	e8bd8070 	pop	{r4, r5, r6, pc}
    181c:	3c00d70c 	.word	0x3c00d70c

00001820 <__sOMERGe>:
    1820:	e5902004 	ldr	r2, [r0, #4]
    1824:	e92d4030 	push	{r4, r5, lr}
    1828:	e3120103 	tst	r2, #-1073741824	; 0xc0000000
    182c:	e1a05000 	mov	r5, r0
    1830:	e1a0c001 	mov	ip, r1
    1834:	18bd8030 	popne	{r4, r5, pc}
    1838:	e5913004 	ldr	r3, [r1, #4]
    183c:	e2134103 	ands	r4, r3, #-1073741824	; 0xc0000000
    1840:	18bd8030 	popne	{r4, r5, pc}
    1844:	e0823003 	add	r3, r2, r3
    1848:	e3c33103 	bic	r3, r3, #-1073741824	; 0xc0000000
    184c:	e59f0030 	ldr	r0, [pc, #48]	; 1884 <__sOMERGe+0x64>
    1850:	e5853004 	str	r3, [r5, #4]
    1854:	e5814000 	str	r4, [r1]
    1858:	e5814004 	str	r4, [r1, #4]
    185c:	e5903004 	ldr	r3, [r0, #4]
    1860:	e591100c 	ldr	r1, [r1, #12]
    1864:	e59c2008 	ldr	r2, [ip, #8]
    1868:	e2833001 	add	r3, r3, #1	; 0x1
    186c:	e5812000 	str	r2, [r1]
    1870:	e5821004 	str	r1, [r2, #4]
    1874:	e5803004 	str	r3, [r0, #4]
    1878:	e58c4008 	str	r4, [ip, #8]
    187c:	e58c400c 	str	r4, [ip, #12]
    1880:	e8bd8030 	pop	{r4, r5, pc}
    1884:	3c00d70c 	.word	0x3c00d70c

00001888 <free>:
    1888:	e3500000 	cmp	r0, #0	; 0x0
    188c:	159f2090 	ldrne	r2, [pc, #144]	; 1924 <free+0x9c>
    1890:	e92d4010 	push	{r4, lr}
    1894:	15b23014 	ldrne	r3, [r2, #20]!
    1898:	1a000004 	bne	18b0 <free+0x28>
    189c:	e8bd8010 	pop	{r4, pc}
    18a0:	e5943000 	ldr	r3, [r4]
    18a4:	e1500003 	cmp	r0, r3
    18a8:	0a000005 	beq	18c4 <free+0x3c>
    18ac:	e5943008 	ldr	r3, [r4, #8]
    18b0:	e2434008 	sub	r4, r3, #8	; 0x8
    18b4:	e2843008 	add	r3, r4, #8	; 0x8
    18b8:	e1530002 	cmp	r3, r2
    18bc:	1afffff7 	bne	18a0 <free+0x18>
    18c0:	e8bd8010 	pop	{r4, pc}
    18c4:	e5943004 	ldr	r3, [r4, #4]
    18c8:	e3130103 	tst	r3, #-1073741824	; 0xc0000000
    18cc:	08bd8010 	popeq	{r4, pc}
    18d0:	e3c33103 	bic	r3, r3, #-1073741824	; 0xc0000000
    18d4:	e59f1048 	ldr	r1, [pc, #72]	; 1924 <free+0x9c>
    18d8:	e5843004 	str	r3, [r4, #4]
    18dc:	e5912010 	ldr	r2, [r1, #16]
    18e0:	e5940008 	ldr	r0, [r4, #8]
    18e4:	e0632002 	rsb	r2, r3, r2
    18e8:	e59f3038 	ldr	r3, [pc, #56]	; 1928 <free+0xa0>
    18ec:	e5812010 	str	r2, [r1, #16]
    18f0:	e1500003 	cmp	r0, r3
    18f4:	0a000002 	beq	1904 <free+0x7c>
    18f8:	e2401008 	sub	r1, r0, #8	; 0x8
    18fc:	e1a00004 	mov	r0, r4
    1900:	ebffffc6 	bl	1820 <__sOMERGe>
    1904:	e594000c 	ldr	r0, [r4, #12]
    1908:	e59f3018 	ldr	r3, [pc, #24]	; 1928 <free+0xa0>
    190c:	e1500003 	cmp	r0, r3
    1910:	08bd8010 	popeq	{r4, pc}
    1914:	e2400008 	sub	r0, r0, #8	; 0x8
    1918:	e1a01004 	mov	r1, r4
    191c:	e8bd4010 	pop	{r4, lr}
    1920:	eaffffbe 	b	1820 <__sOMERGe>
    1924:	3c00d70c 	.word	0x3c00d70c
    1928:	3c00d720 	.word	0x3c00d720

0000192c <__sOINFo>:
    192c:	e92d40f0 	push	{r4, r5, r6, r7, lr}
    1930:	e59f50a8 	ldr	r5, [pc, #168]	; 19e0 <__sOINFo+0xb4>
    1934:	e24dd004 	sub	sp, sp, #4	; 0x4
    1938:	e59f60a4 	ldr	r6, [pc, #164]	; 19e4 <__sOINFo+0xb8>
    193c:	e8950006 	ldm	r5, {r1, r2}
    1940:	e59f00a0 	ldr	r0, [pc, #160]	; 19e8 <__sOINFo+0xbc>
    1944:	e1a0e00f 	mov	lr, pc
    1948:	e596f000 	ldr	pc, [r6]
    194c:	e2853008 	add	r3, r5, #8	; 0x8
    1950:	e8930098 	ldm	r3, {r3, r4, r7}
    1954:	e2444b01 	sub	r4, r4, #1024	; 0x400
    1958:	e0634004 	rsb	r4, r3, r4
    195c:	e3a00064 	mov	r0, #100	; 0x64
    1960:	e1a01004 	mov	r1, r4
    1964:	e0000790 	mul	r0, r0, r7
    1968:	eb004b87 	bl	1478c <__aeabi_uidiv>
    196c:	e1a01004 	mov	r1, r4
    1970:	e1a03000 	mov	r3, r0
    1974:	e1a02007 	mov	r2, r7
    1978:	e59f006c 	ldr	r0, [pc, #108]	; 19ec <__sOINFo+0xc0>
    197c:	e1a0e00f 	mov	lr, pc
    1980:	e596f000 	ldr	pc, [r6]
    1984:	e59f0064 	ldr	r0, [pc, #100]	; 19f0 <__sOINFo+0xc4>
    1988:	e1a0e00f 	mov	lr, pc
    198c:	e596f000 	ldr	pc, [r6]
    1990:	e59f005c 	ldr	r0, [pc, #92]	; 19f4 <__sOINFo+0xc8>
    1994:	e1a0e00f 	mov	lr, pc
    1998:	e596f000 	ldr	pc, [r6]
    199c:	e5b53014 	ldr	r3, [r5, #20]!
    19a0:	ea000007 	b	19c4 <__sOINFo+0x98>
    19a4:	e8940006 	ldm	r4, {r1, r2}
    19a8:	e3120103 	tst	r2, #-1073741824	; 0xc0000000
    19ac:	03a03000 	moveq	r3, #0	; 0x0
    19b0:	13a03001 	movne	r3, #1	; 0x1
    19b4:	e3c22103 	bic	r2, r2, #-1073741824	; 0xc0000000
    19b8:	e1a0e00f 	mov	lr, pc
    19bc:	e596f000 	ldr	pc, [r6]
    19c0:	e5943008 	ldr	r3, [r4, #8]
    19c4:	e2434008 	sub	r4, r3, #8	; 0x8
    19c8:	e2843008 	add	r3, r4, #8	; 0x8
    19cc:	e1530005 	cmp	r3, r5
    19d0:	e59f0020 	ldr	r0, [pc, #32]	; 19f8 <__sOINFo+0xcc>
    19d4:	1afffff2 	bne	19a4 <__sOINFo+0x78>
    19d8:	e28dd004 	add	sp, sp, #4	; 0x4
    19dc:	e8bd80f0 	pop	{r4, r5, r6, r7, pc}
    19e0:	3c00d70c 	.word	0x3c00d70c
    19e4:	3c00d6cc 	.word	0x3c00d6cc
    19e8:	000162a2 	.word	0x000162a2
    19ec:	000162bc 	.word	0x000162bc
    19f0:	000162e1 	.word	0x000162e1
    19f4:	000185c5 	.word	0x000185c5
    19f8:	000162f2 	.word	0x000162f2

000019fc <init_malloc>:
    19fc:	e59f20e4 	ldr	r2, [pc, #228]	; 1ae8 <init_malloc+0xec>
    1a00:	e59f30e4 	ldr	r3, [pc, #228]	; 1aec <init_malloc+0xf0>
    1a04:	e3c2001f 	bic	r0, r2, #31	; 0x1f
    1a08:	e3c3301f 	bic	r3, r3, #31	; 0x1f
    1a0c:	e0602003 	rsb	r2, r0, r3
    1a10:	e92d4010 	push	{r4, lr}
    1a14:	e59f40d4 	ldr	r4, [pc, #212]	; 1af0 <init_malloc+0xf4>
    1a18:	e3520b01 	cmp	r2, #1024	; 0x400
    1a1c:	e5840008 	str	r0, [r4, #8]
    1a20:	e584300c 	str	r3, [r4, #12]
    1a24:	93e00000 	mvnls	r0, #0	; 0x0
    1a28:	98bd8010 	popls	{r4, pc}
    1a2c:	e284c014 	add	ip, r4, #20	; 0x14
    1a30:	e3a03040 	mov	r3, #64	; 0x40
    1a34:	e3a01000 	mov	r1, #0	; 0x0
    1a38:	e3a02b01 	mov	r2, #1024	; 0x400
    1a3c:	e584c018 	str	ip, [r4, #24]
    1a40:	e584c014 	str	ip, [r4, #20]
    1a44:	e5843004 	str	r3, [r4, #4]
    1a48:	e5843000 	str	r3, [r4]
    1a4c:	ebfffeb8 	bl	1534 <memset>
    1a50:	e5940008 	ldr	r0, [r4, #8]
    1a54:	e594c000 	ldr	ip, [r4]
    1a58:	e1a01000 	mov	r1, r0
    1a5c:	e3a02000 	mov	r2, #0	; 0x0
    1a60:	ea000006 	b	1a80 <init_malloc+0x84>
    1a64:	e59e3004 	ldr	r3, [lr, #4]
    1a68:	e3530000 	cmp	r3, #0	; 0x0
    1a6c:	059f207c 	ldreq	r2, [pc, #124]	; 1af0 <init_malloc+0xf4>
    1a70:	05923004 	ldreq	r3, [r2, #4]
    1a74:	02433001 	subeq	r3, r3, #1	; 0x1
    1a78:	05823004 	streq	r3, [r2, #4]
    1a7c:	0a000005 	beq	1a98 <init_malloc+0x9c>
    1a80:	e152000c 	cmp	r2, ip
    1a84:	e1a0e001 	mov	lr, r1
    1a88:	e2822001 	add	r2, r2, #1	; 0x1
    1a8c:	e2811010 	add	r1, r1, #16	; 0x10
    1a90:	3afffff3 	bcc	1a64 <init_malloc+0x68>
    1a94:	e3a0e000 	mov	lr, #0	; 0x0
    1a98:	e59fc050 	ldr	ip, [pc, #80]	; 1af0 <init_malloc+0xf4>
    1a9c:	e59e2004 	ldr	r2, [lr, #4]
    1aa0:	e59c300c 	ldr	r3, [ip, #12]
    1aa4:	e1a0100e 	mov	r1, lr
    1aa8:	e2433b01 	sub	r3, r3, #1024	; 0x400
    1aac:	e0603003 	rsb	r3, r0, r3
    1ab0:	e59c4018 	ldr	r4, [ip, #24]
    1ab4:	e2022103 	and	r2, r2, #-1073741824	; 0xc0000000
    1ab8:	e2800b01 	add	r0, r0, #1024	; 0x400
    1abc:	e3c33103 	bic	r3, r3, #-1073741824	; 0xc0000000
    1ac0:	e4810008 	str	r0, [r1], #8
    1ac4:	e1833002 	orr	r3, r3, r2
    1ac8:	e28c2014 	add	r2, ip, #20	; 0x14
    1acc:	e58e2008 	str	r2, [lr, #8]
    1ad0:	e58c1018 	str	r1, [ip, #24]
    1ad4:	e5841000 	str	r1, [r4]
    1ad8:	e58e3004 	str	r3, [lr, #4]
    1adc:	e58e400c 	str	r4, [lr, #12]
    1ae0:	e3a00000 	mov	r0, #0	; 0x0
    1ae4:	e8bd8010 	pop	{r4, pc}
    1ae8:	3c00e01f 	.word	0x3c00e01f
    1aec:	3c018000 	.word	0x3c018000
    1af0:	3c00d70c 	.word	0x3c00d70c

00001af4 <isi_check_header>:
    1af4:	e92d4070 	push	{r4, r5, r6, lr}
    1af8:	e5902000 	ldr	r2, [r0]
    1afc:	e59f3088 	ldr	r3, [pc, #136]	; 1b8c <isi_check_header+0x98>
    1b00:	e1a05000 	mov	r5, r0
    1b04:	e1520003 	cmp	r2, r3
    1b08:	e24dd008 	sub	sp, sp, #8	; 0x8
    1b0c:	13e0001e 	mvnne	r0, #30	; 0x1e
    1b10:	1a00001b 	bne	1b84 <isi_check_header+0x90>
    1b14:	e3a06000 	mov	r6, #0	; 0x0
    1b18:	e595401c 	ldr	r4, [r5, #28]
    1b1c:	e3a01c02 	mov	r1, #512	; 0x200
    1b20:	e585601c 	str	r6, [r5, #28]
    1b24:	e1a00006 	mov	r0, r6
    1b28:	eb0013ea 	bl	6ad8 <hash_init>
    1b2c:	e3a01c02 	mov	r1, #512	; 0x200
    1b30:	e1a00005 	mov	r0, r5
    1b34:	eb0013c2 	bl	6a44 <hash_data>
    1b38:	e28d0004 	add	r0, sp, #4	; 0x4
    1b3c:	eb0013a4 	bl	69d4 <hash_value>
    1b40:	e585401c 	str	r4, [r5, #28]
    1b44:	e59d3004 	ldr	r3, [sp, #4]
    1b48:	e1540003 	cmp	r4, r3
    1b4c:	13e0001f 	mvnne	r0, #31	; 0x1f
    1b50:	1a00000b 	bne	1b84 <isi_check_header+0x90>
    1b54:	e5951004 	ldr	r1, [r5, #4]
    1b58:	e59f4030 	ldr	r4, [pc, #48]	; 1b90 <isi_check_header+0x9c>
    1b5c:	e3c114ff 	bic	r1, r1, #-16777216	; 0xff000000
    1b60:	e59f002c 	ldr	r0, [pc, #44]	; 1b94 <isi_check_header+0xa0>
    1b64:	e1a0e00f 	mov	lr, pc
    1b68:	e594f000 	ldr	pc, [r4]
    1b6c:	e5d51007 	ldrb	r1, [r5, #7]
    1b70:	e59f0020 	ldr	r0, [pc, #32]	; 1b98 <isi_check_header+0xa4>
    1b74:	e201100f 	and	r1, r1, #15	; 0xf
    1b78:	e1a0e00f 	mov	lr, pc
    1b7c:	e594f000 	ldr	pc, [r4]
    1b80:	e1a00006 	mov	r0, r6
    1b84:	e28dd008 	add	sp, sp, #8	; 0x8
    1b88:	e8bd8070 	pop	{r4, r5, r6, pc}
    1b8c:	6973692b 	.word	0x6973692b
    1b90:	3c00d6cc 	.word	0x3c00d6cc
    1b94:	0001631a 	.word	0x0001631a
    1b98:	00016328 	.word	0x00016328

00001b9c <isi_check_data_separate>:
    1b9c:	e92d4070 	push	{r4, r5, r6, lr}
    1ba0:	e1a05000 	mov	r5, r0
    1ba4:	e5d00007 	ldrb	r0, [r0, #7]
    1ba8:	e24dd028 	sub	sp, sp, #40	; 0x28
    1bac:	e1a04001 	mov	r4, r1
    1bb0:	e200000f 	and	r0, r0, #15	; 0xf
    1bb4:	e595100c 	ldr	r1, [r5, #12]
    1bb8:	eb0013c6 	bl	6ad8 <hash_init>
    1bbc:	e28d6008 	add	r6, sp, #8	; 0x8
    1bc0:	e595100c 	ldr	r1, [r5, #12]
    1bc4:	e1a00004 	mov	r0, r4
    1bc8:	eb00139d 	bl	6a44 <hash_data>
    1bcc:	e1a00006 	mov	r0, r6
    1bd0:	eb00137f 	bl	69d4 <hash_value>
    1bd4:	eb001377 	bl	69b8 <hash_len>
    1bd8:	e2854020 	add	r4, r5, #32	; 0x20
    1bdc:	e1a02000 	mov	r2, r0
    1be0:	e1a01004 	mov	r1, r4
    1be4:	e1a00006 	mov	r0, r6
    1be8:	ebfffe7a 	bl	15d8 <memcmp>
    1bec:	e3500000 	cmp	r0, #0	; 0x0
    1bf0:	0a000014 	beq	1c48 <isi_check_data_separate+0xac>
    1bf4:	e595100c 	ldr	r1, [r5, #12]
    1bf8:	e59f3050 	ldr	r3, [pc, #80]	; 1c50 <isi_check_data_separate+0xb4>
    1bfc:	e59f0050 	ldr	r0, [pc, #80]	; 1c54 <isi_check_data_separate+0xb8>
    1c00:	e1a0e00f 	mov	lr, pc
    1c04:	e593f000 	ldr	pc, [r3]
    1c08:	eb00136a 	bl	69b8 <hash_len>
    1c0c:	e1a01004 	mov	r1, r4
    1c10:	e1a03000 	mov	r3, r0
    1c14:	e3a02001 	mov	r2, #1	; 0x1
    1c18:	e1a00004 	mov	r0, r4
    1c1c:	e3a04020 	mov	r4, #32	; 0x20
    1c20:	e58d4000 	str	r4, [sp]
    1c24:	eb003e3c 	bl	1151c <print_buffer>
    1c28:	eb001362 	bl	69b8 <hash_len>
    1c2c:	e1a01006 	mov	r1, r6
    1c30:	e1a03000 	mov	r3, r0
    1c34:	e3a02001 	mov	r2, #1	; 0x1
    1c38:	e1a00006 	mov	r0, r6
    1c3c:	e58d4000 	str	r4, [sp]
    1c40:	eb003e35 	bl	1151c <print_buffer>
    1c44:	e3e00020 	mvn	r0, #32	; 0x20
    1c48:	e28dd028 	add	sp, sp, #40	; 0x28
    1c4c:	e8bd8070 	pop	{r4, r5, r6, pc}
    1c50:	3c00d6cc 	.word	0x3c00d6cc
    1c54:	0001633b 	.word	0x0001633b

00001c58 <isi_check_data>:
    1c58:	e2801c02 	add	r1, r0, #512	; 0x200
    1c5c:	eaffffce 	b	1b9c <isi_check_data_separate>

00001c60 <isi_check>:
    1c60:	e92d4010 	push	{r4, lr}
    1c64:	e1a04000 	mov	r4, r0
    1c68:	ebffffa1 	bl	1af4 <isi_check_header>
    1c6c:	e3500000 	cmp	r0, #0	; 0x0
    1c70:	18bd8010 	popne	{r4, pc}
    1c74:	e1a00004 	mov	r0, r4
    1c78:	e8bd4010 	pop	{r4, lr}
    1c7c:	eafffff5 	b	1c58 <isi_check_data>

00001c80 <load_serial_ymodem>:
    1c80:	e92d41f0 	push	{r4, r5, r6, r7, r8, lr}
    1c84:	e24dde41 	sub	sp, sp, #1040	; 0x410
    1c88:	e28d4b01 	add	r4, sp, #1024	; 0x400
    1c8c:	e284400c 	add	r4, r4, #12	; 0xc
    1c90:	e3a03002 	mov	r3, #2	; 0x2
    1c94:	e1a07000 	mov	r7, r0
    1c98:	e1a01004 	mov	r1, r4
    1c9c:	e28d0b01 	add	r0, sp, #1024	; 0x400
    1ca0:	e58d3404 	str	r3, [sp, #1028]
    1ca4:	eb004a3e 	bl	145a4 <xyzModem_stream_open>
    1ca8:	e3500000 	cmp	r0, #0	; 0x0
    1cac:	1a000012 	bne	1cfc <load_serial_ymodem+0x7c>
    1cb0:	e1a08004 	mov	r8, r4
    1cb4:	e1a05000 	mov	r5, r0
    1cb8:	e1a04000 	mov	r4, r0
    1cbc:	e1a0600d 	mov	r6, sp
    1cc0:	ea000001 	b	1ccc <load_serial_ymodem+0x4c>
    1cc4:	e085500c 	add	r5, r5, ip
    1cc8:	ebfffe21 	bl	1554 <memcpy>
    1ccc:	e3a01b01 	mov	r1, #1024	; 0x400
    1cd0:	e1a02008 	mov	r2, r8
    1cd4:	e1a0000d 	mov	r0, sp
    1cd8:	eb00499d 	bl	14354 <xyzModem_stream_read>
    1cdc:	e0843007 	add	r3, r4, r7
    1ce0:	e250c000 	subs	ip, r0, #0	; 0x0
    1ce4:	e1a0100d 	mov	r1, sp
    1ce8:	e1a0200c 	mov	r2, ip
    1cec:	e1a00003 	mov	r0, r3
    1cf0:	e084400c 	add	r4, r4, ip
    1cf4:	cafffff2 	bgt	1cc4 <load_serial_ymodem+0x44>
    1cf8:	ea000007 	b	1d1c <load_serial_ymodem+0x9c>
    1cfc:	e59f3054 	ldr	r3, [pc, #84]	; 1d58 <load_serial_ymodem+0xd8>
    1d00:	e59d040c 	ldr	r0, [sp, #1036]
    1d04:	e5934000 	ldr	r4, [r3]
    1d08:	eb004618 	bl	13570 <xyzModem_error>
    1d0c:	e1a01000 	mov	r1, r0
    1d10:	e59f0044 	ldr	r0, [pc, #68]	; 1d5c <load_serial_ymodem+0xdc>
    1d14:	e12fff34 	blx	r4
    1d18:	e3a05000 	mov	r5, #0	; 0x0
    1d1c:	e28d0b01 	add	r0, sp, #1024	; 0x400
    1d20:	e280000c 	add	r0, r0, #12	; 0xc
    1d24:	eb0045f9 	bl	13510 <xyzModem_stream_close>
    1d28:	e3a00000 	mov	r0, #0	; 0x0
    1d2c:	e59f102c 	ldr	r1, [pc, #44]	; 1d60 <load_serial_ymodem+0xe0>
    1d30:	eb0048a7 	bl	13fd4 <xyzModem_stream_terminate>
    1d34:	e1a01005 	mov	r1, r5
    1d38:	e59f0024 	ldr	r0, [pc, #36]	; 1d64 <load_serial_ymodem+0xe4>
    1d3c:	e1a02005 	mov	r2, r5
    1d40:	e59f3010 	ldr	r3, [pc, #16]	; 1d58 <load_serial_ymodem+0xd8>
    1d44:	e1a0e00f 	mov	lr, pc
    1d48:	e593f000 	ldr	pc, [r3]
    1d4c:	e1a00007 	mov	r0, r7
    1d50:	e28dde41 	add	sp, sp, #1040	; 0x410
    1d54:	e8bd81f0 	pop	{r4, r5, r6, r7, r8, pc}
    1d58:	3c00d6cc 	.word	0x3c00d6cc
    1d5c:	00016437 	.word	0x00016437
    1d60:	00001d68 	.word	0x00001d68
    1d64:	0001635f 	.word	0x0001635f

00001d68 <getcxmodem>:
    1d68:	e52de004 	push	{lr}		; (str lr, [sp, #-4]!)
    1d6c:	e24dd004 	sub	sp, sp, #4	; 0x4
    1d70:	eb004298 	bl	127d8 <tstc>
    1d74:	e3500000 	cmp	r0, #0	; 0x0
    1d78:	1a000002 	bne	1d88 <getcxmodem+0x20>
    1d7c:	e3e00000 	mvn	r0, #0	; 0x0
    1d80:	e28dd004 	add	sp, sp, #4	; 0x4
    1d84:	e8bd8000 	pop	{pc}
    1d88:	e28dd004 	add	sp, sp, #4	; 0x4
    1d8c:	e49de004 	pop	{lr}		; (ldr lr, [sp], #4)
    1d90:	ea004291 	b	127dc <getc>

00001d94 <do_load_serial_bin>:
    1d94:	e92d40f0 	push	{r4, r5, r6, r7, lr}
    1d98:	e3520001 	cmp	r2, #1	; 0x1
    1d9c:	e24dd00c 	sub	sp, sp, #12	; 0xc
    1da0:	e1a06002 	mov	r6, r2
    1da4:	e1a07000 	mov	r7, r0
    1da8:	e1a05003 	mov	r5, r3
    1dac:	ca000006 	bgt	1dcc <do_load_serial_bin+0x38>
    1db0:	e59f0120 	ldr	r0, [pc, #288]	; 1ed8 <do_load_serial_bin+0x144>
    1db4:	e3a06000 	mov	r6, #0	; 0x0
    1db8:	e59f311c 	ldr	r3, [pc, #284]	; 1edc <do_load_serial_bin+0x148>
    1dbc:	e1a0e00f 	mov	lr, pc
    1dc0:	e593f000 	ldr	pc, [r3]
    1dc4:	e1a04006 	mov	r4, r6
    1dc8:	ea00000c 	b	1e00 <do_load_serial_bin+0x6c>
    1dcc:	e5930004 	ldr	r0, [r3, #4]
    1dd0:	e3a01000 	mov	r1, #0	; 0x0
    1dd4:	e3a02010 	mov	r2, #16	; 0x10
    1dd8:	eb003e67 	bl	1177c <simple_strtoul>
    1ddc:	e3560003 	cmp	r6, #3	; 0x3
    1de0:	e1a04000 	mov	r4, r0
    1de4:	13a06000 	movne	r6, #0	; 0x0
    1de8:	1a000004 	bne	1e00 <do_load_serial_bin+0x6c>
    1dec:	e5950008 	ldr	r0, [r5, #8]
    1df0:	e3a01000 	mov	r1, #0	; 0x0
    1df4:	e3a02010 	mov	r2, #16	; 0x10
    1df8:	eb003e5f 	bl	1177c <simple_strtoul>
    1dfc:	e1a06000 	mov	r6, r0
    1e00:	e5950000 	ldr	r0, [r5]
    1e04:	e59f10d4 	ldr	r1, [pc, #212]	; 1ee0 <do_load_serial_bin+0x14c>
    1e08:	ebfffd8a 	bl	1438 <strcmp>
    1e0c:	e3500000 	cmp	r0, #0	; 0x0
    1e10:	1a000007 	bne	1e34 <do_load_serial_bin+0xa0>
    1e14:	e1a01004 	mov	r1, r4
    1e18:	e59f00c4 	ldr	r0, [pc, #196]	; 1ee4 <do_load_serial_bin+0x150>
    1e1c:	e59f30b8 	ldr	r3, [pc, #184]	; 1edc <do_load_serial_bin+0x148>
    1e20:	e1a0e00f 	mov	lr, pc
    1e24:	e593f000 	ldr	pc, [r3]
    1e28:	e1a00004 	mov	r0, r4
    1e2c:	ebffff93 	bl	1c80 <load_serial_ymodem>
    1e30:	ea000025 	b	1ecc <do_load_serial_bin+0x138>
    1e34:	e5950000 	ldr	r0, [r5]
    1e38:	e59f10a8 	ldr	r1, [pc, #168]	; 1ee8 <do_load_serial_bin+0x154>
    1e3c:	ebfffd7d 	bl	1438 <strcmp>
    1e40:	e3500000 	cmp	r0, #0	; 0x0
    1e44:	e59f5090 	ldr	r5, [pc, #144]	; 1edc <do_load_serial_bin+0x148>
    1e48:	1a00001b 	bne	1ebc <do_load_serial_bin+0x128>
    1e4c:	e1a02006 	mov	r2, r6
    1e50:	e59f0094 	ldr	r0, [pc, #148]	; 1eec <do_load_serial_bin+0x158>
    1e54:	e1a01004 	mov	r1, r4
    1e58:	e1a0e00f 	mov	lr, pc
    1e5c:	e595f000 	ldr	pc, [r5]
    1e60:	e1a00004 	mov	r0, r4
    1e64:	e1a01006 	mov	r1, r6
    1e68:	eb0047bc 	bl	13d60 <control_send>
    1e6c:	e3500000 	cmp	r0, #0	; 0x0
    1e70:	aa000005 	bge	1e8c <do_load_serial_bin+0xf8>
    1e74:	e59d0004 	ldr	r0, [sp, #4]
    1e78:	e5954000 	ldr	r4, [r5]
    1e7c:	eb0045bb 	bl	13570 <xyzModem_error>
    1e80:	e1a01000 	mov	r1, r0
    1e84:	e59f0064 	ldr	r0, [pc, #100]	; 1ef0 <do_load_serial_bin+0x15c>
    1e88:	e12fff34 	blx	r4
    1e8c:	e28d0004 	add	r0, sp, #4	; 0x4
    1e90:	eb00459e 	bl	13510 <xyzModem_stream_close>
    1e94:	e3a00000 	mov	r0, #0	; 0x0
    1e98:	e59f1054 	ldr	r1, [pc, #84]	; 1ef4 <do_load_serial_bin+0x160>
    1e9c:	eb00484c 	bl	13fd4 <xyzModem_stream_terminate>
    1ea0:	e1a01006 	mov	r1, r6
    1ea4:	e59f004c 	ldr	r0, [pc, #76]	; 1ef8 <do_load_serial_bin+0x164>
    1ea8:	e1a02006 	mov	r2, r6
    1eac:	e59f3028 	ldr	r3, [pc, #40]	; 1edc <do_load_serial_bin+0x148>
    1eb0:	e1a0e00f 	mov	lr, pc
    1eb4:	e593f000 	ldr	pc, [r3]
    1eb8:	ea000003 	b	1ecc <do_load_serial_bin+0x138>
    1ebc:	e5971014 	ldr	r1, [r7, #20]
    1ec0:	e59f0034 	ldr	r0, [pc, #52]	; 1efc <do_load_serial_bin+0x168>
    1ec4:	e1a0e00f 	mov	lr, pc
    1ec8:	e595f000 	ldr	pc, [r5]
    1ecc:	e3a00000 	mov	r0, #0	; 0x0
    1ed0:	e28dd00c 	add	sp, sp, #12	; 0xc
    1ed4:	e8bd80f0 	pop	{r4, r5, r6, r7, pc}
    1ed8:	00016387 	.word	0x00016387
    1edc:	3c00d6cc 	.word	0x3c00d6cc
    1ee0:	000163a1 	.word	0x000163a1
    1ee4:	000163a4 	.word	0x000163a4
    1ee8:	000163e7 	.word	0x000163e7
    1eec:	000163ea 	.word	0x000163ea
    1ef0:	00016437 	.word	0x00016437
    1ef4:	00001d68 	.word	0x00001d68
    1ef8:	0001635f 	.word	0x0001635f
    1efc:	00016436 	.word	0x00016436

00001f00 <do_mem_cp>:
    1f00:	e3520004 	cmp	r2, #4	; 0x4
    1f04:	e92d4070 	push	{r4, r5, r6, lr}
    1f08:	e1a04003 	mov	r4, r3
    1f0c:	0a000002 	beq	1f1c <do_mem_cp+0x1c>
    1f10:	eb0003e2 	bl	2ea0 <cmd_usage>
    1f14:	e3a00001 	mov	r0, #1	; 0x1
    1f18:	e8bd8070 	pop	{r4, r5, r6, pc}
    1f1c:	e5930004 	ldr	r0, [r3, #4]
    1f20:	e3a01000 	mov	r1, #0	; 0x0
    1f24:	e3a02010 	mov	r2, #16	; 0x10
    1f28:	eb003e13 	bl	1177c <simple_strtoul>
    1f2c:	e3a01000 	mov	r1, #0	; 0x0
    1f30:	e3a02010 	mov	r2, #16	; 0x10
    1f34:	e1a06000 	mov	r6, r0
    1f38:	e5940008 	ldr	r0, [r4, #8]
    1f3c:	eb003e0e 	bl	1177c <simple_strtoul>
    1f40:	e3a01000 	mov	r1, #0	; 0x0
    1f44:	e1a05000 	mov	r5, r0
    1f48:	e3a02010 	mov	r2, #16	; 0x10
    1f4c:	e594000c 	ldr	r0, [r4, #12]
    1f50:	eb003e09 	bl	1177c <simple_strtoul>
    1f54:	e2800003 	add	r0, r0, #3	; 0x3
    1f58:	e1b00120 	lsrs	r0, r0, #2
    1f5c:	1a000002 	bne	1f6c <do_mem_cp+0x6c>
    1f60:	ea000006 	b	1f80 <do_mem_cp+0x80>
    1f64:	e5163004 	ldr	r3, [r6, #-4]
    1f68:	e5053004 	str	r3, [r5, #-4]
    1f6c:	e3500000 	cmp	r0, #0	; 0x0
    1f70:	e2866004 	add	r6, r6, #4	; 0x4
    1f74:	e2400001 	sub	r0, r0, #1	; 0x1
    1f78:	e2855004 	add	r5, r5, #4	; 0x4
    1f7c:	1afffff8 	bne	1f64 <do_mem_cp+0x64>
    1f80:	e3a00000 	mov	r0, #0	; 0x0
    1f84:	e8bd8070 	pop	{r4, r5, r6, pc}

00001f88 <do_mem_cmp>:
    1f88:	e92d40f0 	push	{r4, r5, r6, r7, lr}
    1f8c:	e3520004 	cmp	r2, #4	; 0x4
    1f90:	e24dd00c 	sub	sp, sp, #12	; 0xc
    1f94:	e1a04003 	mov	r4, r3
    1f98:	0a000002 	beq	1fa8 <do_mem_cmp+0x20>
    1f9c:	eb0003bf 	bl	2ea0 <cmd_usage>
    1fa0:	e3a04001 	mov	r4, #1	; 0x1
    1fa4:	ea000029 	b	2050 <do_mem_cmp+0xc8>
    1fa8:	e5930004 	ldr	r0, [r3, #4]
    1fac:	e3a01000 	mov	r1, #0	; 0x0
    1fb0:	e3a02010 	mov	r2, #16	; 0x10
    1fb4:	eb003df0 	bl	1177c <simple_strtoul>
    1fb8:	e3a01000 	mov	r1, #0	; 0x0
    1fbc:	e3a02010 	mov	r2, #16	; 0x10
    1fc0:	e1a07000 	mov	r7, r0
    1fc4:	e5940008 	ldr	r0, [r4, #8]
    1fc8:	eb003deb 	bl	1177c <simple_strtoul>
    1fcc:	e3a01000 	mov	r1, #0	; 0x0
    1fd0:	e1a06000 	mov	r6, r0
    1fd4:	e3a02010 	mov	r2, #16	; 0x10
    1fd8:	e594000c 	ldr	r0, [r4, #12]
    1fdc:	eb003de6 	bl	1177c <simple_strtoul>
    1fe0:	e2800003 	add	r0, r0, #3	; 0x3
    1fe4:	e1a00120 	lsr	r0, r0, #2
    1fe8:	e3a05000 	mov	r5, #0	; 0x0
    1fec:	ea00000f 	b	2030 <do_mem_cmp+0xa8>
    1ff0:	e5972000 	ldr	r2, [r7]
    1ff4:	e5963000 	ldr	r3, [r6]
    1ff8:	e1520003 	cmp	r2, r3
    1ffc:	0a000008 	beq	2024 <do_mem_cmp+0x9c>
    2000:	e58d3000 	str	r3, [sp]
    2004:	e1a01007 	mov	r1, r7
    2008:	e1a03006 	mov	r3, r6
    200c:	e59f0048 	ldr	r0, [pc, #72]	; 205c <do_mem_cmp+0xd4>
    2010:	e59fc048 	ldr	ip, [pc, #72]	; 2060 <do_mem_cmp+0xd8>
    2014:	e1a0e00f 	mov	lr, pc
    2018:	e59cf000 	ldr	pc, [ip]
    201c:	e3a04001 	mov	r4, #1	; 0x1
    2020:	ea000005 	b	203c <do_mem_cmp+0xb4>
    2024:	e2855001 	add	r5, r5, #1	; 0x1
    2028:	e2877004 	add	r7, r7, #4	; 0x4
    202c:	e2866004 	add	r6, r6, #4	; 0x4
    2030:	e1500005 	cmp	r0, r5
    2034:	1affffed 	bne	1ff0 <do_mem_cmp+0x68>
    2038:	e3a04000 	mov	r4, #0	; 0x0
    203c:	e1a01005 	mov	r1, r5
    2040:	e59f001c 	ldr	r0, [pc, #28]	; 2064 <do_mem_cmp+0xdc>
    2044:	e59f3014 	ldr	r3, [pc, #20]	; 2060 <do_mem_cmp+0xd8>
    2048:	e1a0e00f 	mov	lr, pc
    204c:	e593f000 	ldr	pc, [r3]
    2050:	e1a00004 	mov	r0, r4
    2054:	e28dd00c 	add	sp, sp, #12	; 0xc
    2058:	e8bd80f0 	pop	{r4, r5, r6, r7, pc}
    205c:	0001653c 	.word	0x0001653c
    2060:	3c00d6cc 	.word	0x3c00d6cc
    2064:	00016574 	.word	0x00016574

00002068 <do_mem_mw>:
    2068:	e92d40f0 	push	{r4, r5, r6, r7, lr}
    206c:	e1a06002 	mov	r6, r2
    2070:	e2422003 	sub	r2, r2, #3	; 0x3
    2074:	e3520001 	cmp	r2, #1	; 0x1
    2078:	e24dd004 	sub	sp, sp, #4	; 0x4
    207c:	e1a04003 	mov	r4, r3
    2080:	9a000002 	bls	2090 <do_mem_mw+0x28>
    2084:	eb000385 	bl	2ea0 <cmd_usage>
    2088:	e3a00001 	mov	r0, #1	; 0x1
    208c:	ea000016 	b	20ec <do_mem_mw+0x84>
    2090:	e3a01000 	mov	r1, #0	; 0x0
    2094:	e3a02010 	mov	r2, #16	; 0x10
    2098:	e5930004 	ldr	r0, [r3, #4]
    209c:	eb003db6 	bl	1177c <simple_strtoul>
    20a0:	e3a01000 	mov	r1, #0	; 0x0
    20a4:	e1a05000 	mov	r5, r0
    20a8:	e3a02010 	mov	r2, #16	; 0x10
    20ac:	e5940008 	ldr	r0, [r4, #8]
    20b0:	eb003db1 	bl	1177c <simple_strtoul>
    20b4:	e3560004 	cmp	r6, #4	; 0x4
    20b8:	e1a07000 	mov	r7, r0
    20bc:	13a00001 	movne	r0, #1	; 0x1
    20c0:	1a000006 	bne	20e0 <do_mem_mw+0x78>
    20c4:	e594000c 	ldr	r0, [r4, #12]
    20c8:	e3a01000 	mov	r1, #0	; 0x0
    20cc:	e3a02010 	mov	r2, #16	; 0x10
    20d0:	eb003da9 	bl	1177c <simple_strtoul>
    20d4:	ea000001 	b	20e0 <do_mem_mw+0x78>
    20d8:	e5057004 	str	r7, [r5, #-4]
    20dc:	e2400001 	sub	r0, r0, #1	; 0x1
    20e0:	e3500000 	cmp	r0, #0	; 0x0
    20e4:	e2855004 	add	r5, r5, #4	; 0x4
    20e8:	1afffffa 	bne	20d8 <do_mem_mw+0x70>
    20ec:	e28dd004 	add	sp, sp, #4	; 0x4
    20f0:	e8bd80f0 	pop	{r4, r5, r6, r7, pc}

000020f4 <do_mem_md>:
    20f4:	e92d4070 	push	{r4, r5, r6, lr}
    20f8:	e3520001 	cmp	r2, #1	; 0x1
    20fc:	e24dd008 	sub	sp, sp, #8	; 0x8
    2100:	e1a04002 	mov	r4, r2
    2104:	e1a05003 	mov	r5, r3
    2108:	ca000002 	bgt	2118 <do_mem_md+0x24>
    210c:	eb000363 	bl	2ea0 <cmd_usage>
    2110:	e3a00001 	mov	r0, #1	; 0x1
    2114:	ea000014 	b	216c <do_mem_md+0x78>
    2118:	e5930004 	ldr	r0, [r3, #4]
    211c:	e3a01000 	mov	r1, #0	; 0x0
    2120:	e3a02010 	mov	r2, #16	; 0x10
    2124:	eb003d94 	bl	1177c <simple_strtoul>
    2128:	e3540002 	cmp	r4, #2	; 0x2
    212c:	e1a06000 	mov	r6, r0
    2130:	03a030a0 	moveq	r3, #160	; 0xa0
    2134:	0a000004 	beq	214c <do_mem_md+0x58>
    2138:	e5950008 	ldr	r0, [r5, #8]
    213c:	e3a01000 	mov	r1, #0	; 0x0
    2140:	e3a02010 	mov	r2, #16	; 0x10
    2144:	eb003d8c 	bl	1177c <simple_strtoul>
    2148:	e1a03000 	mov	r3, r0
    214c:	e3a0c004 	mov	ip, #4	; 0x4
    2150:	e1a00006 	mov	r0, r6
    2154:	e1a0200c 	mov	r2, ip
    2158:	e1a03123 	lsr	r3, r3, #2
    215c:	e1a01006 	mov	r1, r6
    2160:	e58dc000 	str	ip, [sp]
    2164:	eb003cec 	bl	1151c <print_buffer>
    2168:	e3a00000 	mov	r0, #0	; 0x0
    216c:	e28dd008 	add	sp, sp, #8	; 0x8
    2170:	e8bd8070 	pop	{r4, r5, r6, pc}

00002174 <do_nand>:
    2174:	e3520001 	cmp	r2, #1	; 0x1
    2178:	e92d4070 	push	{r4, r5, r6, lr}
    217c:	e1a06002 	mov	r6, r2
    2180:	e1a05003 	mov	r5, r3
    2184:	da000020 	ble	220c <do_nand+0x98>
    2188:	e5930004 	ldr	r0, [r3, #4]
    218c:	e59f10a0 	ldr	r1, [pc, #160]	; 2234 <do_nand+0xc0>
    2190:	e3a02007 	mov	r2, #7	; 0x7
    2194:	ebfffcb5 	bl	1470 <strncmp>
    2198:	e2504000 	subs	r4, r0, #0	; 0x0
    219c:	1a000001 	bne	21a8 <do_nand+0x34>
    21a0:	eb0026f6 	bl	bd80 <ecc_print_stat>
    21a4:	ea000009 	b	21d0 <do_nand+0x5c>
    21a8:	e5950004 	ldr	r0, [r5, #4]
    21ac:	e59f1084 	ldr	r1, [pc, #132]	; 2238 <do_nand+0xc4>
    21b0:	e3a02003 	mov	r2, #3	; 0x3
    21b4:	ebfffcad 	bl	1470 <strncmp>
    21b8:	e2504000 	subs	r4, r0, #0	; 0x0
    21bc:	1a000005 	bne	21d8 <do_nand+0x64>
    21c0:	e3560002 	cmp	r6, #2	; 0x2
    21c4:	d3a00000 	movle	r0, #0	; 0x0
    21c8:	c3a00001 	movgt	r0, #1	; 0x1
    21cc:	eb0022e5 	bl	ad68 <base_scan_badblocks>
    21d0:	e1a00004 	mov	r0, r4
    21d4:	e8bd8070 	pop	{r4, r5, r6, pc}
    21d8:	e5950004 	ldr	r0, [r5, #4]
    21dc:	e59f1058 	ldr	r1, [pc, #88]	; 223c <do_nand+0xc8>
    21e0:	e3a02007 	mov	r2, #7	; 0x7
    21e4:	ebfffca1 	bl	1470 <strncmp>
    21e8:	e2504000 	subs	r4, r0, #0	; 0x0
    21ec:	13a00000 	movne	r0, #0	; 0x0
    21f0:	18bd8070 	popne	{r4, r5, r6, pc}
    21f4:	e3560002 	cmp	r6, #2	; 0x2
    21f8:	1a000005 	bne	2214 <do_nand+0xa0>
    21fc:	e59f003c 	ldr	r0, [pc, #60]	; 2240 <do_nand+0xcc>
    2200:	e59f303c 	ldr	r3, [pc, #60]	; 2244 <do_nand+0xd0>
    2204:	e1a0e00f 	mov	lr, pc
    2208:	e593f000 	ldr	pc, [r3]
    220c:	e3e00000 	mvn	r0, #0	; 0x0
    2210:	e8bd8070 	pop	{r4, r5, r6, pc}
    2214:	e3a02010 	mov	r2, #16	; 0x10
    2218:	e1a01004 	mov	r1, r4
    221c:	e5950008 	ldr	r0, [r5, #8]
    2220:	eb003d55 	bl	1177c <simple_strtoul>
    2224:	e1a01004 	mov	r1, r4
    2228:	eb0023aa 	bl	b0d8 <base_block_markbad>
    222c:	e1a00004 	mov	r0, r4
    2230:	e8bd8070 	pop	{r4, r5, r6, pc}
    2234:	0001663e 	.word	0x0001663e
    2238:	0001664a 	.word	0x0001664a
    223c:	00016646 	.word	0x00016646
    2240:	0001664e 	.word	0x0001664e
    2244:	3c00d6cc 	.word	0x3c00d6cc

00002248 <do_sc>:
    2248:	e92d40f0 	push	{r4, r5, r6, r7, lr}
    224c:	e3520002 	cmp	r2, #2	; 0x2
    2250:	e24ddf47 	sub	sp, sp, #284	; 0x11c
    2254:	0a000002 	beq	2264 <do_sc+0x1c>
    2258:	eb000310 	bl	2ea0 <cmd_usage>
    225c:	e3a00001 	mov	r0, #1	; 0x1
    2260:	ea000060 	b	23e8 <do_sc+0x1a0>
    2264:	e5930004 	ldr	r0, [r3, #4]
    2268:	e3a01000 	mov	r1, #0	; 0x0
    226c:	e3a02010 	mov	r2, #16	; 0x10
    2270:	eb003d41 	bl	1177c <simple_strtoul>
    2274:	e28d4f41 	add	r4, sp, #260	; 0x104
    2278:	e2844002 	add	r4, r4, #2	; 0x2
    227c:	e59f116c 	ldr	r1, [pc, #364]	; 23f0 <do_sc+0x1a8>
    2280:	e1a06000 	mov	r6, r0
    2284:	e3a02012 	mov	r2, #18	; 0x12
    2288:	e1a00004 	mov	r0, r4
    228c:	ebfffcb0 	bl	1554 <memcpy>
    2290:	e3a01000 	mov	r1, #0	; 0x0
    2294:	ea000004 	b	22ac <do_sc+0x64>
    2298:	e7d12006 	ldrb	r2, [r1, r6]
    229c:	e7d43001 	ldrb	r3, [r4, r1]
    22a0:	e2811001 	add	r1, r1, #1	; 0x1
    22a4:	e1520003 	cmp	r2, r3
    22a8:	1a000014 	bne	2300 <do_sc+0xb8>
    22ac:	e3510012 	cmp	r1, #18	; 0x12
    22b0:	e0815006 	add	r5, r1, r6
    22b4:	1afffff7 	bne	2298 <do_sc+0x50>
    22b8:	e2851eff 	add	r1, r5, #4080	; 0xff0
    22bc:	e281100f 	add	r1, r1, #15	; 0xf
    22c0:	e1a02005 	mov	r2, r5
    22c4:	e5d23000 	ldrb	r3, [r2]
    22c8:	e353000a 	cmp	r3, #10	; 0xa
    22cc:	1a000005 	bne	22e8 <do_sc+0xa0>
    22d0:	e5d23001 	ldrb	r3, [r2, #1]
    22d4:	e353005d 	cmp	r3, #93	; 0x5d
    22d8:	1a000002 	bne	22e8 <do_sc+0xa0>
    22dc:	e5d23002 	ldrb	r3, [r2, #2]
    22e0:	e353005d 	cmp	r3, #93	; 0x5d
    22e4:	0a000003 	beq	22f8 <do_sc+0xb0>
    22e8:	e1520001 	cmp	r2, r1
    22ec:	e2822001 	add	r2, r2, #1	; 0x1
    22f0:	1afffff3 	bne	22c4 <do_sc+0x7c>
    22f4:	ea000001 	b	2300 <do_sc+0xb8>
    22f8:	e3550000 	cmp	r5, #0	; 0x0
    22fc:	1a000006 	bne	231c <do_sc+0xd4>
    2300:	e59f00ec 	ldr	r0, [pc, #236]	; 23f4 <do_sc+0x1ac>
    2304:	e1a01006 	mov	r1, r6
    2308:	e59f30e8 	ldr	r3, [pc, #232]	; 23f8 <do_sc+0x1b0>
    230c:	e1a0e00f 	mov	lr, pc
    2310:	e593f000 	ldr	pc, [r3]
    2314:	e3e00000 	mvn	r0, #0	; 0x0
    2318:	ea000032 	b	23e8 <do_sc+0x1a0>
    231c:	e59f40d4 	ldr	r4, [pc, #212]	; 23f8 <do_sc+0x1b0>
    2320:	e1a01006 	mov	r1, r6
    2324:	e59f00d0 	ldr	r0, [pc, #208]	; 23fc <do_sc+0x1b4>
    2328:	e28d6008 	add	r6, sp, #8	; 0x8
    232c:	e1a0e00f 	mov	lr, pc
    2330:	e594f000 	ldr	pc, [r4]
    2334:	e2466002 	sub	r6, r6, #2	; 0x2
    2338:	e1a07004 	mov	r7, r4
    233c:	ea000000 	b	2344 <do_sc+0xfc>
    2340:	e2855001 	add	r5, r5, #1	; 0x1
    2344:	e5d53000 	ldrb	r3, [r5]
    2348:	e353002d 	cmp	r3, #45	; 0x2d
    234c:	1353000a 	cmpne	r3, #10	; 0xa
    2350:	0afffffa 	beq	2340 <do_sc+0xf8>
    2354:	e353005b 	cmp	r3, #91	; 0x5b
    2358:	0afffff8 	beq	2340 <do_sc+0xf8>
    235c:	e353005d 	cmp	r3, #93	; 0x5d
    2360:	0a000001 	beq	236c <do_sc+0x124>
    2364:	e1a02006 	mov	r2, r6
    2368:	ea000005 	b	2384 <do_sc+0x13c>
    236c:	e5d53001 	ldrb	r3, [r5, #1]
    2370:	e353005d 	cmp	r3, #93	; 0x5d
    2374:	1afffffa 	bne	2364 <do_sc+0x11c>
    2378:	ea00000c 	b	23b0 <do_sc+0x168>
    237c:	e5423001 	strb	r3, [r2, #-1]
    2380:	e2855001 	add	r5, r5, #1	; 0x1
    2384:	e5d53000 	ldrb	r3, [r5]
    2388:	e1a01002 	mov	r1, r2
    238c:	e353000a 	cmp	r3, #10	; 0xa
    2390:	1353005d 	cmpne	r3, #93	; 0x5d
    2394:	03a04000 	moveq	r4, #0	; 0x0
    2398:	13a04001 	movne	r4, #1	; 0x1
    239c:	e2822001 	add	r2, r2, #1	; 0x1
    23a0:	1afffff5 	bne	237c <do_sc+0x134>
    23a4:	e3550000 	cmp	r5, #0	; 0x0
    23a8:	e5c14000 	strb	r4, [r1]
    23ac:	1a000005 	bne	23c8 <do_sc+0x180>
    23b0:	e59f0048 	ldr	r0, [pc, #72]	; 2400 <do_sc+0x1b8>
    23b4:	e59f303c 	ldr	r3, [pc, #60]	; 23f8 <do_sc+0x1b0>
    23b8:	e1a0e00f 	mov	lr, pc
    23bc:	e593f000 	ldr	pc, [r3]
    23c0:	e3a00000 	mov	r0, #0	; 0x0
    23c4:	ea000007 	b	23e8 <do_sc+0x1a0>
    23c8:	e1a01006 	mov	r1, r6
    23cc:	e59f0030 	ldr	r0, [pc, #48]	; 2404 <do_sc+0x1bc>
    23d0:	e1a0e00f 	mov	lr, pc
    23d4:	e597f000 	ldr	pc, [r7]
    23d8:	e1a00006 	mov	r0, r6
    23dc:	e1a01004 	mov	r1, r4
    23e0:	eb004139 	bl	128cc <run_command>
    23e4:	eaffffd6 	b	2344 <do_sc+0xfc>
    23e8:	e28ddf47 	add	sp, sp, #284	; 0x11c
    23ec:	e8bd80f0 	pop	{r4, r5, r6, r7, pc}
    23f0:	00015f6c 	.word	0x00015f6c
    23f4:	0001668d 	.word	0x0001668d
    23f8:	3c00d6cc 	.word	0x3c00d6cc
    23fc:	000166aa 	.word	0x000166aa
    2400:	000166c3 	.word	0x000166c3
    2404:	000166d0 	.word	0x000166d0

00002408 <do_ls>:
    2408:	e52de004 	push	{lr}		; (str lr, [sp, #-4]!)
    240c:	e59f001c 	ldr	r0, [pc, #28]	; 2430 <do_ls+0x28>
    2410:	e24dd004 	sub	sp, sp, #4	; 0x4
    2414:	e59f1018 	ldr	r1, [pc, #24]	; 2434 <do_ls+0x2c>
    2418:	e59f3018 	ldr	r3, [pc, #24]	; 2438 <do_ls+0x30>
    241c:	e1a0e00f 	mov	lr, pc
    2420:	e593f000 	ldr	pc, [r3]
    2424:	e3a00000 	mov	r0, #0	; 0x0
    2428:	e28dd004 	add	sp, sp, #4	; 0x4
    242c:	e8bd8000 	pop	{pc}
    2430:	00016437 	.word	0x00016437
    2434:	3c00d08c 	.word	0x3c00d08c
    2438:	3c00d6cc 	.word	0x3c00d6cc

0000243c <do_linkpc>:
    243c:	e52de004 	push	{lr}		; (str lr, [sp, #-4]!)
    2440:	e24dd004 	sub	sp, sp, #4	; 0x4
    2444:	eb003a40 	bl	10d4c <linkpc_loop>
    2448:	e3a00000 	mov	r0, #0	; 0x0
    244c:	e28dd004 	add	sp, sp, #4	; 0x4
    2450:	e8bd8000 	pop	{pc}

00002454 <do_pads>:
    2454:	e3520002 	cmp	r2, #2	; 0x2
    2458:	e92d47f0 	push	{r4, r5, r6, r7, r8, r9, sl, lr}
    245c:	d59f0194 	ldrle	r0, [pc, #404]	; 25f8 <do_pads+0x1a4>
    2460:	e1a05002 	mov	r5, r2
    2464:	e1a06003 	mov	r6, r3
    2468:	da000015 	ble	24c4 <do_pads+0x70>
    246c:	e5930008 	ldr	r0, [r3, #8]
    2470:	e3a01000 	mov	r1, #0	; 0x0
    2474:	e3a0200a 	mov	r2, #10	; 0xa
    2478:	eb003cbf 	bl	1177c <simple_strtoul>
    247c:	e3550003 	cmp	r5, #3	; 0x3
    2480:	e1a04000 	mov	r4, r0
    2484:	01a07000 	moveq	r7, r0
    2488:	0a000004 	beq	24a0 <do_pads+0x4c>
    248c:	e596000c 	ldr	r0, [r6, #12]
    2490:	e3a01000 	mov	r1, #0	; 0x0
    2494:	e3a0200a 	mov	r2, #10	; 0xa
    2498:	eb003cb7 	bl	1177c <simple_strtoul>
    249c:	e1a07000 	mov	r7, r0
    24a0:	e1943007 	orrs	r3, r4, r7
    24a4:	4a000005 	bmi	24c0 <do_pads+0x6c>
    24a8:	e1a05004 	mov	r5, r4
    24ac:	e2866004 	add	r6, r6, #4	; 0x4
    24b0:	e59f9144 	ldr	r9, [pc, #324]	; 25fc <do_pads+0x1a8>
    24b4:	e59f8144 	ldr	r8, [pc, #324]	; 2600 <do_pads+0x1ac>
    24b8:	e59fa144 	ldr	sl, [pc, #324]	; 2604 <do_pads+0x1b0>
    24bc:	ea000049 	b	25e8 <do_pads+0x194>
    24c0:	e59f0140 	ldr	r0, [pc, #320]	; 2608 <do_pads+0x1b4>
    24c4:	e59f3134 	ldr	r3, [pc, #308]	; 2600 <do_pads+0x1ac>
    24c8:	e1a0e00f 	mov	lr, pc
    24cc:	e593f000 	ldr	pc, [r3]
    24d0:	ea000046 	b	25f0 <do_pads+0x19c>
    24d4:	e5960000 	ldr	r0, [r6]
    24d8:	e59f111c 	ldr	r1, [pc, #284]	; 25fc <do_pads+0x1a8>
    24dc:	e3a02002 	mov	r2, #2	; 0x2
    24e0:	ebfffbe2 	bl	1470 <strncmp>
    24e4:	e3500000 	cmp	r0, #0	; 0x0
    24e8:	1a00000b 	bne	251c <do_pads+0xc8>
    24ec:	e1a02000 	mov	r2, r0
    24f0:	e3a01001 	mov	r1, #1	; 0x1
    24f4:	e1a00005 	mov	r0, r5
    24f8:	ebfff9b6 	bl	bd8 <pads_chmod>
    24fc:	e1a00005 	mov	r0, r5
    2500:	e5984000 	ldr	r4, [r8]
    2504:	ebfffa5a 	bl	e74 <pads_getpin>
    2508:	e1a01005 	mov	r1, r5
    250c:	e1a02000 	mov	r2, r0
    2510:	e59f00f4 	ldr	r0, [pc, #244]	; 260c <do_pads+0x1b8>
    2514:	e12fff34 	blx	r4
    2518:	ea000031 	b	25e4 <do_pads+0x190>
    251c:	e59f10ec 	ldr	r1, [pc, #236]	; 2610 <do_pads+0x1bc>
    2520:	e3a02004 	mov	r2, #4	; 0x4
    2524:	e5960000 	ldr	r0, [r6]
    2528:	ebfffbd0 	bl	1470 <strncmp>
    252c:	e3500000 	cmp	r0, #0	; 0x0
    2530:	01a00005 	moveq	r0, r5
    2534:	03a01002 	moveq	r1, #2	; 0x2
    2538:	03a02001 	moveq	r2, #1	; 0x1
    253c:	0a000011 	beq	2588 <do_pads+0x134>
    2540:	e59f10cc 	ldr	r1, [pc, #204]	; 2614 <do_pads+0x1c0>
    2544:	e3a02003 	mov	r2, #3	; 0x3
    2548:	e5960000 	ldr	r0, [r6]
    254c:	ebfffbc7 	bl	1470 <strncmp>
    2550:	e3500000 	cmp	r0, #0	; 0x0
    2554:	01a02000 	moveq	r2, r0
    2558:	03a01002 	moveq	r1, #2	; 0x2
    255c:	01a00005 	moveq	r0, r5
    2560:	0a000008 	beq	2588 <do_pads+0x134>
    2564:	e5960000 	ldr	r0, [r6]
    2568:	e59f10a8 	ldr	r1, [pc, #168]	; 2618 <do_pads+0x1c4>
    256c:	e3a02004 	mov	r2, #4	; 0x4
    2570:	ebfffbbe 	bl	1470 <strncmp>
    2574:	e3500000 	cmp	r0, #0	; 0x0
    2578:	1a000004 	bne	2590 <do_pads+0x13c>
    257c:	e1a01000 	mov	r1, r0
    2580:	e1a02001 	mov	r2, r1
    2584:	e1a00005 	mov	r0, r5
    2588:	ebfff992 	bl	bd8 <pads_chmod>
    258c:	ea000014 	b	25e4 <do_pads+0x190>
    2590:	e5960000 	ldr	r0, [r6]
    2594:	e59f1080 	ldr	r1, [pc, #128]	; 261c <do_pads+0x1c8>
    2598:	e3a02002 	mov	r2, #2	; 0x2
    259c:	ebfffbb3 	bl	1470 <strncmp>
    25a0:	e3500000 	cmp	r0, #0	; 0x0
    25a4:	1a00000c 	bne	25dc <do_pads+0x188>
    25a8:	e1a00005 	mov	r0, r5
    25ac:	ebfff973 	bl	b80 <pads_states>
    25b0:	e3500000 	cmp	r0, #0	; 0x0
    25b4:	e5983000 	ldr	r3, [r8]
    25b8:	059f2060 	ldreq	r2, [pc, #96]	; 2620 <do_pads+0x1cc>
    25bc:	0a000002 	beq	25cc <do_pads+0x178>
    25c0:	e3500001 	cmp	r0, #1	; 0x1
    25c4:	01a02009 	moveq	r2, r9
    25c8:	11a0200a 	movne	r2, sl
    25cc:	e59f0050 	ldr	r0, [pc, #80]	; 2624 <do_pads+0x1d0>
    25d0:	e1a01005 	mov	r1, r5
    25d4:	e12fff33 	blx	r3
    25d8:	ea000001 	b	25e4 <do_pads+0x190>
    25dc:	e59f0044 	ldr	r0, [pc, #68]	; 2628 <do_pads+0x1d4>
    25e0:	eaffffb7 	b	24c4 <do_pads+0x70>
    25e4:	e2855001 	add	r5, r5, #1	; 0x1
    25e8:	e1550007 	cmp	r5, r7
    25ec:	daffffb8 	ble	24d4 <do_pads+0x80>
    25f0:	e3a00000 	mov	r0, #0	; 0x0
    25f4:	e8bd87f0 	pop	{r4, r5, r6, r7, r8, r9, sl, pc}
    25f8:	000166f4 	.word	0x000166f4
    25fc:	00016731 	.word	0x00016731
    2600:	3c00d6cc 	.word	0x3c00d6cc
    2604:	00018d9b 	.word	0x00018d9b
    2608:	0001670c 	.word	0x0001670c
    260c:	00016734 	.word	0x00016734
    2610:	00016748 	.word	0x00016748
    2614:	0001674d 	.word	0x0001674d
    2618:	00016751 	.word	0x00016751
    261c:	00016756 	.word	0x00016756
    2620:	00016759 	.word	0x00016759
    2624:	00016762 	.word	0x00016762
    2628:	00016777 	.word	0x00016777

0000262c <do_mux>:
    262c:	e52de004 	push	{lr}		; (str lr, [sp, #-4]!)
    2630:	e3520001 	cmp	r2, #1	; 0x1
    2634:	e24dd004 	sub	sp, sp, #4	; 0x4
    2638:	da000005 	ble	2654 <do_mux+0x28>
    263c:	e5930004 	ldr	r0, [r3, #4]
    2640:	e3a01000 	mov	r1, #0	; 0x0
    2644:	e3a0200a 	mov	r2, #10	; 0xa
    2648:	eb003c4b 	bl	1177c <simple_strtoul>
    264c:	e6ff0070 	uxth	r0, r0
    2650:	ebfffae6 	bl	11f0 <set_mux>
    2654:	e59f301c 	ldr	r3, [pc, #28]	; 2678 <do_mux+0x4c>
    2658:	e59f001c 	ldr	r0, [pc, #28]	; 267c <do_mux+0x50>
    265c:	e5931000 	ldr	r1, [r3]
    2660:	e59f3018 	ldr	r3, [pc, #24]	; 2680 <do_mux+0x54>
    2664:	e1a0e00f 	mov	lr, pc
    2668:	e593f000 	ldr	pc, [r3]
    266c:	e3a00000 	mov	r0, #0	; 0x0
    2670:	e28dd004 	add	sp, sp, #4	; 0x4
    2674:	e8bd8000 	pop	{pc}
    2678:	21e09000 	.word	0x21e09000
    267c:	00016790 	.word	0x00016790
    2680:	3c00d6cc 	.word	0x3c00d6cc

00002684 <do_mac>:
    2684:	e59f3020 	ldr	r3, [pc, #32]	; 26ac <do_mac+0x28>
    2688:	e92d4010 	push	{r4, lr}
    268c:	e5934000 	ldr	r4, [r3]
    2690:	ebfff8c4 	bl	9a8 <efuse_mac>
    2694:	e1a02000 	mov	r2, r0
    2698:	e1a03001 	mov	r3, r1
    269c:	e59f000c 	ldr	r0, [pc, #12]	; 26b0 <do_mac+0x2c>
    26a0:	e12fff34 	blx	r4
    26a4:	e3a00000 	mov	r0, #0	; 0x0
    26a8:	e8bd8010 	pop	{r4, pc}
    26ac:	3c00d6cc 	.word	0x3c00d6cc
    26b0:	000167a2 	.word	0x000167a2

000026b4 <do_boot>:
    26b4:	e52de004 	push	{lr}		; (str lr, [sp, #-4]!)
    26b8:	e3a00000 	mov	r0, #0	; 0x0
    26bc:	e24dd004 	sub	sp, sp, #4	; 0x4
    26c0:	ebfff760 	bl	448 <try_boot>
    26c4:	e3a00000 	mov	r0, #0	; 0x0
    26c8:	e28dd004 	add	sp, sp, #4	; 0x4
    26cc:	e8bd8000 	pop	{pc}

000026d0 <do_efuse>:
    26d0:	e52de004 	push	{lr}		; (str lr, [sp, #-4]!)
    26d4:	e3520001 	cmp	r2, #1	; 0x1
    26d8:	e24dd004 	sub	sp, sp, #4	; 0x4
    26dc:	da000006 	ble	26fc <do_efuse+0x2c>
    26e0:	e5930004 	ldr	r0, [r3, #4]
    26e4:	e59f1024 	ldr	r1, [pc, #36]	; 2710 <do_efuse+0x40>
    26e8:	e3a02002 	mov	r2, #2	; 0x2
    26ec:	ebfffb5f 	bl	1470 <strncmp>
    26f0:	e3500000 	cmp	r0, #0	; 0x0
    26f4:	02800001 	addeq	r0, r0, #1	; 0x1
    26f8:	0a000000 	beq	2700 <do_efuse+0x30>
    26fc:	e3a00000 	mov	r0, #0	; 0x0
    2700:	ebfff8ab 	bl	9b4 <efuse_info>
    2704:	e3a00000 	mov	r0, #0	; 0x0
    2708:	e28dd004 	add	sp, sp, #4	; 0x4
    270c:	e8bd8000 	pop	{pc}
    2710:	000167ba 	.word	0x000167ba

00002714 <do_pi>:
    2714:	e92d4030 	push	{r4, r5, lr}
    2718:	e3520001 	cmp	r2, #1	; 0x1
    271c:	e24dd004 	sub	sp, sp, #4	; 0x4
    2720:	e1a04002 	mov	r4, r2
    2724:	e1a05003 	mov	r5, r3
    2728:	da000015 	ble	2784 <do_pi+0x70>
    272c:	e59f10ac 	ldr	r1, [pc, #172]	; 27e0 <do_pi+0xcc>
    2730:	e5930004 	ldr	r0, [r3, #4]
    2734:	e3a02004 	mov	r2, #4	; 0x4
    2738:	ebfffb4c 	bl	1470 <strncmp>
    273c:	e2501000 	subs	r1, r0, #0	; 0x0
    2740:	1a00000d 	bne	277c <do_pi+0x68>
    2744:	e3540002 	cmp	r4, #2	; 0x2
    2748:	01a04001 	moveq	r4, r1
    274c:	0a000003 	beq	2760 <do_pi+0x4c>
    2750:	e5950008 	ldr	r0, [r5, #8]
    2754:	e3a02010 	mov	r2, #16	; 0x10
    2758:	eb003c07 	bl	1177c <simple_strtoul>
    275c:	e1a04000 	mov	r4, r0
    2760:	e59f007c 	ldr	r0, [pc, #124]	; 27e4 <do_pi+0xd0>
    2764:	e1a01004 	mov	r1, r4
    2768:	e59f3078 	ldr	r3, [pc, #120]	; 27e8 <do_pi+0xd4>
    276c:	e1a0e00f 	mov	lr, pc
    2770:	e593f000 	ldr	pc, [r3]
    2774:	e1a00004 	mov	r0, r4
    2778:	eb00159f 	bl	7dfc <burn>
    277c:	e3a04000 	mov	r4, #0	; 0x0
    2780:	ea000013 	b	27d4 <do_pi+0xc0>
    2784:	e3a00481 	mov	r0, #-2130706432	; 0x81000000
    2788:	eb003f8f 	bl	125cc <ius_check_header>
    278c:	e2504000 	subs	r4, r0, #0	; 0x0
    2790:	159f0054 	ldrne	r0, [pc, #84]	; 27ec <do_pi+0xd8>
    2794:	1a000005 	bne	27b0 <do_pi+0x9c>
    2798:	e3a0000d 	mov	r0, #13	; 0xd
    279c:	e3a01001 	mov	r1, #1	; 0x1
    27a0:	eb000f4d 	bl	64dc <vs_assign_by_id>
    27a4:	e2504000 	subs	r4, r0, #0	; 0x0
    27a8:	0a000005 	beq	27c4 <do_pi+0xb0>
    27ac:	e59f003c 	ldr	r0, [pc, #60]	; 27f0 <do_pi+0xdc>
    27b0:	e1a01004 	mov	r1, r4
    27b4:	e59f302c 	ldr	r3, [pc, #44]	; 27e8 <do_pi+0xd4>
    27b8:	e1a0e00f 	mov	lr, pc
    27bc:	e593f000 	ldr	pc, [r3]
    27c0:	ea000003 	b	27d4 <do_pi+0xc0>
    27c4:	e3a00481 	mov	r0, #-2130706432	; 0x81000000
    27c8:	e3a0100d 	mov	r1, #13	; 0xd
    27cc:	e1a02004 	mov	r2, r4
    27d0:	eb001501 	bl	7bdc <burn_images>
    27d4:	e1a00004 	mov	r0, r4
    27d8:	e28dd004 	add	sp, sp, #4	; 0x4
    27dc:	e8bd8030 	pop	{r4, r5, pc}
    27e0:	000167bd 	.word	0x000167bd
    27e4:	000167c2 	.word	0x000167c2
    27e8:	3c00d6cc 	.word	0x3c00d6cc
    27ec:	000167ec 	.word	0x000167ec
    27f0:	0001680c 	.word	0x0001680c

000027f4 <do_spbyte>:
    27f4:	e52de004 	push	{lr}		; (str lr, [sp, #-4]!)
    27f8:	e5930004 	ldr	r0, [r3, #4]
    27fc:	e24dd004 	sub	sp, sp, #4	; 0x4
    2800:	e3a01000 	mov	r1, #0	; 0x0
    2804:	e3a0200a 	mov	r2, #10	; 0xa
    2808:	eb003bdb 	bl	1177c <simple_strtoul>
    280c:	eb002ee2 	bl	e39c <spi_set_bytes>
    2810:	e3a00000 	mov	r0, #0	; 0x0
    2814:	e28dd004 	add	sp, sp, #4	; 0x4
    2818:	e8bd8000 	pop	{pc}

0000281c <do_cfg>:
    281c:	e52de004 	push	{lr}		; (str lr, [sp, #-4]!)
    2820:	e5930004 	ldr	r0, [r3, #4]
    2824:	e24dd004 	sub	sp, sp, #4	; 0x4
    2828:	e3a01000 	mov	r1, #0	; 0x0
    282c:	e3a02010 	mov	r2, #16	; 0x10
    2830:	eb003bd1 	bl	1177c <simple_strtoul>
    2834:	eb00138f 	bl	7678 <cdbg_config_isi>
    2838:	e3a00000 	mov	r0, #0	; 0x0
    283c:	e28dd004 	add	sp, sp, #4	; 0x4
    2840:	e8bd8000 	pop	{pc}

00002844 <do_sleep>:
    2844:	e52de004 	push	{lr}		; (str lr, [sp, #-4]!)
    2848:	e3a01000 	mov	r1, #0	; 0x0
    284c:	e24dd004 	sub	sp, sp, #4	; 0x4
    2850:	e3a0200a 	mov	r2, #10	; 0xa
    2854:	e5930004 	ldr	r0, [r3, #4]
    2858:	eb003bc7 	bl	1177c <simple_strtoul>
    285c:	e59f3020 	ldr	r3, [pc, #32]	; 2884 <do_sleep+0x40>
    2860:	e0000093 	mul	r0, r3, r0
    2864:	eb002c5c 	bl	d9dc <udelay>
    2868:	e59f0018 	ldr	r0, [pc, #24]	; 2888 <do_sleep+0x44>
    286c:	e59f3018 	ldr	r3, [pc, #24]	; 288c <do_sleep+0x48>
    2870:	e1a0e00f 	mov	lr, pc
    2874:	e593f000 	ldr	pc, [r3]
    2878:	e3a00000 	mov	r0, #0	; 0x0
    287c:	e28dd004 	add	sp, sp, #4	; 0x4
    2880:	e8bd8000 	pop	{pc}
    2884:	000f4240 	.word	0x000f4240
    2888:	00016827 	.word	0x00016827
    288c:	3c00d6cc 	.word	0x3c00d6cc

00002890 <do_go>:
    2890:	e52de004 	push	{lr}		; (str lr, [sp, #-4]!)
    2894:	e5930004 	ldr	r0, [r3, #4]
    2898:	e24dd004 	sub	sp, sp, #4	; 0x4
    289c:	e3a02010 	mov	r2, #16	; 0x10
    28a0:	e3a01000 	mov	r1, #0	; 0x0
    28a4:	eb003bb4 	bl	1177c <simple_strtoul>
    28a8:	e3a01000 	mov	r1, #0	; 0x0
    28ac:	eb0012de 	bl	742c <cdbg_jump>
    28b0:	e3a00000 	mov	r0, #0	; 0x0
    28b4:	e28dd004 	add	sp, sp, #4	; 0x4
    28b8:	e8bd8000 	pop	{pc}

000028bc <do_ml>:
    28bc:	e52de004 	push	{lr}		; (str lr, [sp, #-4]!)
    28c0:	e24dd004 	sub	sp, sp, #4	; 0x4
    28c4:	ebfffc18 	bl	192c <__sOINFo>
    28c8:	e3a00000 	mov	r0, #0	; 0x0
    28cc:	e28dd004 	add	sp, sp, #4	; 0x4
    28d0:	e8bd8000 	pop	{pc}

000028d4 <do_bp>:
    28d4:	e92d4030 	push	{r4, r5, lr}
    28d8:	e3520001 	cmp	r2, #1	; 0x1
    28dc:	e24dd004 	sub	sp, sp, #4	; 0x4
    28e0:	da000005 	ble	28fc <do_bp+0x28>
    28e4:	e5930004 	ldr	r0, [r3, #4]
    28e8:	e3a01000 	mov	r1, #0	; 0x0
    28ec:	e3a02010 	mov	r2, #16	; 0x10
    28f0:	eb003ba1 	bl	1177c <simple_strtoul>
    28f4:	e6ff0070 	uxth	r0, r0
    28f8:	ebfff737 	bl	5dc <set_xom>
    28fc:	e59f5034 	ldr	r5, [pc, #52]	; 2938 <do_bp+0x64>
    2900:	e3a00001 	mov	r0, #1	; 0x1
    2904:	e5954000 	ldr	r4, [r5]
    2908:	ebfff72f 	bl	5cc <get_xom>
    290c:	e1a01000 	mov	r1, r0
    2910:	e59f0024 	ldr	r0, [pc, #36]	; 293c <do_bp+0x68>
    2914:	e12fff34 	blx	r4
    2918:	e5954000 	ldr	r4, [r5]
    291c:	ebfff734 	bl	5f4 <boot_info>
    2920:	e1a01000 	mov	r1, r0
    2924:	e59f0014 	ldr	r0, [pc, #20]	; 2940 <do_bp+0x6c>
    2928:	e12fff34 	blx	r4
    292c:	e3a00000 	mov	r0, #0	; 0x0
    2930:	e28dd004 	add	sp, sp, #4	; 0x4
    2934:	e8bd8030 	pop	{r4, r5, pc}
    2938:	3c00d6cc 	.word	0x3c00d6cc
    293c:	00016832 	.word	0x00016832
    2940:	00016848 	.word	0x00016848

00002944 <do_reset>:
    2944:	e52de004 	push	{lr}		; (str lr, [sp, #-4]!)
    2948:	e24dd004 	sub	sp, sp, #4	; 0x4
    294c:	ebfff7ca 	bl	87c <system_reset>
    2950:	e3a00000 	mov	r0, #0	; 0x0
    2954:	e28dd004 	add	sp, sp, #4	; 0x4
    2958:	e8bd8000 	pop	{pc}

0000295c <output_debug>:
    295c:	e24dd010 	sub	sp, sp, #16	; 0x10
    2960:	e52de004 	push	{lr}		; (str lr, [sp, #-4]!)
    2964:	e24dd004 	sub	sp, sp, #4	; 0x4
    2968:	e28dc008 	add	ip, sp, #8	; 0x8
    296c:	e3700002 	cmn	r0, #2	; 0x2
    2970:	e88c000f 	stm	ip, {r0, r1, r2, r3}
    2974:	e1a01000 	mov	r1, r0
    2978:	0a000012 	beq	29c8 <output_debug+0x6c>
    297c:	e3700001 	cmn	r0, #1	; 0x1
    2980:	0a000008 	beq	29a8 <output_debug+0x4c>
    2984:	e3700003 	cmn	r0, #3	; 0x3
    2988:	1a000010 	bne	29d0 <output_debug+0x74>
    298c:	e59f30a4 	ldr	r3, [pc, #164]	; 2a38 <output_debug+0xdc>
    2990:	e59f00a4 	ldr	r0, [pc, #164]	; 2a3c <output_debug+0xe0>
    2994:	e5931000 	ldr	r1, [r3]
    2998:	e59f30a0 	ldr	r3, [pc, #160]	; 2a40 <output_debug+0xe4>
    299c:	e1a0e00f 	mov	lr, pc
    29a0:	e593f000 	ldr	pc, [r3]
    29a4:	ea00001e 	b	2a24 <output_debug+0xc8>
    29a8:	e59f3088 	ldr	r3, [pc, #136]	; 2a38 <output_debug+0xdc>
    29ac:	e59f0090 	ldr	r0, [pc, #144]	; 2a44 <output_debug+0xe8>
    29b0:	e5932000 	ldr	r2, [r3]
    29b4:	e28d1010 	add	r1, sp, #16	; 0x10
    29b8:	e59f3080 	ldr	r3, [pc, #128]	; 2a40 <output_debug+0xe4>
    29bc:	e1a0e00f 	mov	lr, pc
    29c0:	e593f000 	ldr	pc, [r3]
    29c4:	ea000016 	b	2a24 <output_debug+0xc8>
    29c8:	e59f0078 	ldr	r0, [pc, #120]	; 2a48 <output_debug+0xec>
    29cc:	ea000003 	b	29e0 <output_debug+0x84>
    29d0:	e59d300c 	ldr	r3, [sp, #12]
    29d4:	e3530001 	cmp	r3, #1	; 0x1
    29d8:	1a000004 	bne	29f0 <output_debug+0x94>
    29dc:	e59f0068 	ldr	r0, [pc, #104]	; 2a4c <output_debug+0xf0>
    29e0:	e59f3058 	ldr	r3, [pc, #88]	; 2a40 <output_debug+0xe4>
    29e4:	e1a0e00f 	mov	lr, pc
    29e8:	e593f000 	ldr	pc, [r3]
    29ec:	ea00000c 	b	2a24 <output_debug+0xc8>
    29f0:	e3530002 	cmp	r3, #2	; 0x2
    29f4:	e59fc044 	ldr	ip, [pc, #68]	; 2a40 <output_debug+0xe4>
    29f8:	1a000003 	bne	2a0c <output_debug+0xb0>
    29fc:	e59f004c 	ldr	r0, [pc, #76]	; 2a50 <output_debug+0xf4>
    2a00:	e1a0e00f 	mov	lr, pc
    2a04:	e59cf000 	ldr	pc, [ip]
    2a08:	ea000005 	b	2a24 <output_debug+0xc8>
    2a0c:	e59f3024 	ldr	r3, [pc, #36]	; 2a38 <output_debug+0xdc>
    2a10:	e59f003c 	ldr	r0, [pc, #60]	; 2a54 <output_debug+0xf8>
    2a14:	e5933000 	ldr	r3, [r3]
    2a18:	e28d2010 	add	r2, sp, #16	; 0x10
    2a1c:	e1a0e00f 	mov	lr, pc
    2a20:	e59cf000 	ldr	pc, [ip]
    2a24:	e3a00000 	mov	r0, #0	; 0x0
    2a28:	e28dd004 	add	sp, sp, #4	; 0x4
    2a2c:	e49de004 	pop	{lr}		; (ldr lr, [sp], #4)
    2a30:	e28dd010 	add	sp, sp, #16	; 0x10
    2a34:	e12fff1e 	bx	lr
    2a38:	3c00d12c 	.word	0x3c00d12c
    2a3c:	000169d3 	.word	0x000169d3
    2a40:	3c00d6cc 	.word	0x3c00d6cc
    2a44:	000169fb 	.word	0x000169fb
    2a48:	00016a0a 	.word	0x00016a0a
    2a4c:	00016a24 	.word	0x00016a24
    2a50:	00016a2f 	.word	0x00016a2f
    2a54:	00016a3d 	.word	0x00016a3d

00002a58 <do_vs>:
    2a58:	e92d4ff0 	push	{r4, r5, r6, r7, r8, r9, sl, fp, lr}
    2a5c:	e3520006 	cmp	r2, #6	; 0x6
    2a60:	e24dd024 	sub	sp, sp, #36	; 0x24
    2a64:	e1a06000 	mov	r6, r0
    2a68:	e1a04003 	mov	r4, r3
    2a6c:	1a000005 	bne	2a88 <do_vs+0x30>
    2a70:	e5930014 	ldr	r0, [r3, #20]
    2a74:	e3a01000 	mov	r1, #0	; 0x0
    2a78:	e282200a 	add	r2, r2, #10	; 0xa
    2a7c:	eb003b3e 	bl	1177c <simple_strtoul>
    2a80:	e1a05000 	mov	r5, r0
    2a84:	ea00008f 	b	2cc8 <do_vs+0x270>
    2a88:	e2423001 	sub	r3, r2, #1	; 0x1
    2a8c:	e3530005 	cmp	r3, #5	; 0x5
    2a90:	979ff103 	ldrls	pc, [pc, r3, lsl #2]
    2a94:	ea0000c4 	b	2dac <do_vs+0x354>
    2a98:	00002dac 	.word	0x00002dac
    2a9c:	00002ab0 	.word	0x00002ab0
    2aa0:	00002ba8 	.word	0x00002ba8
    2aa4:	00002c18 	.word	0x00002c18
    2aa8:	00002cc4 	.word	0x00002cc4
    2aac:	00002cc4 	.word	0x00002cc4
    2ab0:	e5940004 	ldr	r0, [r4, #4]
    2ab4:	e59f1310 	ldr	r1, [pc, #784]	; 2dcc <do_vs+0x374>
    2ab8:	ebfffa5e 	bl	1438 <strcmp>
    2abc:	e2505000 	subs	r5, r0, #0	; 0x0
    2ac0:	1a000025 	bne	2b5c <do_vs+0x104>
    2ac4:	e59f4304 	ldr	r4, [pc, #772]	; 2dd0 <do_vs+0x378>
    2ac8:	e59f0304 	ldr	r0, [pc, #772]	; 2dd4 <do_vs+0x37c>
    2acc:	e1a0e00f 	mov	lr, pc
    2ad0:	e594f000 	ldr	pc, [r4]
    2ad4:	e3a0802c 	mov	r8, #44	; 0x2c
    2ad8:	e59f72f8 	ldr	r7, [pc, #760]	; 2dd8 <do_vs+0x380>
    2adc:	ea000003 	b	2af0 <do_vs+0x98>
    2ae0:	e0227598 	mla	r2, r8, r5, r7
    2ae4:	e1a0e00f 	mov	lr, pc
    2ae8:	e594f000 	ldr	pc, [r4]
    2aec:	e2855001 	add	r5, r5, #1	; 0x1
    2af0:	eb000da4 	bl	6188 <vs_device_count>
    2af4:	e1550000 	cmp	r5, r0
    2af8:	e1a01005 	mov	r1, r5
    2afc:	e59f02d8 	ldr	r0, [pc, #728]	; 2ddc <do_vs+0x384>
    2b00:	e59f62c8 	ldr	r6, [pc, #712]	; 2dd0 <do_vs+0x378>
    2b04:	bafffff5 	blt	2ae0 <do_vs+0x88>
    2b08:	e59f02d0 	ldr	r0, [pc, #720]	; 2de0 <do_vs+0x388>
    2b0c:	e1a0e00f 	mov	lr, pc
    2b10:	e596f000 	ldr	pc, [r6]
    2b14:	eb000ca1 	bl	5da0 <vs_is_assigned>
    2b18:	e2504000 	subs	r4, r0, #0	; 0x0
    2b1c:	0a000009 	beq	2b48 <do_vs+0xf0>
    2b20:	e59f32bc 	ldr	r3, [pc, #700]	; 2de4 <do_vs+0x38c>
    2b24:	e5965000 	ldr	r5, [r6]
    2b28:	e5934000 	ldr	r4, [r3]
    2b2c:	e1a00004 	mov	r0, r4
    2b30:	eb000d15 	bl	5f8c <vs_align>
    2b34:	e1a01004 	mov	r1, r4
    2b38:	e1a02000 	mov	r2, r0
    2b3c:	e59f02a4 	ldr	r0, [pc, #676]	; 2de8 <do_vs+0x390>
    2b40:	e12fff35 	blx	r5
    2b44:	ea00009d 	b	2dc0 <do_vs+0x368>
    2b48:	e59f029c 	ldr	r0, [pc, #668]	; 2dec <do_vs+0x394>
    2b4c:	e1a0e00f 	mov	lr, pc
    2b50:	e596f000 	ldr	pc, [r6]
    2b54:	e1a00004 	mov	r0, r4
    2b58:	ea000099 	b	2dc4 <do_vs+0x36c>
    2b5c:	e5940004 	ldr	r0, [r4, #4]
    2b60:	e59f1288 	ldr	r1, [pc, #648]	; 2df0 <do_vs+0x398>
    2b64:	ebfffa33 	bl	1438 <strcmp>
    2b68:	e2505000 	subs	r5, r0, #0	; 0x0
    2b6c:	1a000087 	bne	2d90 <do_vs+0x338>
    2b70:	eb000e4a 	bl	64a0 <vs_reset>
    2b74:	e28d4020 	add	r4, sp, #32	; 0x20
    2b78:	e5240018 	str	r0, [r4, #-24]!
    2b7c:	e59f126c 	ldr	r1, [pc, #620]	; 2df0 <do_vs+0x398>
    2b80:	e2840008 	add	r0, r4, #8	; 0x8
    2b84:	ebfffa01 	bl	1390 <strcpy>
    2b88:	e3a03001 	mov	r3, #1	; 0x1
    2b8c:	e58d300c 	str	r3, [sp, #12]
    2b90:	e28d3018 	add	r3, sp, #24	; 0x18
    2b94:	e8930003 	ldm	r3, {r0, r1}
    2b98:	e88d0003 	stm	sp, {r0, r1}
    2b9c:	e894000f 	ldm	r4, {r0, r1, r2, r3}
    2ba0:	ebffff6d 	bl	295c <output_debug>
    2ba4:	ea000019 	b	2c10 <do_vs+0x1b8>
    2ba8:	e5940004 	ldr	r0, [r4, #4]
    2bac:	e59f1240 	ldr	r1, [pc, #576]	; 2df4 <do_vs+0x39c>
    2bb0:	ebfffa20 	bl	1438 <strcmp>
    2bb4:	e2505000 	subs	r5, r0, #0	; 0x0
    2bb8:	1a000074 	bne	2d90 <do_vs+0x338>
    2bbc:	e5940008 	ldr	r0, [r4, #8]
    2bc0:	e3a01001 	mov	r1, #1	; 0x1
    2bc4:	eb000e62 	bl	6554 <vs_assign_by_name>
    2bc8:	e2507000 	subs	r7, r0, #0	; 0x0
    2bcc:	e59f61fc 	ldr	r6, [pc, #508]	; 2dd0 <do_vs+0x378>
    2bd0:	1a00000b 	bne	2c04 <do_vs+0x1ac>
    2bd4:	e5943008 	ldr	r3, [r4, #8]
    2bd8:	e59f2218 	ldr	r2, [pc, #536]	; 2df8 <do_vs+0x3a0>
    2bdc:	e1a00003 	mov	r0, r3
    2be0:	e5823000 	str	r3, [r2]
    2be4:	eb000d69 	bl	6190 <vs_device_id>
    2be8:	e59f31f4 	ldr	r3, [pc, #500]	; 2de4 <do_vs+0x38c>
    2bec:	e5830000 	str	r0, [r3]
    2bf0:	e59f0204 	ldr	r0, [pc, #516]	; 2dfc <do_vs+0x3a4>
    2bf4:	e1a0e00f 	mov	lr, pc
    2bf8:	e596f000 	ldr	pc, [r6]
    2bfc:	e1a00007 	mov	r0, r7
    2c00:	ea00006f 	b	2dc4 <do_vs+0x36c>
    2c04:	e59f01f4 	ldr	r0, [pc, #500]	; 2e00 <do_vs+0x3a8>
    2c08:	e1a0e00f 	mov	lr, pc
    2c0c:	e596f000 	ldr	pc, [r6]
    2c10:	e1a00005 	mov	r0, r5
    2c14:	ea00006a 	b	2dc4 <do_vs+0x36c>
    2c18:	e3a02010 	mov	r2, #16	; 0x10
    2c1c:	e5940008 	ldr	r0, [r4, #8]
    2c20:	e3a01000 	mov	r1, #0	; 0x0
    2c24:	eb003b2c 	bl	118dc <simple_strtoull>
    2c28:	e3a02010 	mov	r2, #16	; 0x10
    2c2c:	e1a07000 	mov	r7, r0
    2c30:	e1a08001 	mov	r8, r1
    2c34:	e594000c 	ldr	r0, [r4, #12]
    2c38:	e3a01000 	mov	r1, #0	; 0x0
    2c3c:	eb003b26 	bl	118dc <simple_strtoull>
    2c40:	e59f11bc 	ldr	r1, [pc, #444]	; 2e04 <do_vs+0x3ac>
    2c44:	e1a05000 	mov	r5, r0
    2c48:	e28d0010 	add	r0, sp, #16	; 0x10
    2c4c:	ebfff9cf 	bl	1390 <strcpy>
    2c50:	e3a03002 	mov	r3, #2	; 0x2
    2c54:	e5940004 	ldr	r0, [r4, #4]
    2c58:	e59f11a4 	ldr	r1, [pc, #420]	; 2e04 <do_vs+0x3ac>
    2c5c:	e58d300c 	str	r3, [sp, #12]
    2c60:	ebfff9f4 	bl	1438 <strcmp>
    2c64:	e3500000 	cmp	r0, #0	; 0x0
    2c68:	1a000004 	bne	2c80 <do_vs+0x228>
    2c6c:	e1a00007 	mov	r0, r7
    2c70:	e1a01008 	mov	r1, r8
    2c74:	e1a02005 	mov	r2, r5
    2c78:	eb000c87 	bl	5e9c <vs_erase>
    2c7c:	ea000008 	b	2ca4 <do_vs+0x24c>
    2c80:	e5940004 	ldr	r0, [r4, #4]
    2c84:	e59f117c 	ldr	r1, [pc, #380]	; 2e08 <do_vs+0x3b0>
    2c88:	ebfff9ea 	bl	1438 <strcmp>
    2c8c:	e3500000 	cmp	r0, #0	; 0x0
    2c90:	1a00003e 	bne	2d90 <do_vs+0x338>
    2c94:	e1a00007 	mov	r0, r7
    2c98:	e1a01008 	mov	r1, r8
    2c9c:	e1a02005 	mov	r2, r5
    2ca0:	eb000c9b 	bl	5f14 <vs_scrub>
    2ca4:	e58d0008 	str	r0, [sp, #8]
    2ca8:	e28d2018 	add	r2, sp, #24	; 0x18
    2cac:	e8920003 	ldm	r2, {r0, r1}
    2cb0:	e88d0003 	stm	sp, {r0, r1}
    2cb4:	e28d3008 	add	r3, sp, #8	; 0x8
    2cb8:	e893000f 	ldm	r3, {r0, r1, r2, r3}
    2cbc:	ebffff26 	bl	295c <output_debug>
    2cc0:	ea00003e 	b	2dc0 <do_vs+0x368>
    2cc4:	e3a05000 	mov	r5, #0	; 0x0
    2cc8:	e3a01000 	mov	r1, #0	; 0x0
    2ccc:	e3a02010 	mov	r2, #16	; 0x10
    2cd0:	e5940008 	ldr	r0, [r4, #8]
    2cd4:	eb003aa8 	bl	1177c <simple_strtoul>
    2cd8:	e3a02010 	mov	r2, #16	; 0x10
    2cdc:	e1a09000 	mov	r9, r0
    2ce0:	e3a01000 	mov	r1, #0	; 0x0
    2ce4:	e594000c 	ldr	r0, [r4, #12]
    2ce8:	eb003afb 	bl	118dc <simple_strtoull>
    2cec:	e3a02010 	mov	r2, #16	; 0x10
    2cf0:	e1a08000 	mov	r8, r0
    2cf4:	e1a0a001 	mov	sl, r1
    2cf8:	e5940010 	ldr	r0, [r4, #16]
    2cfc:	e3a01000 	mov	r1, #0	; 0x0
    2d00:	e08db002 	add	fp, sp, r2
    2d04:	eb003af4 	bl	118dc <simple_strtoull>
    2d08:	e3a03000 	mov	r3, #0	; 0x0
    2d0c:	e59f10f8 	ldr	r1, [pc, #248]	; 2e0c <do_vs+0x3b4>
    2d10:	e1a07000 	mov	r7, r0
    2d14:	e1a0000b 	mov	r0, fp
    2d18:	e58d300c 	str	r3, [sp, #12]
    2d1c:	ebfff99b 	bl	1390 <strcpy>
    2d20:	e5940004 	ldr	r0, [r4, #4]
    2d24:	e59f10e4 	ldr	r1, [pc, #228]	; 2e10 <do_vs+0x3b8>
    2d28:	ebfff9c2 	bl	1438 <strcmp>
    2d2c:	e3500000 	cmp	r0, #0	; 0x0
    2d30:	1a000006 	bne	2d50 <do_vs+0x2f8>
    2d34:	e1a00009 	mov	r0, r9
    2d38:	e1a02008 	mov	r2, r8
    2d3c:	e1a0300a 	mov	r3, sl
    2d40:	e58d7000 	str	r7, [sp]
    2d44:	e58d5004 	str	r5, [sp, #4]
    2d48:	eb000c3d 	bl	5e44 <vs_write>
    2d4c:	eaffffd4 	b	2ca4 <do_vs+0x24c>
    2d50:	e5940004 	ldr	r0, [r4, #4]
    2d54:	e59f10b8 	ldr	r1, [pc, #184]	; 2e14 <do_vs+0x3bc>
    2d58:	ebfff9b6 	bl	1438 <strcmp>
    2d5c:	e3500000 	cmp	r0, #0	; 0x0
    2d60:	1a00000a 	bne	2d90 <do_vs+0x338>
    2d64:	e1a00009 	mov	r0, r9
    2d68:	e1a02008 	mov	r2, r8
    2d6c:	e1a0300a 	mov	r3, sl
    2d70:	e58d7000 	str	r7, [sp]
    2d74:	e58d5004 	str	r5, [sp, #4]
    2d78:	eb000d31 	bl	6244 <vs_read>
    2d7c:	e59f1094 	ldr	r1, [pc, #148]	; 2e18 <do_vs+0x3c0>
    2d80:	e58d0008 	str	r0, [sp, #8]
    2d84:	e1a0000b 	mov	r0, fp
    2d88:	ebfff980 	bl	1390 <strcpy>
    2d8c:	eaffffc5 	b	2ca8 <do_vs+0x250>
    2d90:	e59f0084 	ldr	r0, [pc, #132]	; 2e1c <do_vs+0x3c4>
    2d94:	e5961014 	ldr	r1, [r6, #20]
    2d98:	e59f3030 	ldr	r3, [pc, #48]	; 2dd0 <do_vs+0x378>
    2d9c:	e1a0e00f 	mov	lr, pc
    2da0:	e593f000 	ldr	pc, [r3]
    2da4:	e3e00000 	mvn	r0, #0	; 0x0
    2da8:	ea000005 	b	2dc4 <do_vs+0x36c>
    2dac:	e5901014 	ldr	r1, [r0, #20]
    2db0:	e59f3018 	ldr	r3, [pc, #24]	; 2dd0 <do_vs+0x378>
    2db4:	e59f0060 	ldr	r0, [pc, #96]	; 2e1c <do_vs+0x3c4>
    2db8:	e1a0e00f 	mov	lr, pc
    2dbc:	e593f000 	ldr	pc, [r3]
    2dc0:	e3a00000 	mov	r0, #0	; 0x0
    2dc4:	e28dd024 	add	sp, sp, #36	; 0x24
    2dc8:	e8bd8ff0 	pop	{r4, r5, r6, r7, r8, r9, sl, fp, pc}
    2dcc:	00016877 	.word	0x00016877
    2dd0:	3c00d6cc 	.word	0x3c00d6cc
    2dd4:	00016a54 	.word	0x00016a54
    2dd8:	0001561c 	.word	0x0001561c
    2ddc:	00016a62 	.word	0x00016a62
    2de0:	00016a6a 	.word	0x00016a6a
    2de4:	3c00d12c 	.word	0x3c00d12c
    2de8:	00016a7c 	.word	0x00016a7c
    2dec:	00016a86 	.word	0x00016a86
    2df0:	00016865 	.word	0x00016865
    2df4:	00018b6f 	.word	0x00018b6f
    2df8:	3c00d130 	.word	0x3c00d130
    2dfc:	00016a99 	.word	0x00016a99
    2e00:	00016aa5 	.word	0x00016aa5
    2e04:	00016ad2 	.word	0x00016ad2
    2e08:	00016ad8 	.word	0x00016ad8
    2e0c:	00016ade 	.word	0x00016ade
    2e10:	00016ae7 	.word	0x00016ae7
    2e14:	00016aed 	.word	0x00016aed
    2e18:	00016af2 	.word	0x00016af2
    2e1c:	00016436 	.word	0x00016436

00002e20 <cmd_get_data_size>:
    2e20:	e92d4030 	push	{r4, r5, lr}
    2e24:	e24dd004 	sub	sp, sp, #4	; 0x4
    2e28:	e1a04001 	mov	r4, r1
    2e2c:	e1a05000 	mov	r5, r0
    2e30:	ebfff9ad 	bl	14ec <strlen>
    2e34:	e3500002 	cmp	r0, #2	; 0x2
    2e38:	da000015 	ble	2e94 <cmd_get_data_size+0x74>
    2e3c:	e0850000 	add	r0, r5, r0
    2e40:	e5503002 	ldrb	r3, [r0, #-2]
    2e44:	e353002e 	cmp	r3, #46	; 0x2e
    2e48:	1a000011 	bne	2e94 <cmd_get_data_size+0x74>
    2e4c:	e5500001 	ldrb	r0, [r0, #-1]
    2e50:	e350006c 	cmp	r0, #108	; 0x6c
    2e54:	03a04004 	moveq	r4, #4	; 0x4
    2e58:	0a00000d 	beq	2e94 <cmd_get_data_size+0x74>
    2e5c:	8a000002 	bhi	2e6c <cmd_get_data_size+0x4c>
    2e60:	e3500062 	cmp	r0, #98	; 0x62
    2e64:	1a000009 	bne	2e90 <cmd_get_data_size+0x70>
    2e68:	ea000006 	b	2e88 <cmd_get_data_size+0x68>
    2e6c:	e3500073 	cmp	r0, #115	; 0x73
    2e70:	03e04001 	mvneq	r4, #1	; 0x1
    2e74:	0a000006 	beq	2e94 <cmd_get_data_size+0x74>
    2e78:	e3500077 	cmp	r0, #119	; 0x77
    2e7c:	03a04002 	moveq	r4, #2	; 0x2
    2e80:	1a000002 	bne	2e90 <cmd_get_data_size+0x70>
    2e84:	ea000002 	b	2e94 <cmd_get_data_size+0x74>
    2e88:	e3a04001 	mov	r4, #1	; 0x1
    2e8c:	ea000000 	b	2e94 <cmd_get_data_size+0x74>
    2e90:	e3e04000 	mvn	r4, #0	; 0x0
    2e94:	e1a00004 	mov	r0, r4
    2e98:	e28dd004 	add	sp, sp, #4	; 0x4
    2e9c:	e8bd8030 	pop	{r4, r5, pc}

00002ea0 <cmd_usage>:
    2ea0:	e92d4030 	push	{r4, r5, lr}
    2ea4:	e1a04000 	mov	r4, r0
    2ea8:	e24dd004 	sub	sp, sp, #4	; 0x4
    2eac:	e59f5054 	ldr	r5, [pc, #84]	; 2f08 <cmd_usage+0x68>
    2eb0:	e59f0054 	ldr	r0, [pc, #84]	; 2f0c <cmd_usage+0x6c>
    2eb4:	e5941000 	ldr	r1, [r4]
    2eb8:	e5942010 	ldr	r2, [r4, #16]
    2ebc:	e1a0e00f 	mov	lr, pc
    2ec0:	e595f000 	ldr	pc, [r5]
    2ec4:	e59f0044 	ldr	r0, [pc, #68]	; 2f10 <cmd_usage+0x70>
    2ec8:	e5941000 	ldr	r1, [r4]
    2ecc:	e1a0e00f 	mov	lr, pc
    2ed0:	e595f000 	ldr	pc, [r5]
    2ed4:	e5940014 	ldr	r0, [r4, #20]
    2ed8:	e3500000 	cmp	r0, #0	; 0x0
    2edc:	1a000003 	bne	2ef0 <cmd_usage+0x50>
    2ee0:	e59f002c 	ldr	r0, [pc, #44]	; 2f14 <cmd_usage+0x74>
    2ee4:	eb003e12 	bl	12734 <puts>
    2ee8:	e3a00001 	mov	r0, #1	; 0x1
    2eec:	ea000003 	b	2f00 <cmd_usage+0x60>
    2ef0:	eb003e0f 	bl	12734 <puts>
    2ef4:	e3a0000a 	mov	r0, #10	; 0xa
    2ef8:	eb003e35 	bl	127d4 <putc>
    2efc:	e3a00000 	mov	r0, #0	; 0x0
    2f00:	e28dd004 	add	sp, sp, #4	; 0x4
    2f04:	e8bd8030 	pop	{r4, r5, pc}
    2f08:	3c00d6cc 	.word	0x3c00d6cc
    2f0c:	00016be7 	.word	0x00016be7
    2f10:	00016bf1 	.word	0x00016bf1
    2f14:	00016bfc 	.word	0x00016bfc

00002f18 <find_cmd_tbl>:
    2f18:	e92d45f0 	push	{r4, r5, r6, r7, r8, sl, lr}
    2f1c:	e1a05001 	mov	r5, r1
    2f20:	e24dd004 	sub	sp, sp, #4	; 0x4
    2f24:	e3a0102e 	mov	r1, #46	; 0x2e
    2f28:	e1a07000 	mov	r7, r0
    2f2c:	e1a08002 	mov	r8, r2
    2f30:	ebfff962 	bl	14c0 <strchr>
    2f34:	e3500000 	cmp	r0, #0	; 0x0
    2f38:	10676000 	rsbne	r6, r7, r0
    2f3c:	1a000002 	bne	2f4c <find_cmd_tbl+0x34>
    2f40:	e1a00007 	mov	r0, r7
    2f44:	ebfff968 	bl	14ec <strlen>
    2f48:	e1a06000 	mov	r6, r0
    2f4c:	e3a03018 	mov	r3, #24	; 0x18
    2f50:	e02a5893 	mla	sl, r3, r8, r5
    2f54:	e1a04005 	mov	r4, r5
    2f58:	e1a08005 	mov	r8, r5
    2f5c:	e3a05000 	mov	r5, #0	; 0x0
    2f60:	ea00000a 	b	2f90 <find_cmd_tbl+0x78>
    2f64:	e5941000 	ldr	r1, [r4]
    2f68:	ebfff940 	bl	1470 <strncmp>
    2f6c:	e3500000 	cmp	r0, #0	; 0x0
    2f70:	1a000005 	bne	2f8c <find_cmd_tbl+0x74>
    2f74:	e5940000 	ldr	r0, [r4]
    2f78:	ebfff95b 	bl	14ec <strlen>
    2f7c:	e1560000 	cmp	r6, r0
    2f80:	0a000009 	beq	2fac <find_cmd_tbl+0x94>
    2f84:	e2855001 	add	r5, r5, #1	; 0x1
    2f88:	e1a08004 	mov	r8, r4
    2f8c:	e2844018 	add	r4, r4, #24	; 0x18
    2f90:	e154000a 	cmp	r4, sl
    2f94:	e1a02006 	mov	r2, r6
    2f98:	e1a00007 	mov	r0, r7
    2f9c:	1afffff0 	bne	2f64 <find_cmd_tbl+0x4c>
    2fa0:	e3550001 	cmp	r5, #1	; 0x1
    2fa4:	01a04008 	moveq	r4, r8
    2fa8:	13a04000 	movne	r4, #0	; 0x0
    2fac:	e1a00004 	mov	r0, r4
    2fb0:	e28dd004 	add	sp, sp, #4	; 0x4
    2fb4:	e8bd85f0 	pop	{r4, r5, r6, r7, r8, sl, pc}

00002fb8 <find_cmd>:
    2fb8:	e59f1014 	ldr	r1, [pc, #20]	; 2fd4 <find_cmd+0x1c>
    2fbc:	e59f2014 	ldr	r2, [pc, #20]	; 2fd8 <find_cmd+0x20>
    2fc0:	e59f3014 	ldr	r3, [pc, #20]	; 2fdc <find_cmd+0x24>
    2fc4:	e0612002 	rsb	r2, r1, r2
    2fc8:	e1a021c2 	asr	r2, r2, #3
    2fcc:	e0020293 	mul	r2, r3, r2
    2fd0:	eaffffd0 	b	2f18 <find_cmd_tbl>
    2fd4:	00018edc 	.word	0x00018edc
    2fd8:	00019254 	.word	0x00019254
    2fdc:	aaaaaaab 	.word	0xaaaaaaab

00002fe0 <_do_help>:
    2fe0:	e1a0c00d 	mov	ip, sp
    2fe4:	e92ddff0 	push	{r4, r5, r6, r7, r8, r9, sl, fp, ip, lr, pc}
    2fe8:	e24cb004 	sub	fp, ip, #4	; 0x4
    2fec:	e24dd004 	sub	sp, sp, #4	; 0x4
    2ff0:	e59b8004 	ldr	r8, [fp, #4]
    2ff4:	e1a07000 	mov	r7, r0
    2ff8:	e3580001 	cmp	r8, #1	; 0x1
    2ffc:	e1a0a001 	mov	sl, r1
    3000:	159b5008 	ldrne	r5, [fp, #8]
    3004:	13a06001 	movne	r6, #1	; 0x1
    3008:	13a04000 	movne	r4, #0	; 0x0
    300c:	159f9158 	ldrne	r9, [pc, #344]	; 316c <_do_help+0x18c>
    3010:	1a00004e 	bne	3150 <_do_help+0x170>
    3014:	e1a03101 	lsl	r3, r1, #2
    3018:	e283300e 	add	r3, r3, #14	; 0xe
    301c:	e3c33007 	bic	r3, r3, #7	; 0x7
    3020:	e1a0900d 	mov	r9, sp
    3024:	e063d00d 	rsb	sp, r3, sp
    3028:	e1a0800d 	mov	r8, sp
    302c:	e3a03000 	mov	r3, #0	; 0x0
    3030:	ea000002 	b	3040 <_do_help+0x60>
    3034:	e7880103 	str	r0, [r8, r3, lsl #2]
    3038:	e2800018 	add	r0, r0, #24	; 0x18
    303c:	e2833001 	add	r3, r3, #1	; 0x1
    3040:	e153000a 	cmp	r3, sl
    3044:	bafffffa 	blt	3034 <_do_help+0x54>
    3048:	e24a7001 	sub	r7, sl, #1	; 0x1
    304c:	ea000015 	b	30a8 <_do_help+0xc8>
    3050:	e5943000 	ldr	r3, [r4]
    3054:	e5942004 	ldr	r2, [r4, #4]
    3058:	e5930000 	ldr	r0, [r3]
    305c:	e5921000 	ldr	r1, [r2]
    3060:	ebfff8f4 	bl	1438 <strcmp>
    3064:	e3500000 	cmp	r0, #0	; 0x0
    3068:	c5942000 	ldrgt	r2, [r4]
    306c:	c5943004 	ldrgt	r3, [r4, #4]
    3070:	e2855001 	add	r5, r5, #1	; 0x1
    3074:	c5843000 	strgt	r3, [r4]
    3078:	c5842004 	strgt	r2, [r4, #4]
    307c:	c2866001 	addgt	r6, r6, #1	; 0x1
    3080:	e1550007 	cmp	r5, r7
    3084:	e2844004 	add	r4, r4, #4	; 0x4
    3088:	bafffff0 	blt	3050 <_do_help+0x70>
    308c:	e3560000 	cmp	r6, #0	; 0x0
    3090:	1a000003 	bne	30a4 <_do_help+0xc4>
    3094:	e3a05000 	mov	r5, #0	; 0x0
    3098:	e1a04005 	mov	r4, r5
    309c:	e59f70c8 	ldr	r7, [pc, #200]	; 316c <_do_help+0x18c>
    30a0:	ea000016 	b	3100 <_do_help+0x120>
    30a4:	e2477001 	sub	r7, r7, #1	; 0x1
    30a8:	e3570000 	cmp	r7, #0	; 0x0
    30ac:	dafffff8 	ble	3094 <_do_help+0xb4>
    30b0:	e3a05000 	mov	r5, #0	; 0x0
    30b4:	e1a04008 	mov	r4, r8
    30b8:	e1a06005 	mov	r6, r5
    30bc:	eaffffe3 	b	3050 <_do_help+0x70>
    30c0:	e7983004 	ldr	r3, [r8, r4]
    30c4:	e5936010 	ldr	r6, [r3, #16]
    30c8:	eb003dc4 	bl	127e0 <ctrlc>
    30cc:	e3500000 	cmp	r0, #0	; 0x0
    30d0:	e1a03006 	mov	r3, r6
    30d4:	e3a01008 	mov	r1, #8	; 0x8
    30d8:	e59f0090 	ldr	r0, [pc, #144]	; 3170 <_do_help+0x190>
    30dc:	13a04001 	movne	r4, #1	; 0x1
    30e0:	1a00000a 	bne	3110 <_do_help+0x130>
    30e4:	e3560000 	cmp	r6, #0	; 0x0
    30e8:	0a000003 	beq	30fc <_do_help+0x11c>
    30ec:	e7982004 	ldr	r2, [r8, r4]
    30f0:	e5922000 	ldr	r2, [r2]
    30f4:	e1a0e00f 	mov	lr, pc
    30f8:	e597f000 	ldr	pc, [r7]
    30fc:	e2844004 	add	r4, r4, #4	; 0x4
    3100:	e155000a 	cmp	r5, sl
    3104:	e2855001 	add	r5, r5, #1	; 0x1
    3108:	baffffec 	blt	30c0 <_do_help+0xe0>
    310c:	e3a04000 	mov	r4, #0	; 0x0
    3110:	e1a0d009 	mov	sp, r9
    3114:	ea000011 	b	3160 <_do_help+0x180>
    3118:	e5950004 	ldr	r0, [r5, #4]
    311c:	ebffff7d 	bl	2f18 <find_cmd_tbl>
    3120:	e3500000 	cmp	r0, #0	; 0x0
    3124:	0a000002 	beq	3134 <_do_help+0x154>
    3128:	ebffff5c 	bl	2ea0 <cmd_usage>
    312c:	e1844000 	orr	r4, r4, r0
    3130:	ea000004 	b	3148 <_do_help+0x168>
    3134:	e5951004 	ldr	r1, [r5, #4]
    3138:	e59f0034 	ldr	r0, [pc, #52]	; 3174 <_do_help+0x194>
    313c:	e1a0e00f 	mov	lr, pc
    3140:	e599f000 	ldr	pc, [r9]
    3144:	e3a04001 	mov	r4, #1	; 0x1
    3148:	e2866001 	add	r6, r6, #1	; 0x1
    314c:	e2855004 	add	r5, r5, #4	; 0x4
    3150:	e1560008 	cmp	r6, r8
    3154:	e1a01007 	mov	r1, r7
    3158:	e1a0200a 	mov	r2, sl
    315c:	baffffed 	blt	3118 <_do_help+0x138>
    3160:	e1a00004 	mov	r0, r4
    3164:	e24bd028 	sub	sp, fp, #40	; 0x28
    3168:	e89daff0 	ldm	sp, {r4, r5, r6, r7, r8, r9, sl, fp, sp, pc}
    316c:	3c00d6cc 	.word	0x3c00d6cc
    3170:	00016c1d 	.word	0x00016c1d
    3174:	00016c27 	.word	0x00016c27

00003178 <do_help>:
    3178:	e92d4030 	push	{r4, r5, lr}
    317c:	e59fc038 	ldr	ip, [pc, #56]	; 31bc <do_help+0x44>
    3180:	e59fe038 	ldr	lr, [pc, #56]	; 31c0 <do_help+0x48>
    3184:	e1a05001 	mov	r5, r1
    3188:	e06ec00c 	rsb	ip, lr, ip
    318c:	e59f1030 	ldr	r1, [pc, #48]	; 31c4 <do_help+0x4c>
    3190:	e24dd00c 	sub	sp, sp, #12	; 0xc
    3194:	e1a04000 	mov	r4, r0
    3198:	e1a0c1cc 	asr	ip, ip, #3
    319c:	e88d000c 	stm	sp, {r2, r3}
    31a0:	e0010c91 	mul	r1, r1, ip
    31a4:	e1a0000e 	mov	r0, lr
    31a8:	e1a02004 	mov	r2, r4
    31ac:	e1a03005 	mov	r3, r5
    31b0:	ebffff8a 	bl	2fe0 <_do_help>
    31b4:	e28dd00c 	add	sp, sp, #12	; 0xc
    31b8:	e8bd8030 	pop	{r4, r5, pc}
    31bc:	00019254 	.word	0x00019254
    31c0:	00018edc 	.word	0x00018edc
    31c4:	aaaaaaab 	.word	0xaaaaaaab

000031c8 <tt_blk_trolling>:
    31c8:	e92d4ff0 	push	{r4, r5, r6, r7, r8, r9, sl, fp, lr}
    31cc:	e3a01001 	mov	r1, #1	; 0x1
    31d0:	e24dd02c 	sub	sp, sp, #44	; 0x2c
    31d4:	e1a04002 	mov	r4, r2
    31d8:	e1a05003 	mov	r5, r3
    31dc:	e58d0010 	str	r0, [sp, #16]
    31e0:	e59da050 	ldr	sl, [sp, #80]
    31e4:	eb000cda 	bl	6554 <vs_assign_by_name>
    31e8:	e3500000 	cmp	r0, #0	; 0x0
    31ec:	0a000005 	beq	3208 <tt_blk_trolling+0x40>
    31f0:	e59d1010 	ldr	r1, [sp, #16]
    31f4:	e59f03d4 	ldr	r0, [pc, #980]	; 35d0 <tt_blk_trolling+0x408>
    31f8:	e59f33d4 	ldr	r3, [pc, #980]	; 35d4 <tt_blk_trolling+0x40c>
    31fc:	e1a0e00f 	mov	lr, pc
    3200:	e593f000 	ldr	pc, [r3]
    3204:	ea000026 	b	32a4 <tt_blk_trolling+0xdc>
    3208:	e1940005 	orrs	r0, r4, r5
    320c:	03a04502 	moveq	r4, #8388608	; 0x800000
    3210:	03a06502 	moveq	r6, #8388608	; 0x800000
    3214:	03a07000 	moveq	r7, #0	; 0x0
    3218:	0a00000b 	beq	324c <tt_blk_trolling+0x84>
    321c:	e3550000 	cmp	r5, #0	; 0x0
    3220:	1a000006 	bne	3240 <tt_blk_trolling+0x78>
    3224:	e3540502 	cmp	r4, #8388608	; 0x800000
    3228:	2a000004 	bcs	3240 <tt_blk_trolling+0x78>
    322c:	e3a0000e 	mov	r0, #14	; 0xe
    3230:	eb000b55 	bl	5f8c <vs_align>
    3234:	e1a06004 	mov	r6, r4
    3238:	e1a07005 	mov	r7, r5
    323c:	ea000002 	b	324c <tt_blk_trolling+0x84>
    3240:	e1a06004 	mov	r6, r4
    3244:	e1a07005 	mov	r7, r5
    3248:	e3a04502 	mov	r4, #8388608	; 0x800000
    324c:	e3a0000e 	mov	r0, #14	; 0xe
    3250:	eb000b4d 	bl	5f8c <vs_align>
    3254:	e1a01000 	mov	r1, r0
    3258:	e1a00004 	mov	r0, r4
    325c:	eb00454a 	bl	1478c <__aeabi_uidiv>
    3260:	e1a01000 	mov	r1, r0
    3264:	e3a00000 	mov	r0, #0	; 0x0
    3268:	eb00054e 	bl	47a8 <tt_rnd_get_int>
    326c:	e1a04000 	mov	r4, r0
    3270:	e3a0000e 	mov	r0, #14	; 0xe
    3274:	eb000b44 	bl	5f8c <vs_align>
    3278:	e0040094 	mul	r4, r4, r0
    327c:	e28d0024 	add	r0, sp, #36	; 0x24
    3280:	e1a01004 	mov	r1, r4
    3284:	e1a02004 	mov	r2, r4
    3288:	eb00056f 	bl	484c <tt_rnd_get_data>
    328c:	e250b000 	subs	fp, r0, #0	; 0x0
    3290:	1a000005 	bne	32ac <tt_blk_trolling+0xe4>
    3294:	e59f033c 	ldr	r0, [pc, #828]	; 35d8 <tt_blk_trolling+0x410>
    3298:	e59f3334 	ldr	r3, [pc, #820]	; 35d4 <tt_blk_trolling+0x40c>
    329c:	e1a0e00f 	mov	lr, pc
    32a0:	e593f000 	ldr	pc, [r3]
    32a4:	e3e00000 	mvn	r0, #0	; 0x0
    32a8:	ea0000c6 	b	35c8 <tt_blk_trolling+0x400>
    32ac:	e59d3024 	ldr	r3, [sp, #36]
    32b0:	e3a0000e 	mov	r0, #14	; 0xe
    32b4:	e0564003 	subs	r4, r6, r3
    32b8:	e0c75fc3 	sbc	r5, r7, r3, asr #31
    32bc:	eb000b32 	bl	5f8c <vs_align>
    32c0:	e3550000 	cmp	r5, #0	; 0x0
    32c4:	e1cd41f8 	strd	r4, [sp, #24]
    32c8:	1a000005 	bne	32e4 <tt_blk_trolling+0x11c>
    32cc:	e1a01000 	mov	r1, r0
    32d0:	e1a00004 	mov	r0, r4
    32d4:	eb00452c 	bl	1478c <__aeabi_uidiv>
    32d8:	e58d501c 	str	r5, [sp, #28]
    32dc:	e58d0018 	str	r0, [sp, #24]
    32e0:	ea000002 	b	32f0 <tt_blk_trolling+0x128>
    32e4:	e1a01000 	mov	r1, r0
    32e8:	e28d0018 	add	r0, sp, #24	; 0x18
    32ec:	eb0038e5 	bl	11688 <__div64_32>
    32f0:	e59d1018 	ldr	r1, [sp, #24]
    32f4:	e3a00000 	mov	r0, #0	; 0x0
    32f8:	eb00052a 	bl	47a8 <tt_rnd_get_int>
    32fc:	e1a04000 	mov	r4, r0
    3300:	e3a0000e 	mov	r0, #14	; 0xe
    3304:	eb000b20 	bl	5f8c <vs_align>
    3308:	e0c98490 	smull	r8, r9, r0, r4
    330c:	e59d1010 	ldr	r1, [sp, #16]
    3310:	e1a0200b 	mov	r2, fp
    3314:	e59d3024 	ldr	r3, [sp, #36]
    3318:	e59f02bc 	ldr	r0, [pc, #700]	; 35dc <tt_blk_trolling+0x414>
    331c:	e88d0300 	stm	sp, {r8, r9}
    3320:	e59f42ac 	ldr	r4, [pc, #684]	; 35d4 <tt_blk_trolling+0x40c>
    3324:	e1a0e00f 	mov	lr, pc
    3328:	e594f000 	ldr	pc, [r4]
    332c:	e59d0010 	ldr	r0, [sp, #16]
    3330:	eb000b96 	bl	6190 <vs_device_id>
    3334:	eb000b81 	bl	6140 <vs_device_erasable>
    3338:	e3500000 	cmp	r0, #0	; 0x0
    333c:	0a000006 	beq	335c <tt_blk_trolling+0x194>
    3340:	e59f0298 	ldr	r0, [pc, #664]	; 35e0 <tt_blk_trolling+0x418>
    3344:	e1a0e00f 	mov	lr, pc
    3348:	e594f000 	ldr	pc, [r4]
    334c:	e1a00008 	mov	r0, r8
    3350:	e1a01009 	mov	r1, r9
    3354:	e59d2024 	ldr	r2, [sp, #36]
    3358:	eb000acf 	bl	5e9c <vs_erase>
    335c:	e59f0280 	ldr	r0, [pc, #640]	; 35e4 <tt_blk_trolling+0x41c>
    3360:	e59f326c 	ldr	r3, [pc, #620]	; 35d4 <tt_blk_trolling+0x40c>
    3364:	e1a0e00f 	mov	lr, pc
    3368:	e593f000 	ldr	pc, [r3]
    336c:	e35a0000 	cmp	sl, #0	; 0x0
    3370:	13a07000 	movne	r7, #0	; 0x0
    3374:	159d6024 	ldrne	r6, [sp, #36]
    3378:	1a00001c 	bne	33f0 <tt_blk_trolling+0x228>
    337c:	ea00001f 	b	3400 <tt_blk_trolling+0x238>
    3380:	e3560902 	cmp	r6, #32768	; 0x8000
    3384:	b1a01006 	movlt	r1, r6
    3388:	a3a01902 	movge	r1, #32768	; 0x8000
    338c:	e58d100c 	str	r1, [sp, #12]
    3390:	e59d1024 	ldr	r1, [sp, #36]
    3394:	e59d200c 	ldr	r2, [sp, #12]
    3398:	e0661001 	rsb	r1, r6, r1
    339c:	e08b1001 	add	r1, fp, r1
    33a0:	ebfff86b 	bl	1554 <memcpy>
    33a4:	e3a00000 	mov	r0, #0	; 0x0
    33a8:	eb0029af 	bl	da6c <get_timer>
    33ac:	e59d3024 	ldr	r3, [sp, #36]
    33b0:	e3a01000 	mov	r1, #0	; 0x0
    33b4:	e0663003 	rsb	r3, r6, r3
    33b8:	e0984003 	adds	r4, r8, r3
    33bc:	e0a95fc3 	adc	r5, r9, r3, asr #31
    33c0:	e1a03005 	mov	r3, r5
    33c4:	e59d500c 	ldr	r5, [sp, #12]
    33c8:	e58d0008 	str	r0, [sp, #8]
    33cc:	e1a02004 	mov	r2, r4
    33d0:	e1a0000a 	mov	r0, sl
    33d4:	e58d1004 	str	r1, [sp, #4]
    33d8:	e58d5000 	str	r5, [sp]
    33dc:	eb000a98 	bl	5e44 <vs_write>
    33e0:	e59d0008 	ldr	r0, [sp, #8]
    33e4:	eb0029a0 	bl	da6c <get_timer>
    33e8:	e0656006 	rsb	r6, r5, r6
    33ec:	e0877000 	add	r7, r7, r0
    33f0:	e3560000 	cmp	r6, #0	; 0x0
    33f4:	e1a0000a 	mov	r0, sl
    33f8:	1affffe0 	bne	3380 <tt_blk_trolling+0x1b8>
    33fc:	ea00000b 	b	3430 <tt_blk_trolling+0x268>
    3400:	e1a0000a 	mov	r0, sl
    3404:	eb002998 	bl	da6c <get_timer>
    3408:	e59d1024 	ldr	r1, [sp, #36]
    340c:	e1a04000 	mov	r4, r0
    3410:	e1a02008 	mov	r2, r8
    3414:	e1a03009 	mov	r3, r9
    3418:	e1a0000b 	mov	r0, fp
    341c:	e88d0402 	stm	sp, {r1, sl}
    3420:	eb000a87 	bl	5e44 <vs_write>
    3424:	e1a00004 	mov	r0, r4
    3428:	eb00298f 	bl	da6c <get_timer>
    342c:	e1a07000 	mov	r7, r0
    3430:	e59d0024 	ldr	r0, [sp, #36]
    3434:	e3a03ffa 	mov	r3, #1000	; 0x3e8
    3438:	e1a00540 	asr	r0, r0, #10
    343c:	e1a01007 	mov	r1, r7
    3440:	e0000093 	mul	r0, r3, r0
    3444:	eb0044d0 	bl	1478c <__aeabi_uidiv>
    3448:	e59f3184 	ldr	r3, [pc, #388]	; 35d4 <tt_blk_trolling+0x40c>
    344c:	e58d0014 	str	r0, [sp, #20]
    3450:	e59f0190 	ldr	r0, [pc, #400]	; 35e8 <tt_blk_trolling+0x420>
    3454:	e1a0e00f 	mov	lr, pc
    3458:	e593f000 	ldr	pc, [r3]
    345c:	e35a0000 	cmp	sl, #0	; 0x0
    3460:	13a07000 	movne	r7, #0	; 0x0
    3464:	159d6024 	ldrne	r6, [sp, #36]
    3468:	1a00001b 	bne	34dc <tt_blk_trolling+0x314>
    346c:	ea00001e 	b	34ec <tt_blk_trolling+0x324>
    3470:	eb00297d 	bl	da6c <get_timer>
    3474:	e59d3024 	ldr	r3, [sp, #36]
    3478:	e3560902 	cmp	r6, #32768	; 0x8000
    347c:	b1a04006 	movlt	r4, r6
    3480:	a3a04902 	movge	r4, #32768	; 0x8000
    3484:	e0663003 	rsb	r3, r6, r3
    3488:	e1a05000 	mov	r5, r0
    348c:	e0980003 	adds	r0, r8, r3
    3490:	e0a91fc3 	adc	r1, r9, r3, asr #31
    3494:	e1a02000 	mov	r2, r0
    3498:	e1a03001 	mov	r3, r1
    349c:	e1a0000a 	mov	r0, sl
    34a0:	e3a01000 	mov	r1, #0	; 0x0
    34a4:	e58d1004 	str	r1, [sp, #4]
    34a8:	e58d4000 	str	r4, [sp]
    34ac:	eb000b64 	bl	6244 <vs_read>
    34b0:	e1a00005 	mov	r0, r5
    34b4:	eb00296c 	bl	da6c <get_timer>
    34b8:	e1a05000 	mov	r5, r0
    34bc:	e59d0024 	ldr	r0, [sp, #36]
    34c0:	e1a0100a 	mov	r1, sl
    34c4:	e0660000 	rsb	r0, r6, r0
    34c8:	e280048e 	add	r0, r0, #-1912602624	; 0x8e000000
    34cc:	e1a02004 	mov	r2, r4
    34d0:	ebfff81f 	bl	1554 <memcpy>
    34d4:	e0877005 	add	r7, r7, r5
    34d8:	e0646006 	rsb	r6, r4, r6
    34dc:	e3a00000 	mov	r0, #0	; 0x0
    34e0:	e1560000 	cmp	r6, r0
    34e4:	1affffe1 	bne	3470 <tt_blk_trolling+0x2a8>
    34e8:	ea00000b 	b	351c <tt_blk_trolling+0x354>
    34ec:	e1a0000a 	mov	r0, sl
    34f0:	eb00295d 	bl	da6c <get_timer>
    34f4:	e59d1024 	ldr	r1, [sp, #36]
    34f8:	e1a04000 	mov	r4, r0
    34fc:	e1a02008 	mov	r2, r8
    3500:	e1a03009 	mov	r3, r9
    3504:	e3a0048e 	mov	r0, #-1912602624	; 0x8e000000
    3508:	e88d0402 	stm	sp, {r1, sl}
    350c:	eb000b4c 	bl	6244 <vs_read>
    3510:	e1a00004 	mov	r0, r4
    3514:	eb002954 	bl	da6c <get_timer>
    3518:	e1a07000 	mov	r7, r0
    351c:	e59d0024 	ldr	r0, [sp, #36]
    3520:	e3a03ffa 	mov	r3, #1000	; 0x3e8
    3524:	e1a00540 	asr	r0, r0, #10
    3528:	e0000093 	mul	r0, r3, r0
    352c:	e1a01007 	mov	r1, r7
    3530:	eb004495 	bl	1478c <__aeabi_uidiv>
    3534:	e59f4098 	ldr	r4, [pc, #152]	; 35d4 <tt_blk_trolling+0x40c>
    3538:	e1a05000 	mov	r5, r0
    353c:	e59f00a8 	ldr	r0, [pc, #168]	; 35ec <tt_blk_trolling+0x424>
    3540:	e1a0e00f 	mov	lr, pc
    3544:	e594f000 	ldr	pc, [r4]
    3548:	e1a0000b 	mov	r0, fp
    354c:	e3a0148e 	mov	r1, #-1912602624	; 0x8e000000
    3550:	e59d2024 	ldr	r2, [sp, #36]
    3554:	e3a0300c 	mov	r3, #12	; 0xc
    3558:	eb00043e 	bl	4658 <tt_cmp_buffer>
    355c:	e3500000 	cmp	r0, #0	; 0x0
    3560:	0a000007 	beq	3584 <tt_blk_trolling+0x3bc>
    3564:	e58d0000 	str	r0, [sp]
    3568:	e59d1010 	ldr	r1, [sp, #16]
    356c:	e59d2014 	ldr	r2, [sp, #20]
    3570:	e1a03005 	mov	r3, r5
    3574:	e59f0074 	ldr	r0, [pc, #116]	; 35f0 <tt_blk_trolling+0x428>
    3578:	e1a0e00f 	mov	lr, pc
    357c:	e594f000 	ldr	pc, [r4]
    3580:	ea000005 	b	359c <tt_blk_trolling+0x3d4>
    3584:	e59d1010 	ldr	r1, [sp, #16]
    3588:	e59d2014 	ldr	r2, [sp, #20]
    358c:	e1a03005 	mov	r3, r5
    3590:	e59f005c 	ldr	r0, [pc, #92]	; 35f4 <tt_blk_trolling+0x42c>
    3594:	e1a0e00f 	mov	lr, pc
    3598:	e594f000 	ldr	pc, [r4]
    359c:	e59f0054 	ldr	r0, [pc, #84]	; 35f8 <tt_blk_trolling+0x430>
    35a0:	e59d1024 	ldr	r1, [sp, #36]
    35a4:	e890000c 	ldm	r0, {r2, r3}
    35a8:	e0922001 	adds	r2, r2, r1
    35ac:	e0a33fc1 	adc	r3, r3, r1, asr #31
    35b0:	e880000c 	stm	r0, {r2, r3}
    35b4:	e59f0040 	ldr	r0, [pc, #64]	; 35fc <tt_blk_trolling+0x434>
    35b8:	e59f3014 	ldr	r3, [pc, #20]	; 35d4 <tt_blk_trolling+0x40c>
    35bc:	e1a0e00f 	mov	lr, pc
    35c0:	e593f000 	ldr	pc, [r3]
    35c4:	e3a00000 	mov	r0, #0	; 0x0
    35c8:	e28dd02c 	add	sp, sp, #44	; 0x2c
    35cc:	e8bd8ff0 	pop	{r4, r5, r6, r7, r8, r9, sl, fp, pc}
    35d0:	00016dce 	.word	0x00016dce
    35d4:	3c00d6cc 	.word	0x3c00d6cc
    35d8:	00016dec 	.word	0x00016dec
    35dc:	00016e0c 	.word	0x00016e0c
    35e0:	00018a64 	.word	0x00018a64
    35e4:	000165bc 	.word	0x000165bc
    35e8:	0001791e 	.word	0x0001791e
    35ec:	00016e40 	.word	0x00016e40
    35f0:	00016e43 	.word	0x00016e43
    35f4:	00016e7d 	.word	0x00016e7d
    35f8:	3c00d138 	.word	0x3c00d138
    35fc:	00016bef 	.word	0x00016bef

00003600 <do_tt_blk>:
    3600:	e92d4ff0 	push	{r4, r5, r6, r7, r8, r9, sl, fp, lr}
    3604:	e3520001 	cmp	r2, #1	; 0x1
    3608:	e24dd00c 	sub	sp, sp, #12	; 0xc
    360c:	e1a05002 	mov	r5, r2
    3610:	e1a07003 	mov	r7, r3
    3614:	ca000005 	bgt	3630 <do_tt_blk+0x30>
    3618:	e59f01bc 	ldr	r0, [pc, #444]	; 37dc <do_tt_blk+0x1dc>
    361c:	e59f31bc 	ldr	r3, [pc, #444]	; 37e0 <do_tt_blk+0x1e0>
    3620:	e1a0e00f 	mov	lr, pc
    3624:	e593f000 	ldr	pc, [r3]
    3628:	e3e00000 	mvn	r0, #0	; 0x0
    362c:	ea000068 	b	37d4 <do_tt_blk+0x1d4>
    3630:	e3520002 	cmp	r2, #2	; 0x2
    3634:	03a04000 	moveq	r4, #0	; 0x0
    3638:	01a06004 	moveq	r6, r4
    363c:	0a000025 	beq	36d8 <do_tt_blk+0xd8>
    3640:	e3a01000 	mov	r1, #0	; 0x0
    3644:	e3a0200a 	mov	r2, #10	; 0xa
    3648:	e5930008 	ldr	r0, [r3, #8]
    364c:	eb00384a 	bl	1177c <simple_strtoul>
    3650:	e59f118c 	ldr	r1, [pc, #396]	; 37e4 <do_tt_blk+0x1e4>
    3654:	e1a04000 	mov	r4, r0
    3658:	e3a02005 	mov	r2, #5	; 0x5
    365c:	e5970004 	ldr	r0, [r7, #4]
    3660:	ebfff782 	bl	1470 <strncmp>
    3664:	e3500000 	cmp	r0, #0	; 0x0
    3668:	059f0178 	ldreq	r0, [pc, #376]	; 37e8 <do_tt_blk+0x1e8>
    366c:	01a01004 	moveq	r1, r4
    3670:	059f3168 	ldreq	r3, [pc, #360]	; 37e0 <do_tt_blk+0x1e0>
    3674:	0a000008 	beq	369c <do_tt_blk+0x9c>
    3678:	e59f116c 	ldr	r1, [pc, #364]	; 37ec <do_tt_blk+0x1ec>
    367c:	e5970004 	ldr	r0, [r7, #4]
    3680:	e3a02003 	mov	r2, #3	; 0x3
    3684:	ebfff779 	bl	1470 <strncmp>
    3688:	e3500000 	cmp	r0, #0	; 0x0
    368c:	e59f314c 	ldr	r3, [pc, #332]	; 37e0 <do_tt_blk+0x1e0>
    3690:	059f0150 	ldreq	r0, [pc, #336]	; 37e8 <do_tt_blk+0x1e8>
    3694:	159f0154 	ldrne	r0, [pc, #340]	; 37f0 <do_tt_blk+0x1f0>
    3698:	e1a01004 	mov	r1, r4
    369c:	e1a0e00f 	mov	lr, pc
    36a0:	e593f000 	ldr	pc, [r3]
    36a4:	e3550003 	cmp	r5, #3	; 0x3
    36a8:	03a06000 	moveq	r6, #0	; 0x0
    36ac:	0a000009 	beq	36d8 <do_tt_blk+0xd8>
    36b0:	e3a01000 	mov	r1, #0	; 0x0
    36b4:	e597000c 	ldr	r0, [r7, #12]
    36b8:	e3a02010 	mov	r2, #16	; 0x10
    36bc:	eb00382e 	bl	1177c <simple_strtoul>
    36c0:	e1a06000 	mov	r6, r0
    36c4:	e1a01006 	mov	r1, r6
    36c8:	e59f0124 	ldr	r0, [pc, #292]	; 37f4 <do_tt_blk+0x1f4>
    36cc:	e59f310c 	ldr	r3, [pc, #268]	; 37e0 <do_tt_blk+0x1e0>
    36d0:	e1a0e00f 	mov	lr, pc
    36d4:	e593f000 	ldr	pc, [r3]
    36d8:	e3a00000 	mov	r0, #0	; 0x0
    36dc:	eb0028e2 	bl	da6c <get_timer>
    36e0:	e59f1110 	ldr	r1, [pc, #272]	; 37f8 <do_tt_blk+0x1f8>
    36e4:	e3a02000 	mov	r2, #0	; 0x0
    36e8:	e3a03000 	mov	r3, #0	; 0x0
    36ec:	e881000c 	stm	r1, {r2, r3}
    36f0:	e1a09a04 	lsl	r9, r4, #20
    36f4:	e2875004 	add	r5, r7, #4	; 0x4
    36f8:	e1a08b24 	lsr	r8, r4, #22
    36fc:	e1a07504 	lsl	r7, r4, #10
    3700:	e1a0a624 	lsr	sl, r4, #12
    3704:	e1a0b000 	mov	fp, r0
    3708:	e3a04000 	mov	r4, #0	; 0x0
    370c:	e59f30cc 	ldr	r3, [pc, #204]	; 37e0 <do_tt_blk+0x1e0>
    3710:	e1a01004 	mov	r1, r4
    3714:	e59f00e0 	ldr	r0, [pc, #224]	; 37fc <do_tt_blk+0x1fc>
    3718:	e1a0e00f 	mov	lr, pc
    371c:	e593f000 	ldr	pc, [r3]
    3720:	e59f10bc 	ldr	r1, [pc, #188]	; 37e4 <do_tt_blk+0x1e4>
    3724:	e3a02005 	mov	r2, #5	; 0x5
    3728:	e5950000 	ldr	r0, [r5]
    372c:	ebfff74f 	bl	1470 <strncmp>
    3730:	e3500000 	cmp	r0, #0	; 0x0
    3734:	e3a02003 	mov	r2, #3	; 0x3
    3738:	e59f10ac 	ldr	r1, [pc, #172]	; 37ec <do_tt_blk+0x1ec>
    373c:	e1a03008 	mov	r3, r8
    3740:	05950000 	ldreq	r0, [r5]
    3744:	01a02007 	moveq	r2, r7
    3748:	0a000008 	beq	3770 <do_tt_blk+0x170>
    374c:	e5950000 	ldr	r0, [r5]
    3750:	ebfff746 	bl	1470 <strncmp>
    3754:	e3500000 	cmp	r0, #0	; 0x0
    3758:	05950000 	ldreq	r0, [r5]
    375c:	15950000 	ldrne	r0, [r5]
    3760:	e1a02009 	mov	r2, r9
    3764:	e1a0300a 	mov	r3, sl
    3768:	01a02007 	moveq	r2, r7
    376c:	01a03008 	moveq	r3, r8
    3770:	e58d6000 	str	r6, [sp]
    3774:	ebfffe93 	bl	31c8 <tt_blk_trolling>
    3778:	eb003c16 	bl	127d8 <tstc>
    377c:	e3500000 	cmp	r0, #0	; 0x0
    3780:	e2844001 	add	r4, r4, #1	; 0x1
    3784:	0affffe0 	beq	370c <do_tt_blk+0x10c>
    3788:	eb003c13 	bl	127dc <getc>
    378c:	e3500003 	cmp	r0, #3	; 0x3
    3790:	1affffdd 	bne	370c <do_tt_blk+0x10c>
    3794:	e1a0000b 	mov	r0, fp
    3798:	eb0028b3 	bl	da6c <get_timer>
    379c:	e59f3054 	ldr	r3, [pc, #84]	; 37f8 <do_tt_blk+0x1f8>
    37a0:	e30e1a60 	movw	r1, #60000	; 0xea60
    37a4:	e5934000 	ldr	r4, [r3]
    37a8:	e5933004 	ldr	r3, [r3, #4]
    37ac:	e1a04a24 	lsr	r4, r4, #20
    37b0:	e1844603 	orr	r4, r4, r3, lsl #12
    37b4:	eb0043f4 	bl	1478c <__aeabi_uidiv>
    37b8:	e1a01004 	mov	r1, r4
    37bc:	e1a02000 	mov	r2, r0
    37c0:	e59f3018 	ldr	r3, [pc, #24]	; 37e0 <do_tt_blk+0x1e0>
    37c4:	e59f0034 	ldr	r0, [pc, #52]	; 3800 <do_tt_blk+0x200>
    37c8:	e1a0e00f 	mov	lr, pc
    37cc:	e593f000 	ldr	pc, [r3]
    37d0:	e3a00000 	mov	r0, #0	; 0x0
    37d4:	e28dd00c 	add	sp, sp, #12	; 0xc
    37d8:	e8bd8ff0 	pop	{r4, r5, r6, r7, r8, r9, sl, fp, pc}
    37dc:	00016eaa 	.word	0x00016eaa
    37e0:	3c00d6cc 	.word	0x3c00d6cc
    37e4:	00016ef1 	.word	0x00016ef1
    37e8:	00016ef7 	.word	0x00016ef7
    37ec:	000168ac 	.word	0x000168ac
    37f0:	00016f1b 	.word	0x00016f1b
    37f4:	00016f3f 	.word	0x00016f3f
    37f8:	3c00d138 	.word	0x3c00d138
    37fc:	00016f62 	.word	0x00016f62
    3800:	00016f6c 	.word	0x00016f6c

00003804 <__show_strbuf>:
    3804:	e92d40f0 	push	{r4, r5, r6, r7, lr}
    3808:	e59f4058 	ldr	r4, [pc, #88]	; 3868 <__show_strbuf+0x64>
    380c:	e24dd004 	sub	sp, sp, #4	; 0x4
    3810:	e1a06001 	mov	r6, r1
    3814:	e1a01000 	mov	r1, r0
    3818:	e59f004c 	ldr	r0, [pc, #76]	; 386c <__show_strbuf+0x68>
    381c:	e1a05002 	mov	r5, r2
    3820:	e1a07004 	mov	r7, r4
    3824:	e1a0e00f 	mov	lr, pc
    3828:	e594f000 	ldr	pc, [r4]
    382c:	e3a04000 	mov	r4, #0	; 0x0
    3830:	ea000003 	b	3844 <__show_strbuf+0x40>
    3834:	e7d61004 	ldrb	r1, [r6, r4]
    3838:	e1a0e00f 	mov	lr, pc
    383c:	e597f000 	ldr	pc, [r7]
    3840:	e2844001 	add	r4, r4, #1	; 0x1
    3844:	e1540005 	cmp	r4, r5
    3848:	e59f0020 	ldr	r0, [pc, #32]	; 3870 <__show_strbuf+0x6c>
    384c:	bafffff8 	blt	3834 <__show_strbuf+0x30>
    3850:	e59f001c 	ldr	r0, [pc, #28]	; 3874 <__show_strbuf+0x70>
    3854:	e59f300c 	ldr	r3, [pc, #12]	; 3868 <__show_strbuf+0x64>
    3858:	e1a0e00f 	mov	lr, pc
    385c:	e593f000 	ldr	pc, [r3]
    3860:	e28dd004 	add	sp, sp, #4	; 0x4
    3864:	e8bd80f0 	pop	{r4, r5, r6, r7, pc}
    3868:	3c00d6cc 	.word	0x3c00d6cc
    386c:	00016fba 	.word	0x00016fba
    3870:	00018c1d 	.word	0x00018c1d
    3874:	00016bef 	.word	0x00016bef

00003878 <do_crypto_quick>:
    3878:	e92d47f0 	push	{r4, r5, r6, r7, r8, r9, sl, lr}
    387c:	e24dd0f0 	sub	sp, sp, #240	; 0xf0
    3880:	e28da0e0 	add	sl, sp, #224	; 0xe0
    3884:	e3a04010 	mov	r4, #16	; 0x10
    3888:	e28d70c0 	add	r7, sp, #192	; 0xc0
    388c:	e1a02004 	mov	r2, r4
    3890:	e3a09020 	mov	r9, #32	; 0x20
    3894:	e59f11f0 	ldr	r1, [pc, #496]	; 3a8c <do_crypto_quick+0x214>
    3898:	e1a0000a 	mov	r0, sl
    389c:	e3a05040 	mov	r5, #64	; 0x40
    38a0:	e28d6080 	add	r6, sp, #128	; 0x80
    38a4:	ebfff72a 	bl	1554 <memcpy>
    38a8:	e1a02009 	mov	r2, r9
    38ac:	e59f11dc 	ldr	r1, [pc, #476]	; 3a90 <do_crypto_quick+0x218>
    38b0:	e1a00007 	mov	r0, r7
    38b4:	ebfff726 	bl	1554 <memcpy>
    38b8:	e08d8005 	add	r8, sp, r5
    38bc:	e1a02005 	mov	r2, r5
    38c0:	e59f11cc 	ldr	r1, [pc, #460]	; 3a94 <do_crypto_quick+0x21c>
    38c4:	e1a00006 	mov	r0, r6
    38c8:	ebfff721 	bl	1554 <memcpy>
    38cc:	e1a02005 	mov	r2, r5
    38d0:	e59f11c0 	ldr	r1, [pc, #448]	; 3a98 <do_crypto_quick+0x220>
    38d4:	e1a00008 	mov	r0, r8
    38d8:	ebfff71d 	bl	1554 <memcpy>
    38dc:	e1a02004 	mov	r2, r4
    38e0:	e1a0100a 	mov	r1, sl
    38e4:	e59f01b0 	ldr	r0, [pc, #432]	; 3a9c <do_crypto_quick+0x224>
    38e8:	ebffffc5 	bl	3804 <__show_strbuf>
    38ec:	e1a02009 	mov	r2, r9
    38f0:	e1a01007 	mov	r1, r7
    38f4:	e59f01a4 	ldr	r0, [pc, #420]	; 3aa0 <do_crypto_quick+0x228>
    38f8:	ebffffc1 	bl	3804 <__show_strbuf>
    38fc:	e1a01006 	mov	r1, r6
    3900:	e1a02005 	mov	r2, r5
    3904:	e59f0198 	ldr	r0, [pc, #408]	; 3aa4 <do_crypto_quick+0x22c>
    3908:	ebffffbd 	bl	3804 <__show_strbuf>
    390c:	e1a01008 	mov	r1, r8
    3910:	e1a02005 	mov	r2, r5
    3914:	e59f018c 	ldr	r0, [pc, #396]	; 3aa8 <do_crypto_quick+0x230>
    3918:	ebffffb9 	bl	3804 <__show_strbuf>
    391c:	e1a01007 	mov	r1, r7
    3920:	e1a0200a 	mov	r2, sl
    3924:	e3a00001 	mov	r0, #1	; 0x1
    3928:	eb000b4c 	bl	6660 <ss_aes_init>
    392c:	e1a0100d 	mov	r1, sp
    3930:	e1a02005 	mov	r2, r5
    3934:	e1a00006 	mov	r0, r6
    3938:	eb000b37 	bl	661c <ss_aes_data>
    393c:	e1a0100d 	mov	r1, sp
    3940:	e1a02005 	mov	r2, r5
    3944:	e59f0160 	ldr	r0, [pc, #352]	; 3aac <do_crypto_quick+0x234>
    3948:	ebffffad 	bl	3804 <__show_strbuf>
    394c:	e1a01007 	mov	r1, r7
    3950:	e1a0200a 	mov	r2, sl
    3954:	e3a00000 	mov	r0, #0	; 0x0
    3958:	eb000b40 	bl	6660 <ss_aes_init>
    395c:	e59f714c 	ldr	r7, [pc, #332]	; 3ab0 <do_crypto_quick+0x238>
    3960:	e1a0100d 	mov	r1, sp
    3964:	e1a02005 	mov	r2, r5
    3968:	e1a00008 	mov	r0, r8
    396c:	eb000b2a 	bl	661c <ss_aes_data>
    3970:	e1a0100d 	mov	r1, sp
    3974:	e1a02005 	mov	r2, r5
    3978:	e59f0134 	ldr	r0, [pc, #308]	; 3ab4 <do_crypto_quick+0x23c>
    397c:	ebffffa0 	bl	3804 <__show_strbuf>
    3980:	e1a02007 	mov	r2, r7
    3984:	e3a01000 	mov	r1, #0	; 0x0
    3988:	e3a00001 	mov	r0, #1	; 0x1
    398c:	eb000b33 	bl	6660 <ss_aes_init>
    3990:	e1a0100d 	mov	r1, sp
    3994:	e1a02005 	mov	r2, r5
    3998:	e1a00006 	mov	r0, r6
    399c:	eb000b1e 	bl	661c <ss_aes_data>
    39a0:	e1a0100d 	mov	r1, sp
    39a4:	e1a02005 	mov	r2, r5
    39a8:	e59f0108 	ldr	r0, [pc, #264]	; 3ab8 <do_crypto_quick+0x240>
    39ac:	ebffff94 	bl	3804 <__show_strbuf>
    39b0:	e3a00000 	mov	r0, #0	; 0x0
    39b4:	e1a02007 	mov	r2, r7
    39b8:	e1a01000 	mov	r1, r0
    39bc:	eb000b27 	bl	6660 <ss_aes_init>
    39c0:	e1a0100d 	mov	r1, sp
    39c4:	e1a02005 	mov	r2, r5
    39c8:	e1a0000d 	mov	r0, sp
    39cc:	eb000b12 	bl	661c <ss_aes_data>
    39d0:	e1a02005 	mov	r2, r5
    39d4:	e1a0100d 	mov	r1, sp
    39d8:	e59f00dc 	ldr	r0, [pc, #220]	; 3abc <do_crypto_quick+0x244>
    39dc:	ebffff88 	bl	3804 <__show_strbuf>
    39e0:	e1a01005 	mov	r1, r5
    39e4:	e3a00001 	mov	r0, #1	; 0x1
    39e8:	eb000c3a 	bl	6ad8 <hash_init>
    39ec:	e1a01005 	mov	r1, r5
    39f0:	e1a00006 	mov	r0, r6
    39f4:	eb000c12 	bl	6a44 <hash_data>
    39f8:	e1a0000d 	mov	r0, sp
    39fc:	eb000bf4 	bl	69d4 <hash_value>
    3a00:	eb000bec 	bl	69b8 <hash_len>
    3a04:	e1a0100d 	mov	r1, sp
    3a08:	e1a02000 	mov	r2, r0
    3a0c:	e59f00ac 	ldr	r0, [pc, #172]	; 3ac0 <do_crypto_quick+0x248>
    3a10:	ebffff7b 	bl	3804 <__show_strbuf>
    3a14:	e1a01005 	mov	r1, r5
    3a18:	e3a00002 	mov	r0, #2	; 0x2
    3a1c:	eb000c2d 	bl	6ad8 <hash_init>
    3a20:	e1a01005 	mov	r1, r5
    3a24:	e1a00006 	mov	r0, r6
    3a28:	eb000c05 	bl	6a44 <hash_data>
    3a2c:	e1a0000d 	mov	r0, sp
    3a30:	eb000be7 	bl	69d4 <hash_value>
    3a34:	eb000bdf 	bl	69b8 <hash_len>
    3a38:	e1a0100d 	mov	r1, sp
    3a3c:	e1a02000 	mov	r2, r0
    3a40:	e59f007c 	ldr	r0, [pc, #124]	; 3ac4 <do_crypto_quick+0x24c>
    3a44:	ebffff6e 	bl	3804 <__show_strbuf>
    3a48:	e1a01005 	mov	r1, r5
    3a4c:	e3a00003 	mov	r0, #3	; 0x3
    3a50:	eb000c20 	bl	6ad8 <hash_init>
    3a54:	e1a01005 	mov	r1, r5
    3a58:	e1a00006 	mov	r0, r6
    3a5c:	eb000bf8 	bl	6a44 <hash_data>
    3a60:	e1a0000d 	mov	r0, sp
    3a64:	eb000bda 	bl	69d4 <hash_value>
    3a68:	eb000bd2 	bl	69b8 <hash_len>
    3a6c:	e1a0100d 	mov	r1, sp
    3a70:	e1a02000 	mov	r2, r0
    3a74:	e59f004c 	ldr	r0, [pc, #76]	; 3ac8 <do_crypto_quick+0x250>
    3a78:	ebffff61 	bl	3804 <__show_strbuf>
    3a7c:	e1a0400d 	mov	r4, sp
    3a80:	e3a00000 	mov	r0, #0	; 0x0
    3a84:	e28dd0f0 	add	sp, sp, #240	; 0xf0
    3a88:	e8bd87f0 	pop	{r4, r5, r6, r7, r8, r9, sl, pc}
    3a8c:	00015554 	.word	0x00015554
    3a90:	00015534 	.word	0x00015534
    3a94:	000154f4 	.word	0x000154f4
    3a98:	000154b4 	.word	0x000154b4
    3a9c:	00016fbf 	.word	0x00016fbf
    3aa0:	00016fc2 	.word	0x00016fc2
    3aa4:	00016fc6 	.word	0x00016fc6
    3aa8:	00016fd1 	.word	0x00016fd1
    3aac:	00016fe2 	.word	0x00016fe2
    3ab0:	3c00d08c 	.word	0x3c00d08c
    3ab4:	00016ff5 	.word	0x00016ff5
    3ab8:	00016fde 	.word	0x00016fde
    3abc:	00016ff1 	.word	0x00016ff1
    3ac0:	00017004 	.word	0x00017004
    3ac4:	00017008 	.word	0x00017008
    3ac8:	0001700d 	.word	0x0001700d

00003acc <tt_crypto_hash>:
    3acc:	e92d47f0 	push	{r4, r5, r6, r7, r8, r9, sl, lr}
    3ad0:	e3a0548e 	mov	r5, #-1912602624	; 0x8e000000
    3ad4:	e5951000 	ldr	r1, [r5]
    3ad8:	e59f2220 	ldr	r2, [pc, #544]	; 3d00 <tt_crypto_hash+0x234>
    3adc:	e24dd038 	sub	sp, sp, #56	; 0x38
    3ae0:	e59f321c 	ldr	r3, [pc, #540]	; 3d04 <tt_crypto_hash+0x238>
    3ae4:	e1510002 	cmp	r1, r2
    3ae8:	e28dc028 	add	ip, sp, #40	; 0x28
    3aec:	e1a06000 	mov	r6, r0
    3af0:	e893000f 	ldm	r3, {r0, r1, r2, r3}
    3af4:	e88c000f 	stm	ip, {r0, r1, r2, r3}
    3af8:	0a000006 	beq	3b18 <tt_crypto_hash+0x4c>
    3afc:	e59f0204 	ldr	r0, [pc, #516]	; 3d08 <tt_crypto_hash+0x23c>
    3b00:	e59f3204 	ldr	r3, [pc, #516]	; 3d0c <tt_crypto_hash+0x240>
    3b04:	e1a0e00f 	mov	lr, pc
    3b08:	e593f000 	ldr	pc, [r3]
    3b0c:	e59f01fc 	ldr	r0, [pc, #508]	; 3d10 <tt_crypto_hash+0x244>
    3b10:	eb0027b1 	bl	d9dc <udelay>
    3b14:	ea000008 	b	3b3c <tt_crypto_hash+0x70>
    3b18:	e5951004 	ldr	r1, [r5, #4]
    3b1c:	e3a04000 	mov	r4, #0	; 0x0
    3b20:	e3510003 	cmp	r1, #3	; 0x3
    3b24:	e5854000 	str	r4, [r5]
    3b28:	e59fc1dc 	ldr	ip, [pc, #476]	; 3d0c <tt_crypto_hash+0x240>
    3b2c:	9a000004 	bls	3b44 <tt_crypto_hash+0x78>
    3b30:	e59f01dc 	ldr	r0, [pc, #476]	; 3d14 <tt_crypto_hash+0x248>
    3b34:	e1a0e00f 	mov	lr, pc
    3b38:	e59cf000 	ldr	pc, [ip]
    3b3c:	e3e0c000 	mvn	ip, #0	; 0x0
    3b40:	ea00006b 	b	3cf4 <tt_crypto_hash+0x228>
    3b44:	e28d2038 	add	r2, sp, #56	; 0x38
    3b48:	e0823101 	add	r3, r2, r1, lsl #2
    3b4c:	e5131010 	ldr	r1, [r3, #-16]
    3b50:	e5952008 	ldr	r2, [r5, #8]
    3b54:	e59f01bc 	ldr	r0, [pc, #444]	; 3d18 <tt_crypto_hash+0x24c>
    3b58:	e1a0e00f 	mov	lr, pc
    3b5c:	e59cf000 	ldr	pc, [ip]
    3b60:	e9950003 	ldmib	r5, {r0, r1}
    3b64:	eb000bdb 	bl	6ad8 <hash_init>
    3b68:	eb000b92 	bl	69b8 <hash_len>
    3b6c:	e1a03000 	mov	r3, r0
    3b70:	e59f01a4 	ldr	r0, [pc, #420]	; 3d1c <tt_crypto_hash+0x250>
    3b74:	e3a0c020 	mov	ip, #32	; 0x20
    3b78:	e1a01000 	mov	r1, r0
    3b7c:	e3a02001 	mov	r2, #1	; 0x1
    3b80:	e58dc000 	str	ip, [sp]
    3b84:	eb003664 	bl	1151c <print_buffer>
    3b88:	e3560000 	cmp	r6, #0	; 0x0
    3b8c:	0a000022 	beq	3c1c <tt_crypto_hash+0x150>
    3b90:	e1a09005 	mov	r9, r5
    3b94:	e1a0a004 	mov	sl, r4
    3b98:	e5955008 	ldr	r5, [r5, #8]
    3b9c:	e2868901 	add	r8, r6, #16384	; 0x4000
    3ba0:	ea000019 	b	3c0c <tt_crypto_hash+0x140>
    3ba4:	e5991008 	ldr	r1, [r9, #8]
    3ba8:	e3550902 	cmp	r5, #32768	; 0x8000
    3bac:	b1a04005 	movlt	r4, r5
    3bb0:	a3a04902 	movge	r4, #32768	; 0x8000
    3bb4:	e0651001 	rsb	r1, r5, r1
    3bb8:	e281148e 	add	r1, r1, #-1912602624	; 0x8e000000
    3bbc:	e2811030 	add	r1, r1, #48	; 0x30
    3bc0:	e1a02004 	mov	r2, r4
    3bc4:	ebfff662 	bl	1554 <memcpy>
    3bc8:	e3a00000 	mov	r0, #0	; 0x0
    3bcc:	eb0027a6 	bl	da6c <get_timer>
    3bd0:	e3550901 	cmp	r5, #16384	; 0x4000
    3bd4:	b1a01005 	movlt	r1, r5
    3bd8:	a3a01901 	movge	r1, #16384	; 0x4000
    3bdc:	e1a07000 	mov	r7, r0
    3be0:	e1a00006 	mov	r0, r6
    3be4:	eb000b96 	bl	6a44 <hash_data>
    3be8:	e3540902 	cmp	r4, #32768	; 0x8000
    3bec:	e0645005 	rsb	r5, r4, r5
    3bf0:	1a000002 	bne	3c00 <tt_crypto_hash+0x134>
    3bf4:	e3a01901 	mov	r1, #16384	; 0x4000
    3bf8:	e1a00008 	mov	r0, r8
    3bfc:	eb000b90 	bl	6a44 <hash_data>
    3c00:	e1a00007 	mov	r0, r7
    3c04:	eb002798 	bl	da6c <get_timer>
    3c08:	e08aa000 	add	sl, sl, r0
    3c0c:	e3550000 	cmp	r5, #0	; 0x0
    3c10:	e1a00006 	mov	r0, r6
    3c14:	1affffe2 	bne	3ba4 <tt_crypto_hash+0xd8>
    3c18:	ea000008 	b	3c40 <tt_crypto_hash+0x174>
    3c1c:	e1a00006 	mov	r0, r6
    3c20:	eb002791 	bl	da6c <get_timer>
    3c24:	e5951008 	ldr	r1, [r5, #8]
    3c28:	e1a04000 	mov	r4, r0
    3c2c:	e59f00ec 	ldr	r0, [pc, #236]	; 3d20 <tt_crypto_hash+0x254>
    3c30:	eb000b83 	bl	6a44 <hash_data>
    3c34:	e1a00004 	mov	r0, r4
    3c38:	eb00278b 	bl	da6c <get_timer>
    3c3c:	e1a0a000 	mov	sl, r0
    3c40:	e28d4008 	add	r4, sp, #8	; 0x8
    3c44:	e3a0648e 	mov	r6, #-1912602624	; 0x8e000000
    3c48:	e1a00004 	mov	r0, r4
    3c4c:	eb000b60 	bl	69d4 <hash_value>
    3c50:	e5965008 	ldr	r5, [r6, #8]
    3c54:	eb000b57 	bl	69b8 <hash_len>
    3c58:	e3a0c020 	mov	ip, #32	; 0x20
    3c5c:	e1a03000 	mov	r3, r0
    3c60:	e1a01004 	mov	r1, r4
    3c64:	e3a02001 	mov	r2, #1	; 0x1
    3c68:	e1a00004 	mov	r0, r4
    3c6c:	e58dc000 	str	ip, [sp]
    3c70:	eb003629 	bl	1151c <print_buffer>
    3c74:	e5963004 	ldr	r3, [r6, #4]
    3c78:	e28d1038 	add	r1, sp, #56	; 0x38
    3c7c:	e0812103 	add	r2, r1, r3, lsl #2
    3c80:	e59f3084 	ldr	r3, [pc, #132]	; 3d0c <tt_crypto_hash+0x240>
    3c84:	e5127010 	ldr	r7, [r2, #-16]
    3c88:	e5938000 	ldr	r8, [r3]
    3c8c:	eb000b49 	bl	69b8 <hash_len>
    3c90:	e1a01004 	mov	r1, r4
    3c94:	e1a02000 	mov	r2, r0
    3c98:	e59f007c 	ldr	r0, [pc, #124]	; 3d1c <tt_crypto_hash+0x250>
    3c9c:	ebfff64d 	bl	15d8 <memcmp>
    3ca0:	e1a05525 	lsr	r5, r5, #10
    3ca4:	e3500000 	cmp	r0, #0	; 0x0
    3ca8:	e59f3074 	ldr	r3, [pc, #116]	; 3d24 <tt_crypto_hash+0x258>
    3cac:	e3a00ffa 	mov	r0, #1000	; 0x3e8
    3cb0:	e1a0100a 	mov	r1, sl
    3cb4:	e0000590 	mul	r0, r0, r5
    3cb8:	e59f4068 	ldr	r4, [pc, #104]	; 3d28 <tt_crypto_hash+0x25c>
    3cbc:	01a04003 	moveq	r4, r3
    3cc0:	eb0042b1 	bl	1478c <__aeabi_uidiv>
    3cc4:	e1a01007 	mov	r1, r7
    3cc8:	e1a03000 	mov	r3, r0
    3ccc:	e1a02004 	mov	r2, r4
    3cd0:	e59f0054 	ldr	r0, [pc, #84]	; 3d2c <tt_crypto_hash+0x260>
    3cd4:	e12fff38 	blx	r8
    3cd8:	e59f1050 	ldr	r1, [pc, #80]	; 3d30 <tt_crypto_hash+0x264>
    3cdc:	e5960008 	ldr	r0, [r6, #8]
    3ce0:	e891000c 	ldm	r1, {r2, r3}
    3ce4:	e0922000 	adds	r2, r2, r0
    3ce8:	e2a33000 	adc	r3, r3, #0	; 0x0
    3cec:	e881000c 	stm	r1, {r2, r3}
    3cf0:	e3a0c000 	mov	ip, #0	; 0x0
    3cf4:	e1a0000c 	mov	r0, ip
    3cf8:	e28dd038 	add	sp, sp, #56	; 0x38
    3cfc:	e8bd87f0 	pop	{r4, r5, r6, r7, r8, r9, sl, pc}
    3d00:	99997777 	.word	0x99997777
    3d04:	00015564 	.word	0x00015564
    3d08:	00017014 	.word	0x00017014
    3d0c:	3c00d6cc 	.word	0x3c00d6cc
    3d10:	004c4b40 	.word	0x004c4b40
    3d14:	00017033 	.word	0x00017033
    3d18:	0001704e 	.word	0x0001704e
    3d1c:	8e000010 	.word	0x8e000010
    3d20:	8e000030 	.word	0x8e000030
    3d24:	00017069 	.word	0x00017069
    3d28:	0001706e 	.word	0x0001706e
    3d2c:	00017075 	.word	0x00017075
    3d30:	3c00d148 	.word	0x3c00d148

00003d34 <tt_crypto_aes>:
    3d34:	e92d4ff0 	push	{r4, r5, r6, r7, r8, r9, sl, fp, lr}
    3d38:	e24dd014 	sub	sp, sp, #20	; 0x14
    3d3c:	e1a06000 	mov	r6, r0
    3d40:	e3a01000 	mov	r1, #0	; 0x0
    3d44:	e28d000c 	add	r0, sp, #12	; 0xc
    3d48:	e3a02502 	mov	r2, #8388608	; 0x800000
    3d4c:	eb0002be 	bl	484c <tt_rnd_get_data>
    3d50:	e250b000 	subs	fp, r0, #0	; 0x0
    3d54:	e59f4340 	ldr	r4, [pc, #832]	; 409c <tt_crypto_aes+0x368>
    3d58:	059f0340 	ldreq	r0, [pc, #832]	; 40a0 <tt_crypto_aes+0x36c>
    3d5c:	0a00005c 	beq	3ed4 <tt_crypto_aes+0x1a0>
    3d60:	e59d200c 	ldr	r2, [sp, #12]
    3d64:	e1a0100b 	mov	r1, fp
    3d68:	e3c2200f 	bic	r2, r2, #15	; 0xf
    3d6c:	e1a03002 	mov	r3, r2
    3d70:	e58d200c 	str	r2, [sp, #12]
    3d74:	e59f0328 	ldr	r0, [pc, #808]	; 40a4 <tt_crypto_aes+0x370>
    3d78:	e1a02006 	mov	r2, r6
    3d7c:	e1a0e00f 	mov	lr, pc
    3d80:	e594f000 	ldr	pc, [r4]
    3d84:	e59f031c 	ldr	r0, [pc, #796]	; 40a8 <tt_crypto_aes+0x374>
    3d88:	e1a0e00f 	mov	lr, pc
    3d8c:	e594f000 	ldr	pc, [r4]
    3d90:	e1a0100b 	mov	r1, fp
    3d94:	e59d200c 	ldr	r2, [sp, #12]
    3d98:	e3a0048e 	mov	r0, #-1912602624	; 0x8e000000
    3d9c:	ebfff5ec 	bl	1554 <memcpy>
    3da0:	e59f0304 	ldr	r0, [pc, #772]	; 40ac <tt_crypto_aes+0x378>
    3da4:	e1a0e00f 	mov	lr, pc
    3da8:	e594f000 	ldr	pc, [r4]
    3dac:	e3a01000 	mov	r1, #0	; 0x0
    3db0:	e59f22f8 	ldr	r2, [pc, #760]	; 40b0 <tt_crypto_aes+0x37c>
    3db4:	e3a00001 	mov	r0, #1	; 0x1
    3db8:	eb000a28 	bl	6660 <ss_aes_init>
    3dbc:	e59f02f0 	ldr	r0, [pc, #752]	; 40b4 <tt_crypto_aes+0x380>
    3dc0:	e1a0e00f 	mov	lr, pc
    3dc4:	e594f000 	ldr	pc, [r4]
    3dc8:	e3560000 	cmp	r6, #0	; 0x0
    3dcc:	159d500c 	ldrne	r5, [sp, #12]
    3dd0:	13a0a000 	movne	sl, #0	; 0x0
    3dd4:	12868901 	addne	r8, r6, #16384	; 0x4000
    3dd8:	1a000022 	bne	3e68 <tt_crypto_aes+0x134>
    3ddc:	ea000025 	b	3e78 <tt_crypto_aes+0x144>
    3de0:	e59d100c 	ldr	r1, [sp, #12]
    3de4:	e3550902 	cmp	r5, #32768	; 0x8000
    3de8:	b1a07005 	movlt	r7, r5
    3dec:	a3a07902 	movge	r7, #32768	; 0x8000
    3df0:	e0651001 	rsb	r1, r5, r1
    3df4:	e281148e 	add	r1, r1, #-1912602624	; 0x8e000000
    3df8:	e1a02007 	mov	r2, r7
    3dfc:	ebfff5d4 	bl	1554 <memcpy>
    3e00:	e3a00000 	mov	r0, #0	; 0x0
    3e04:	eb002718 	bl	da6c <get_timer>
    3e08:	e3550901 	cmp	r5, #16384	; 0x4000
    3e0c:	b1a02005 	movlt	r2, r5
    3e10:	a3a02901 	movge	r2, #16384	; 0x4000
    3e14:	e1a04000 	mov	r4, r0
    3e18:	e1a01006 	mov	r1, r6
    3e1c:	e1a00006 	mov	r0, r6
    3e20:	eb0009fd 	bl	661c <ss_aes_data>
    3e24:	e3570902 	cmp	r7, #32768	; 0x8000
    3e28:	1a000003 	bne	3e3c <tt_crypto_aes+0x108>
    3e2c:	e1a01008 	mov	r1, r8
    3e30:	e3a02901 	mov	r2, #16384	; 0x4000
    3e34:	e1a00008 	mov	r0, r8
    3e38:	eb0009f7 	bl	661c <ss_aes_data>
    3e3c:	e1a00004 	mov	r0, r4
    3e40:	eb002709 	bl	da6c <get_timer>
    3e44:	e1a04000 	mov	r4, r0
    3e48:	e59d000c 	ldr	r0, [sp, #12]
    3e4c:	e1a01006 	mov	r1, r6
    3e50:	e0650000 	rsb	r0, r5, r0
    3e54:	e280048e 	add	r0, r0, #-1912602624	; 0x8e000000
    3e58:	e1a02007 	mov	r2, r7
    3e5c:	ebfff5bc 	bl	1554 <memcpy>
    3e60:	e08aa004 	add	sl, sl, r4
    3e64:	e0675005 	rsb	r5, r7, r5
    3e68:	e3550000 	cmp	r5, #0	; 0x0
    3e6c:	e1a00006 	mov	r0, r6
    3e70:	1affffda 	bne	3de0 <tt_crypto_aes+0xac>
    3e74:	ea000009 	b	3ea0 <tt_crypto_aes+0x16c>
    3e78:	e1a00006 	mov	r0, r6
    3e7c:	eb0026fa 	bl	da6c <get_timer>
    3e80:	e1a04000 	mov	r4, r0
    3e84:	e3a0048e 	mov	r0, #-1912602624	; 0x8e000000
    3e88:	e1a01000 	mov	r1, r0
    3e8c:	e59d200c 	ldr	r2, [sp, #12]
    3e90:	eb0009e1 	bl	661c <ss_aes_data>
    3e94:	e1a00004 	mov	r0, r4
    3e98:	eb0026f3 	bl	da6c <get_timer>
    3e9c:	e1a0a000 	mov	sl, r0
    3ea0:	e59d300c 	ldr	r3, [sp, #12]
    3ea4:	e3a0048e 	mov	r0, #-1912602624	; 0x8e000000
    3ea8:	e1a0100b 	mov	r1, fp
    3eac:	e3a02010 	mov	r2, #16	; 0x10
    3eb0:	e58d3004 	str	r3, [sp, #4]
    3eb4:	ebfff5c7 	bl	15d8 <memcmp>
    3eb8:	e3500000 	cmp	r0, #0	; 0x0
    3ebc:	e59f41d8 	ldr	r4, [pc, #472]	; 409c <tt_crypto_aes+0x368>
    3ec0:	1a000007 	bne	3ee4 <tt_crypto_aes+0x1b0>
    3ec4:	e59f01ec 	ldr	r0, [pc, #492]	; 40b8 <tt_crypto_aes+0x384>
    3ec8:	e1a0e00f 	mov	lr, pc
    3ecc:	e594f000 	ldr	pc, [r4]
    3ed0:	e59f01e4 	ldr	r0, [pc, #484]	; 40bc <tt_crypto_aes+0x388>
    3ed4:	e1a0e00f 	mov	lr, pc
    3ed8:	e594f000 	ldr	pc, [r4]
    3edc:	e3e00000 	mvn	r0, #0	; 0x0
    3ee0:	ea00006b 	b	4094 <tt_crypto_aes+0x360>
    3ee4:	e3a00000 	mov	r0, #0	; 0x0
    3ee8:	e1a01000 	mov	r1, r0
    3eec:	e59f21bc 	ldr	r2, [pc, #444]	; 40b0 <tt_crypto_aes+0x37c>
    3ef0:	eb0009da 	bl	6660 <ss_aes_init>
    3ef4:	e59f01c4 	ldr	r0, [pc, #452]	; 40c0 <tt_crypto_aes+0x38c>
    3ef8:	e1a0e00f 	mov	lr, pc
    3efc:	e594f000 	ldr	pc, [r4]
    3f00:	e3560000 	cmp	r6, #0	; 0x0
    3f04:	159d500c 	ldrne	r5, [sp, #12]
    3f08:	13a08000 	movne	r8, #0	; 0x0
    3f0c:	12869901 	addne	r9, r6, #16384	; 0x4000
    3f10:	1a000022 	bne	3fa0 <tt_crypto_aes+0x26c>
    3f14:	ea000025 	b	3fb0 <tt_crypto_aes+0x27c>
    3f18:	eb0026d3 	bl	da6c <get_timer>
    3f1c:	e59d100c 	ldr	r1, [sp, #12]
    3f20:	e3550902 	cmp	r5, #32768	; 0x8000
    3f24:	b1a07005 	movlt	r7, r5
    3f28:	a3a07902 	movge	r7, #32768	; 0x8000
    3f2c:	e0651001 	rsb	r1, r5, r1
    3f30:	e281148e 	add	r1, r1, #-1912602624	; 0x8e000000
    3f34:	e1a02007 	mov	r2, r7
    3f38:	e1a04000 	mov	r4, r0
    3f3c:	e1a00006 	mov	r0, r6
    3f40:	ebfff583 	bl	1554 <memcpy>
    3f44:	e3550901 	cmp	r5, #16384	; 0x4000
    3f48:	b1a02005 	movlt	r2, r5
    3f4c:	a3a02901 	movge	r2, #16384	; 0x4000
    3f50:	e1a00006 	mov	r0, r6
    3f54:	e1a01006 	mov	r1, r6
    3f58:	eb0009af 	bl	661c <ss_aes_data>
    3f5c:	e3570902 	cmp	r7, #32768	; 0x8000
    3f60:	1a000003 	bne	3f74 <tt_crypto_aes+0x240>
    3f64:	e1a01009 	mov	r1, r9
    3f68:	e3a02901 	mov	r2, #16384	; 0x4000
    3f6c:	e1a00009 	mov	r0, r9
    3f70:	eb0009a9 	bl	661c <ss_aes_data>
    3f74:	e1a00004 	mov	r0, r4
    3f78:	eb0026bb 	bl	da6c <get_timer>
    3f7c:	e1a04000 	mov	r4, r0
    3f80:	e59d000c 	ldr	r0, [sp, #12]
    3f84:	e1a01006 	mov	r1, r6
    3f88:	e0650000 	rsb	r0, r5, r0
    3f8c:	e280048e 	add	r0, r0, #-1912602624	; 0x8e000000
    3f90:	e1a02007 	mov	r2, r7
    3f94:	ebfff56e 	bl	1554 <memcpy>
    3f98:	e0888004 	add	r8, r8, r4
    3f9c:	e0675005 	rsb	r5, r7, r5
    3fa0:	e3a00000 	mov	r0, #0	; 0x0
    3fa4:	e1550000 	cmp	r5, r0
    3fa8:	1affffda 	bne	3f18 <tt_crypto_aes+0x1e4>
    3fac:	ea000009 	b	3fd8 <tt_crypto_aes+0x2a4>
    3fb0:	e1a00006 	mov	r0, r6
    3fb4:	eb0026ac 	bl	da6c <get_timer>
    3fb8:	e1a04000 	mov	r4, r0
    3fbc:	e3a0048e 	mov	r0, #-1912602624	; 0x8e000000
    3fc0:	e1a01000 	mov	r1, r0
    3fc4:	e59d200c 	ldr	r2, [sp, #12]
    3fc8:	eb000993 	bl	661c <ss_aes_data>
    3fcc:	e1a00004 	mov	r0, r4
    3fd0:	eb0026a5 	bl	da6c <get_timer>
    3fd4:	e1a08000 	mov	r8, r0
    3fd8:	e59d3004 	ldr	r3, [sp, #4]
    3fdc:	e3a04ffa 	mov	r4, #1000	; 0x3e8
    3fe0:	e1a00543 	asr	r0, r3, #10
    3fe4:	e1a0100a 	mov	r1, sl
    3fe8:	e0000094 	mul	r0, r4, r0
    3fec:	eb004268 	bl	14994 <__aeabi_idiv>
    3ff0:	e1a06000 	mov	r6, r0
    3ff4:	e59d000c 	ldr	r0, [sp, #12]
    3ff8:	e1a01008 	mov	r1, r8
    3ffc:	e1a00540 	asr	r0, r0, #10
    4000:	e0000094 	mul	r0, r4, r0
    4004:	eb004262 	bl	14994 <__aeabi_idiv>
    4008:	e59f408c 	ldr	r4, [pc, #140]	; 409c <tt_crypto_aes+0x368>
    400c:	e1a05000 	mov	r5, r0
    4010:	e59f00ac 	ldr	r0, [pc, #172]	; 40c4 <tt_crypto_aes+0x390>
    4014:	e1a0e00f 	mov	lr, pc
    4018:	e594f000 	ldr	pc, [r4]
    401c:	e1a0000b 	mov	r0, fp
    4020:	e3a0148e 	mov	r1, #-1912602624	; 0x8e000000
    4024:	e59d200c 	ldr	r2, [sp, #12]
    4028:	e3a0300c 	mov	r3, #12	; 0xc
    402c:	eb000189 	bl	4658 <tt_cmp_buffer>
    4030:	e3500000 	cmp	r0, #0	; 0x0
    4034:	0a000006 	beq	4054 <tt_crypto_aes+0x320>
    4038:	e1a03000 	mov	r3, r0
    403c:	e1a01006 	mov	r1, r6
    4040:	e1a02005 	mov	r2, r5
    4044:	e59f007c 	ldr	r0, [pc, #124]	; 40c8 <tt_crypto_aes+0x394>
    4048:	e1a0e00f 	mov	lr, pc
    404c:	e594f000 	ldr	pc, [r4]
    4050:	ea000004 	b	4068 <tt_crypto_aes+0x334>
    4054:	e1a01006 	mov	r1, r6
    4058:	e1a02005 	mov	r2, r5
    405c:	e59f0068 	ldr	r0, [pc, #104]	; 40cc <tt_crypto_aes+0x398>
    4060:	e1a0e00f 	mov	lr, pc
    4064:	e594f000 	ldr	pc, [r4]
    4068:	e59f0060 	ldr	r0, [pc, #96]	; 40d0 <tt_crypto_aes+0x39c>
    406c:	e59d100c 	ldr	r1, [sp, #12]
    4070:	e890000c 	ldm	r0, {r2, r3}
    4074:	e0922001 	adds	r2, r2, r1
    4078:	e0a33fc1 	adc	r3, r3, r1, asr #31
    407c:	e880000c 	stm	r0, {r2, r3}
    4080:	e59f0030 	ldr	r0, [pc, #48]	; 40b8 <tt_crypto_aes+0x384>
    4084:	e59f3010 	ldr	r3, [pc, #16]	; 409c <tt_crypto_aes+0x368>
    4088:	e1a0e00f 	mov	lr, pc
    408c:	e593f000 	ldr	pc, [r3]
    4090:	e3a00000 	mov	r0, #0	; 0x0
    4094:	e28dd014 	add	sp, sp, #20	; 0x14
    4098:	e8bd8ff0 	pop	{r4, r5, r6, r7, r8, r9, sl, fp, pc}
    409c:	3c00d6cc 	.word	0x3c00d6cc
    40a0:	00017095 	.word	0x00017095
    40a4:	000170b8 	.word	0x000170b8
    40a8:	00016afa 	.word	0x00016afa
    40ac:	00017932 	.word	0x00017932
    40b0:	3c00d08c 	.word	0x3c00d08c
    40b4:	00018a64 	.word	0x00018a64
    40b8:	00016bef 	.word	0x00016bef
    40bc:	000170e4 	.word	0x000170e4
    40c0:	00017fa8 	.word	0x00017fa8
    40c4:	00016e40 	.word	0x00016e40
    40c8:	00017105 	.word	0x00017105
    40cc:	00017143 	.word	0x00017143
    40d0:	3c00d140 	.word	0x3c00d140

000040d4 <do_tt_crypto>:
    40d4:	e92d45f0 	push	{r4, r5, r6, r7, r8, sl, lr}
    40d8:	e3520001 	cmp	r2, #1	; 0x1
    40dc:	e24dd004 	sub	sp, sp, #4	; 0x4
    40e0:	d3a07000 	movle	r7, #0	; 0x0
    40e4:	da000009 	ble	4110 <do_tt_crypto+0x3c>
    40e8:	e5930004 	ldr	r0, [r3, #4]
    40ec:	e3a01000 	mov	r1, #0	; 0x0
    40f0:	e3a02010 	mov	r2, #16	; 0x10
    40f4:	eb0035a0 	bl	1177c <simple_strtoul>
    40f8:	e1a07000 	mov	r7, r0
    40fc:	e1a01007 	mov	r1, r7
    4100:	e59f0114 	ldr	r0, [pc, #276]	; 421c <do_tt_crypto+0x148>
    4104:	e59f3114 	ldr	r3, [pc, #276]	; 4220 <do_tt_crypto+0x14c>
    4108:	e1a0e00f 	mov	lr, pc
    410c:	e593f000 	ldr	pc, [r3]
    4110:	e3a00000 	mov	r0, #0	; 0x0
    4114:	eb002654 	bl	da6c <get_timer>
    4118:	e59f1104 	ldr	r1, [pc, #260]	; 4224 <do_tt_crypto+0x150>
    411c:	e3a02000 	mov	r2, #0	; 0x0
    4120:	e3a03000 	mov	r3, #0	; 0x0
    4124:	e881000c 	stm	r1, {r2, r3}
    4128:	e59f10f8 	ldr	r1, [pc, #248]	; 4228 <do_tt_crypto+0x154>
    412c:	e59fa0ec 	ldr	sl, [pc, #236]	; 4220 <do_tt_crypto+0x14c>
    4130:	e881000c 	stm	r1, {r2, r3}
    4134:	e1a08000 	mov	r8, r0
    4138:	e3a06000 	mov	r6, #0	; 0x0
    413c:	e3a01006 	mov	r1, #6	; 0x6
    4140:	e3a00000 	mov	r0, #0	; 0x0
    4144:	eb000197 	bl	47a8 <tt_rnd_get_int>
    4148:	e3a01002 	mov	r1, #2	; 0x2
    414c:	e1a04000 	mov	r4, r0
    4150:	e3a00000 	mov	r0, #0	; 0x0
    4154:	eb000193 	bl	47a8 <tt_rnd_get_int>
    4158:	e1a01006 	mov	r1, r6
    415c:	e1a03000 	mov	r3, r0
    4160:	e1a05000 	mov	r5, r0
    4164:	e1a02004 	mov	r2, r4
    4168:	e59f00bc 	ldr	r0, [pc, #188]	; 422c <do_tt_crypto+0x158>
    416c:	e1a0e00f 	mov	lr, pc
    4170:	e59af000 	ldr	pc, [sl]
    4174:	e3540003 	cmp	r4, #3	; 0x3
    4178:	9a000004 	bls	4190 <do_tt_crypto+0xbc>
    417c:	e3550000 	cmp	r5, #0	; 0x0
    4180:	11a00007 	movne	r0, r7
    4184:	03a00000 	moveq	r0, #0	; 0x0
    4188:	ebfffee9 	bl	3d34 <tt_crypto_aes>
    418c:	ea000003 	b	41a0 <do_tt_crypto+0xcc>
    4190:	e3550000 	cmp	r5, #0	; 0x0
    4194:	11a00007 	movne	r0, r7
    4198:	03a00000 	moveq	r0, #0	; 0x0
    419c:	ebfffe4a 	bl	3acc <tt_crypto_hash>
    41a0:	eb00398c 	bl	127d8 <tstc>
    41a4:	e3500000 	cmp	r0, #0	; 0x0
    41a8:	e2866001 	add	r6, r6, #1	; 0x1
    41ac:	0affffe2 	beq	413c <do_tt_crypto+0x68>
    41b0:	eb003989 	bl	127dc <getc>
    41b4:	e3500003 	cmp	r0, #3	; 0x3
    41b8:	1affffdf 	bne	413c <do_tt_crypto+0x68>
    41bc:	e1a00008 	mov	r0, r8
    41c0:	eb002629 	bl	da6c <get_timer>
    41c4:	e59f305c 	ldr	r3, [pc, #92]	; 4228 <do_tt_crypto+0x154>
    41c8:	e59f2054 	ldr	r2, [pc, #84]	; 4224 <do_tt_crypto+0x150>
    41cc:	e5934000 	ldr	r4, [r3]
    41d0:	e5925000 	ldr	r5, [r2]
    41d4:	e5933004 	ldr	r3, [r3, #4]
    41d8:	e5922004 	ldr	r2, [r2, #4]
    41dc:	e30e1a60 	movw	r1, #60000	; 0xea60
    41e0:	e1a04a24 	lsr	r4, r4, #20
    41e4:	e1a05a25 	lsr	r5, r5, #20
    41e8:	e1844603 	orr	r4, r4, r3, lsl #12
    41ec:	e1855602 	orr	r5, r5, r2, lsl #12
    41f0:	eb004165 	bl	1478c <__aeabi_uidiv>
    41f4:	e1a01004 	mov	r1, r4
    41f8:	e1a03000 	mov	r3, r0
    41fc:	e1a02005 	mov	r2, r5
    4200:	e59f0028 	ldr	r0, [pc, #40]	; 4230 <do_tt_crypto+0x15c>
    4204:	e59fc014 	ldr	ip, [pc, #20]	; 4220 <do_tt_crypto+0x14c>
    4208:	e1a0e00f 	mov	lr, pc
    420c:	e59cf000 	ldr	pc, [ip]
    4210:	e3a00000 	mov	r0, #0	; 0x0
    4214:	e28dd004 	add	sp, sp, #4	; 0x4
    4218:	e8bd85f0 	pop	{r4, r5, r6, r7, r8, sl, pc}
    421c:	00017174 	.word	0x00017174
    4220:	3c00d6cc 	.word	0x3c00d6cc
    4224:	3c00d148 	.word	0x3c00d148
    4228:	3c00d140 	.word	0x3c00d140
    422c:	0001719a 	.word	0x0001719a
    4230:	000171b9 	.word	0x000171b9

00004234 <tt_ff_trolling>:
    4234:	e92d4ff0 	push	{r4, r5, r6, r7, r8, r9, sl, fp, lr}
    4238:	e3a01001 	mov	r1, #1	; 0x1
    423c:	e24dd01c 	sub	sp, sp, #28	; 0x1c
    4240:	e58d200c 	str	r2, [sp, #12]
    4244:	e58d3008 	str	r3, [sp, #8]
    4248:	e1a05000 	mov	r5, r0
    424c:	eb0008c0 	bl	6554 <vs_assign_by_name>
    4250:	e2506000 	subs	r6, r0, #0	; 0x0
    4254:	0a000005 	beq	4270 <tt_ff_trolling+0x3c>
    4258:	e1a01005 	mov	r1, r5
    425c:	e59f0330 	ldr	r0, [pc, #816]	; 4594 <tt_ff_trolling+0x360>
    4260:	e59f3330 	ldr	r3, [pc, #816]	; 4598 <tt_ff_trolling+0x364>
    4264:	e1a0e00f 	mov	lr, pc
    4268:	e593f000 	ldr	pc, [r3]
    426c:	ea00000c 	b	42a4 <tt_ff_trolling+0x70>
    4270:	e3a0000e 	mov	r0, #14	; 0xe
    4274:	eb000744 	bl	5f8c <vs_align>
    4278:	e1a01000 	mov	r1, r0
    427c:	e28d0018 	add	r0, sp, #24	; 0x18
    4280:	e5201004 	str	r1, [r0, #-4]!
    4284:	e1a02001 	mov	r2, r1
    4288:	eb00016f 	bl	484c <tt_rnd_get_data>
    428c:	e250a000 	subs	sl, r0, #0	; 0x0
    4290:	e59f4300 	ldr	r4, [pc, #768]	; 4598 <tt_ff_trolling+0x364>
    4294:	1a000004 	bne	42ac <tt_ff_trolling+0x78>
    4298:	e59f02fc 	ldr	r0, [pc, #764]	; 459c <tt_ff_trolling+0x368>
    429c:	e1a0e00f 	mov	lr, pc
    42a0:	e594f000 	ldr	pc, [r4]
    42a4:	e3e00000 	mvn	r0, #0	; 0x0
    42a8:	ea0000a9 	b	4554 <tt_ff_trolling+0x320>
    42ac:	e59d2014 	ldr	r2, [sp, #20]
    42b0:	e1a0100a 	mov	r1, sl
    42b4:	e3a0048e 	mov	r0, #-1912602624	; 0x8e000000
    42b8:	ebfff4a5 	bl	1554 <memcpy>
    42bc:	e3a01501 	mov	r1, #4194304	; 0x400000
    42c0:	e59f02d8 	ldr	r0, [pc, #728]	; 45a0 <tt_ff_trolling+0x36c>
    42c4:	e1a0e00f 	mov	lr, pc
    42c8:	e594f000 	ldr	pc, [r4]
    42cc:	e1a00005 	mov	r0, r5
    42d0:	eb0007ae 	bl	6190 <vs_device_id>
    42d4:	e1a0b004 	mov	fp, r4
    42d8:	e3a05000 	mov	r5, #0	; 0x0
    42dc:	e3a04000 	mov	r4, #0	; 0x0
    42e0:	e3a08501 	mov	r8, #4194304	; 0x400000
    42e4:	e3a09000 	mov	r9, #0	; 0x0
    42e8:	e1a07000 	mov	r7, r0
    42ec:	ea00003d 	b	43e8 <tt_ff_trolling+0x1b4>
    42f0:	e1a00007 	mov	r0, r7
    42f4:	eb000791 	bl	6140 <vs_device_erasable>
    42f8:	e3500000 	cmp	r0, #0	; 0x0
    42fc:	0a000003 	beq	4310 <tt_ff_trolling+0xdc>
    4300:	e1a00004 	mov	r0, r4
    4304:	e1a01005 	mov	r1, r5
    4308:	e3a02501 	mov	r2, #4194304	; 0x400000
    430c:	eb0006e2 	bl	5e9c <vs_erase>
    4310:	e1a00007 	mov	r0, r7
    4314:	e59f1288 	ldr	r1, [pc, #648]	; 45a4 <tt_ff_trolling+0x370>
    4318:	eb0007b0 	bl	61e0 <vs_is_device>
    431c:	e3500000 	cmp	r0, #0	; 0x0
    4320:	1a000009 	bne	434c <tt_ff_trolling+0x118>
    4324:	e1a00007 	mov	r0, r7
    4328:	e59f1278 	ldr	r1, [pc, #632]	; 45a8 <tt_ff_trolling+0x374>
    432c:	eb0007ab 	bl	61e0 <vs_is_device>
    4330:	e3500000 	cmp	r0, #0	; 0x0
    4334:	1a000004 	bne	434c <tt_ff_trolling+0x118>
    4338:	e1a00007 	mov	r0, r7
    433c:	e59f1268 	ldr	r1, [pc, #616]	; 45ac <tt_ff_trolling+0x378>
    4340:	eb0007a6 	bl	61e0 <vs_is_device>
    4344:	e3500000 	cmp	r0, #0	; 0x0
    4348:	0a00000a 	beq	4378 <tt_ff_trolling+0x144>
    434c:	e1a00004 	mov	r0, r4
    4350:	e1a01005 	mov	r1, r5
    4354:	eb001a54 	bl	acac <nnd_vs_isbad>
    4358:	e3500000 	cmp	r0, #0	; 0x0
    435c:	0a000005 	beq	4378 <tt_ff_trolling+0x144>
    4360:	e59f0248 	ldr	r0, [pc, #584]	; 45b0 <tt_ff_trolling+0x37c>
    4364:	e1a02004 	mov	r2, r4
    4368:	e1a03005 	mov	r3, r5
    436c:	e1a0e00f 	mov	lr, pc
    4370:	e59bf000 	ldr	pc, [fp]
    4374:	ea000018 	b	43dc <tt_ff_trolling+0x1a8>
    4378:	e3a0148e 	mov	r1, #-1912602624	; 0x8e000000
    437c:	e5816000 	str	r6, [r1]
    4380:	e1a00001 	mov	r0, r1
    4384:	e59d1014 	ldr	r1, [sp, #20]
    4388:	e1a02004 	mov	r2, r4
    438c:	e58d1000 	str	r1, [sp]
    4390:	e1a03005 	mov	r3, r5
    4394:	e3a01000 	mov	r1, #0	; 0x0
    4398:	e58d1004 	str	r1, [sp, #4]
    439c:	eb0006a8 	bl	5e44 <vs_write>
    43a0:	e3500000 	cmp	r0, #0	; 0x0
    43a4:	aa000006 	bge	43c4 <tt_ff_trolling+0x190>
    43a8:	e1a02004 	mov	r2, r4
    43ac:	e1a03005 	mov	r3, r5
    43b0:	e59f01fc 	ldr	r0, [pc, #508]	; 45b4 <tt_ff_trolling+0x380>
    43b4:	e59f11dc 	ldr	r1, [pc, #476]	; 4598 <tt_ff_trolling+0x364>
    43b8:	e1a0e00f 	mov	lr, pc
    43bc:	e591f000 	ldr	pc, [r1]
    43c0:	ea000010 	b	4408 <tt_ff_trolling+0x1d4>
    43c4:	e316001f 	tst	r6, #31	; 0x1f
    43c8:	1a000003 	bne	43dc <tt_ff_trolling+0x1a8>
    43cc:	e59f01e4 	ldr	r0, [pc, #484]	; 45b8 <tt_ff_trolling+0x384>
    43d0:	e1a01106 	lsl	r1, r6, #2
    43d4:	e1a0e00f 	mov	lr, pc
    43d8:	e59bf000 	ldr	pc, [fp]
    43dc:	e0944008 	adds	r4, r4, r8
    43e0:	e0a55009 	adc	r5, r5, r9
    43e4:	e2866001 	add	r6, r6, #1	; 0x1
    43e8:	e59d3008 	ldr	r3, [sp, #8]
    43ec:	e1530005 	cmp	r3, r5
    43f0:	8affffbe 	bhi	42f0 <tt_ff_trolling+0xbc>
    43f4:	1a000058 	bne	455c <tt_ff_trolling+0x328>
    43f8:	e59d100c 	ldr	r1, [sp, #12]
    43fc:	e1510004 	cmp	r1, r4
    4400:	8affffba 	bhi	42f0 <tt_ff_trolling+0xbc>
    4404:	ea000054 	b	455c <tt_ff_trolling+0x328>
    4408:	e59f4188 	ldr	r4, [pc, #392]	; 4598 <tt_ff_trolling+0x364>
    440c:	e59f01a8 	ldr	r0, [pc, #424]	; 45bc <tt_ff_trolling+0x388>
    4410:	e3a01501 	mov	r1, #4194304	; 0x400000
    4414:	e1a0e00f 	mov	lr, pc
    4418:	e594f000 	ldr	pc, [r4]
    441c:	e1a0b004 	mov	fp, r4
    4420:	e3a06000 	mov	r6, #0	; 0x0
    4424:	e28aa004 	add	sl, sl, #4	; 0x4
    4428:	e3a04000 	mov	r4, #0	; 0x0
    442c:	e3a05000 	mov	r5, #0	; 0x0
    4430:	e3a08501 	mov	r8, #4194304	; 0x400000
    4434:	e3a09000 	mov	r9, #0	; 0x0
    4438:	ea00003d 	b	4534 <tt_ff_trolling+0x300>
    443c:	e1a00007 	mov	r0, r7
    4440:	e59f115c 	ldr	r1, [pc, #348]	; 45a4 <tt_ff_trolling+0x370>
    4444:	eb000765 	bl	61e0 <vs_is_device>
    4448:	e3500000 	cmp	r0, #0	; 0x0
    444c:	1a000009 	bne	4478 <tt_ff_trolling+0x244>
    4450:	e1a00007 	mov	r0, r7
    4454:	e59f114c 	ldr	r1, [pc, #332]	; 45a8 <tt_ff_trolling+0x374>
    4458:	eb000760 	bl	61e0 <vs_is_device>
    445c:	e3500000 	cmp	r0, #0	; 0x0
    4460:	1a000004 	bne	4478 <tt_ff_trolling+0x244>
    4464:	e1a00007 	mov	r0, r7
    4468:	e59f113c 	ldr	r1, [pc, #316]	; 45ac <tt_ff_trolling+0x378>
    446c:	eb00075b 	bl	61e0 <vs_is_device>
    4470:	e3500000 	cmp	r0, #0	; 0x0
    4474:	0a00000a 	beq	44a4 <tt_ff_trolling+0x270>
    4478:	e1a00004 	mov	r0, r4
    447c:	e1a01005 	mov	r1, r5
    4480:	eb001a09 	bl	acac <nnd_vs_isbad>
    4484:	e3500000 	cmp	r0, #0	; 0x0
    4488:	0a000005 	beq	44a4 <tt_ff_trolling+0x270>
    448c:	e59f011c 	ldr	r0, [pc, #284]	; 45b0 <tt_ff_trolling+0x37c>
    4490:	e1a02004 	mov	r2, r4
    4494:	e1a03005 	mov	r3, r5
    4498:	e1a0e00f 	mov	lr, pc
    449c:	e59bf000 	ldr	pc, [fp]
    44a0:	ea000020 	b	4528 <tt_ff_trolling+0x2f4>
    44a4:	e59d1014 	ldr	r1, [sp, #20]
    44a8:	e3a0048e 	mov	r0, #-1912602624	; 0x8e000000
    44ac:	e58d1000 	str	r1, [sp]
    44b0:	e1a02004 	mov	r2, r4
    44b4:	e3a01000 	mov	r1, #0	; 0x0
    44b8:	e1a03005 	mov	r3, r5
    44bc:	e58d1004 	str	r1, [sp, #4]
    44c0:	eb00075f 	bl	6244 <vs_read>
    44c4:	e316001f 	tst	r6, #31	; 0x1f
    44c8:	1a000003 	bne	44dc <tt_ff_trolling+0x2a8>
    44cc:	e59f00e4 	ldr	r0, [pc, #228]	; 45b8 <tt_ff_trolling+0x384>
    44d0:	e1a01106 	lsl	r1, r6, #2
    44d4:	e1a0e00f 	mov	lr, pc
    44d8:	e59bf000 	ldr	pc, [fp]
    44dc:	e3a0348e 	mov	r3, #-1912602624	; 0x8e000000
    44e0:	e5933000 	ldr	r3, [r3]
    44e4:	e1530006 	cmp	r3, r6
    44e8:	1a000007 	bne	450c <tt_ff_trolling+0x2d8>
    44ec:	e59d2014 	ldr	r2, [sp, #20]
    44f0:	e1a0000a 	mov	r0, sl
    44f4:	e2422004 	sub	r2, r2, #4	; 0x4
    44f8:	e59f10c0 	ldr	r1, [pc, #192]	; 45c0 <tt_ff_trolling+0x38c>
    44fc:	e3a0300a 	mov	r3, #10	; 0xa
    4500:	eb000054 	bl	4658 <tt_cmp_buffer>
    4504:	e3500000 	cmp	r0, #0	; 0x0
    4508:	0a000006 	beq	4528 <tt_ff_trolling+0x2f4>
    450c:	e1a02004 	mov	r2, r4
    4510:	e1a03005 	mov	r3, r5
    4514:	e59f00a8 	ldr	r0, [pc, #168]	; 45c4 <tt_ff_trolling+0x390>
    4518:	e59f1078 	ldr	r1, [pc, #120]	; 4598 <tt_ff_trolling+0x364>
    451c:	e1a0e00f 	mov	lr, pc
    4520:	e591f000 	ldr	pc, [r1]
    4524:	ea000018 	b	458c <tt_ff_trolling+0x358>
    4528:	e0944008 	adds	r4, r4, r8
    452c:	e0a55009 	adc	r5, r5, r9
    4530:	e2866001 	add	r6, r6, #1	; 0x1
    4534:	e59d3008 	ldr	r3, [sp, #8]
    4538:	e1530005 	cmp	r3, r5
    453c:	8affffbe 	bhi	443c <tt_ff_trolling+0x208>
    4540:	1a00000a 	bne	4570 <tt_ff_trolling+0x33c>
    4544:	e59d100c 	ldr	r1, [sp, #12]
    4548:	e1510004 	cmp	r1, r4
    454c:	8affffba 	bhi	443c <tt_ff_trolling+0x208>
    4550:	ea000006 	b	4570 <tt_ff_trolling+0x33c>
    4554:	e28dd01c 	add	sp, sp, #28	; 0x1c
    4558:	e8bd8ff0 	pop	{r4, r5, r6, r7, r8, r9, sl, fp, pc}
    455c:	e59f0064 	ldr	r0, [pc, #100]	; 45c8 <tt_ff_trolling+0x394>
    4560:	e59f3030 	ldr	r3, [pc, #48]	; 4598 <tt_ff_trolling+0x364>
    4564:	e1a0e00f 	mov	lr, pc
    4568:	e593f000 	ldr	pc, [r3]
    456c:	eaffffa5 	b	4408 <tt_ff_trolling+0x1d4>
    4570:	e59f0050 	ldr	r0, [pc, #80]	; 45c8 <tt_ff_trolling+0x394>
    4574:	e59f401c 	ldr	r4, [pc, #28]	; 4598 <tt_ff_trolling+0x364>
    4578:	e1a0e00f 	mov	lr, pc
    457c:	e594f000 	ldr	pc, [r4]
    4580:	e59f0044 	ldr	r0, [pc, #68]	; 45cc <tt_ff_trolling+0x398>
    4584:	e1a0e00f 	mov	lr, pc
    4588:	e594f000 	ldr	pc, [r4]
    458c:	e3a00000 	mov	r0, #0	; 0x0
    4590:	eaffffef 	b	4554 <tt_ff_trolling+0x320>
    4594:	0001723d 	.word	0x0001723d
    4598:	3c00d6cc 	.word	0x3c00d6cc
    459c:	0001725a 	.word	0x0001725a
    45a0:	00017279 	.word	0x00017279
    45a4:	00016127 	.word	0x00016127
    45a8:	00016283 	.word	0x00016283
    45ac:	0001627f 	.word	0x0001627f
    45b0:	00017297 	.word	0x00017297
    45b4:	000172b6 	.word	0x000172b6
    45b8:	000172ce 	.word	0x000172ce
    45bc:	000172d5 	.word	0x000172d5
    45c0:	8e000004 	.word	0x8e000004
    45c4:	000172f5 	.word	0x000172f5
    45c8:	00017305 	.word	0x00017305
    45cc:	0001730c 	.word	0x0001730c

000045d0 <do_tt_ff>:
    45d0:	e92d4030 	push	{r4, r5, lr}
    45d4:	e3520001 	cmp	r2, #1	; 0x1
    45d8:	e24dd004 	sub	sp, sp, #4	; 0x4
    45dc:	e1a05003 	mov	r5, r3
    45e0:	ca000005 	bgt	45fc <do_tt_ff+0x2c>
    45e4:	e59f0060 	ldr	r0, [pc, #96]	; 464c <do_tt_ff+0x7c>
    45e8:	e59f3060 	ldr	r3, [pc, #96]	; 4650 <do_tt_ff+0x80>
    45ec:	e1a0e00f 	mov	lr, pc
    45f0:	e593f000 	ldr	pc, [r3]
    45f4:	e3e00000 	mvn	r0, #0	; 0x0
    45f8:	ea000011 	b	4644 <do_tt_ff+0x74>
    45fc:	e3520002 	cmp	r2, #2	; 0x2
    4600:	03a04000 	moveq	r4, #0	; 0x0
    4604:	0a000009 	beq	4630 <do_tt_ff+0x60>
    4608:	e3a01000 	mov	r1, #0	; 0x0
    460c:	e5930008 	ldr	r0, [r3, #8]
    4610:	e3a0200a 	mov	r2, #10	; 0xa
    4614:	eb003458 	bl	1177c <simple_strtoul>
    4618:	e1a04000 	mov	r4, r0
    461c:	e1a01004 	mov	r1, r4
    4620:	e59f002c 	ldr	r0, [pc, #44]	; 4654 <do_tt_ff+0x84>
    4624:	e59f3024 	ldr	r3, [pc, #36]	; 4650 <do_tt_ff+0x80>
    4628:	e1a0e00f 	mov	lr, pc
    462c:	e593f000 	ldr	pc, [r3]
    4630:	e5950004 	ldr	r0, [r5, #4]
    4634:	e1a03624 	lsr	r3, r4, #12
    4638:	e1a02a04 	lsl	r2, r4, #20
    463c:	ebfffefc 	bl	4234 <tt_ff_trolling>
    4640:	e3a00000 	mov	r0, #0	; 0x0
    4644:	e28dd004 	add	sp, sp, #4	; 0x4
    4648:	e8bd8030 	pop	{r4, r5, pc}
    464c:	00017324 	.word	0x00017324
    4650:	3c00d6cc 	.word	0x3c00d6cc
    4654:	0001736a 	.word	0x0001736a

00004658 <tt_cmp_buffer>:
    4658:	e92d4ff0 	push	{r4, r5, r6, r7, r8, r9, sl, fp, lr}
    465c:	e3a04000 	mov	r4, #0	; 0x0
    4660:	e24dd004 	sub	sp, sp, #4	; 0x4
    4664:	e1a0a002 	mov	sl, r2
    4668:	e1a07000 	mov	r7, r0
    466c:	e1a06001 	mov	r6, r1
    4670:	e1a08003 	mov	r8, r3
    4674:	e1a09142 	asr	r9, r2, #2
    4678:	e1a05004 	mov	r5, r4
    467c:	e59fb0e4 	ldr	fp, [pc, #228]	; 4768 <tt_cmp_buffer+0x110>
    4680:	ea00001f 	b	4704 <tt_cmp_buffer+0xac>
    4684:	e5970000 	ldr	r0, [r7]
    4688:	e5961000 	ldr	r1, [r6]
    468c:	e1500001 	cmp	r0, r1
    4690:	0a000018 	beq	46f8 <tt_cmp_buffer+0xa0>
    4694:	e5d72000 	ldrb	r2, [r7]
    4698:	e5d63000 	ldrb	r3, [r6]
    469c:	e1520003 	cmp	r2, r3
    46a0:	e5d72001 	ldrb	r2, [r7, #1]
    46a4:	e5d63001 	ldrb	r3, [r6, #1]
    46a8:	12855001 	addne	r5, r5, #1	; 0x1
    46ac:	e1520003 	cmp	r2, r3
    46b0:	e5d72002 	ldrb	r2, [r7, #2]
    46b4:	e5d63002 	ldrb	r3, [r6, #2]
    46b8:	12855001 	addne	r5, r5, #1	; 0x1
    46bc:	e1520003 	cmp	r2, r3
    46c0:	e5d72003 	ldrb	r2, [r7, #3]
    46c4:	e5d63003 	ldrb	r3, [r6, #3]
    46c8:	12855001 	addne	r5, r5, #1	; 0x1
    46cc:	e1520003 	cmp	r2, r3
    46d0:	12855001 	addne	r5, r5, #1	; 0x1
    46d4:	e3580000 	cmp	r8, #0	; 0x0
    46d8:	0a000006 	beq	46f8 <tt_cmp_buffer+0xa0>
    46dc:	e1a02000 	mov	r2, r0
    46e0:	e1a03001 	mov	r3, r1
    46e4:	e59f0080 	ldr	r0, [pc, #128]	; 476c <tt_cmp_buffer+0x114>
    46e8:	e1a01104 	lsl	r1, r4, #2
    46ec:	e1a0e00f 	mov	lr, pc
    46f0:	e59bf000 	ldr	pc, [fp]
    46f4:	e2488001 	sub	r8, r8, #1	; 0x1
    46f8:	e2844001 	add	r4, r4, #1	; 0x1
    46fc:	e2877004 	add	r7, r7, #4	; 0x4
    4700:	e2866004 	add	r6, r6, #4	; 0x4
    4704:	e1540009 	cmp	r4, r9
    4708:	baffffdd 	blt	4684 <tt_cmp_buffer+0x2c>
    470c:	e3ca9003 	bic	r9, sl, #3	; 0x3
    4710:	e3a04000 	mov	r4, #0	; 0x0
    4714:	e20aa003 	and	sl, sl, #3	; 0x3
    4718:	e59fb048 	ldr	fp, [pc, #72]	; 4768 <tt_cmp_buffer+0x110>
    471c:	ea00000c 	b	4754 <tt_cmp_buffer+0xfc>
    4720:	e7d72004 	ldrb	r2, [r7, r4]
    4724:	e7d63004 	ldrb	r3, [r6, r4]
    4728:	e1520003 	cmp	r2, r3
    472c:	0a000007 	beq	4750 <tt_cmp_buffer+0xf8>
    4730:	e3580000 	cmp	r8, #0	; 0x0
    4734:	e2855001 	add	r5, r5, #1	; 0x1
    4738:	0a000004 	beq	4750 <tt_cmp_buffer+0xf8>
    473c:	e0841009 	add	r1, r4, r9
    4740:	e59f0028 	ldr	r0, [pc, #40]	; 4770 <tt_cmp_buffer+0x118>
    4744:	e1a0e00f 	mov	lr, pc
    4748:	e59bf000 	ldr	pc, [fp]
    474c:	e2488001 	sub	r8, r8, #1	; 0x1
    4750:	e2844001 	add	r4, r4, #1	; 0x1
    4754:	e154000a 	cmp	r4, sl
    4758:	bafffff0 	blt	4720 <tt_cmp_buffer+0xc8>
    475c:	e1a00005 	mov	r0, r5
    4760:	e28dd004 	add	sp, sp, #4	; 0x4
    4764:	e8bd8ff0 	pop	{r4, r5, r6, r7, r8, r9, sl, fp, pc}
    4768:	3c00d6cc 	.word	0x3c00d6cc
    476c:	00017391 	.word	0x00017391
    4770:	000173bc 	.word	0x000173bc

00004774 <tt_rnd_seed>:
    4774:	e92d4030 	push	{r4, r5, lr}
    4778:	e59f5024 	ldr	r5, [pc, #36]	; 47a4 <tt_rnd_seed+0x30>
    477c:	e24dd004 	sub	sp, sp, #4	; 0x4
    4780:	e3a00000 	mov	r0, #0	; 0x0
    4784:	e5954000 	ldr	r4, [r5]
    4788:	eb0024b7 	bl	da6c <get_timer>
    478c:	e30f3ffc 	movw	r3, #65532	; 0xfffc
    4790:	e6e40070 	uxtab	r0, r4, r0
    4794:	e0003003 	and	r3, r0, r3
    4798:	e5853000 	str	r3, [r5]
    479c:	e28dd004 	add	sp, sp, #4	; 0x4
    47a0:	e8bd8030 	pop	{r4, r5, pc}
    47a4:	3c00d150 	.word	0x3c00d150

000047a8 <tt_rnd_get_int>:
    47a8:	e59fc094 	ldr	ip, [pc, #148]	; 4844 <tt_rnd_get_int+0x9c>
    47ac:	e3a02102 	mov	r2, #-2147483648	; 0x80000000
    47b0:	e59c3000 	ldr	r3, [ip]
    47b4:	e92d40f0 	push	{r4, r5, r6, r7, lr}
    47b8:	e19330b2 	ldrh	r3, [r3, r2]
    47bc:	e24dd004 	sub	sp, sp, #4	; 0x4
    47c0:	e3c33003 	bic	r3, r3, #3	; 0x3
    47c4:	e6ff3073 	uxth	r3, r3
    47c8:	e19340b2 	ldrh	r4, [r3, r2]
    47cc:	e58c3000 	str	r3, [ip]
    47d0:	e1a07000 	mov	r7, r0
    47d4:	e1a06001 	mov	r6, r1
    47d8:	ebffffe5 	bl	4774 <tt_rnd_seed>
    47dc:	e1a00004 	mov	r0, r4
    47e0:	eb0041bc 	bl	14ed8 <__aeabi_ui2d>
    47e4:	e3a02000 	mov	r2, #0	; 0x0
    47e8:	e59f3058 	ldr	r3, [pc, #88]	; 4848 <tt_rnd_get_int+0xa0>
    47ec:	eb004294 	bl	15244 <__aeabi_ddiv>
    47f0:	e1a04000 	mov	r4, r0
    47f4:	e0670006 	rsb	r0, r7, r6
    47f8:	e1a05001 	mov	r5, r1
    47fc:	eb0041be 	bl	14efc <__aeabi_i2d>
    4800:	e1a02000 	mov	r2, r0
    4804:	e1a03001 	mov	r3, r1
    4808:	e1a00004 	mov	r0, r4
    480c:	e1a01005 	mov	r1, r5
    4810:	eb0041f0 	bl	14fd8 <__aeabi_dmul>
    4814:	e1a04000 	mov	r4, r0
    4818:	e1a00007 	mov	r0, r7
    481c:	e1a05001 	mov	r5, r1
    4820:	eb0041b5 	bl	14efc <__aeabi_i2d>
    4824:	e1a02000 	mov	r2, r0
    4828:	e1a03001 	mov	r3, r1
    482c:	e1a00004 	mov	r0, r4
    4830:	e1a01005 	mov	r1, r5
    4834:	eb0040fc 	bl	14c2c <__adddf3>
    4838:	eb004302 	bl	15448 <__aeabi_d2iz>
    483c:	e28dd004 	add	sp, sp, #4	; 0x4
    4840:	e8bd80f0 	pop	{r4, r5, r6, r7, pc}
    4844:	3c00d150 	.word	0x3c00d150
    4848:	40efffe0 	.word	0x40efffe0

0000484c <tt_rnd_get_data>:
    484c:	e92d4010 	push	{r4, lr}
    4850:	e1a04000 	mov	r4, r0
    4854:	e1a00001 	mov	r0, r1
    4858:	e1a01002 	mov	r1, r2
    485c:	ebffffd1 	bl	47a8 <tt_rnd_get_int>
    4860:	e59f3010 	ldr	r3, [pc, #16]	; 4878 <tt_rnd_get_data+0x2c>
    4864:	e5840000 	str	r0, [r4]
    4868:	e5930000 	ldr	r0, [r3]
    486c:	e3c00003 	bic	r0, r0, #3	; 0x3
    4870:	e2800102 	add	r0, r0, #-2147483648	; 0x80000000
    4874:	e8bd8010 	pop	{r4, pc}
    4878:	3c00d150 	.word	0x3c00d150

0000487c <do_tt_nbi>:
    487c:	e92d45f0 	push	{r4, r5, r6, r7, r8, sl, lr}
    4880:	e3a00001 	mov	r0, #1	; 0x1
    4884:	e24dd054 	sub	sp, sp, #84	; 0x54
    4888:	ebffef4f 	bl	5cc <get_xom>
    488c:	e59f30d0 	ldr	r3, [pc, #208]	; 4964 <do_tt_nbi+0xe8>
    4890:	e28d4010 	add	r4, sp, #16	; 0x10
    4894:	e1a0c003 	mov	ip, r3
    4898:	e1a06000 	mov	r6, r0
    489c:	e8bc000f 	ldm	ip!, {r0, r1, r2, r3}
    48a0:	e8a4000f 	stmia	r4!, {r0, r1, r2, r3}
    48a4:	e8bc000f 	ldm	ip!, {r0, r1, r2, r3}
    48a8:	e8a4000f 	stmia	r4!, {r0, r1, r2, r3}
    48ac:	e8bc000f 	ldm	ip!, {r0, r1, r2, r3}
    48b0:	e8a4000f 	stmia	r4!, {r0, r1, r2, r3}
    48b4:	e89c000f 	ldm	ip, {r0, r1, r2, r3}
    48b8:	e59fa0a8 	ldr	sl, [pc, #168]	; 4968 <do_tt_nbi+0xec>
    48bc:	e59f80a8 	ldr	r8, [pc, #168]	; 496c <do_tt_nbi+0xf0>
    48c0:	e59f70a8 	ldr	r7, [pc, #168]	; 4970 <do_tt_nbi+0xf4>
    48c4:	e884000f 	stm	r4, {r0, r1, r2, r3}
    48c8:	e3a0400a 	mov	r4, #10	; 0xa
    48cc:	e1a00004 	mov	r0, r4
    48d0:	ebffef41 	bl	5dc <set_xom>
    48d4:	eb001a4c 	bl	b20c <nand_rescan_bootcfg>
    48d8:	e3a00000 	mov	r0, #0	; 0x0
    48dc:	eb001594 	bl	9f34 <nand_get_config>
    48e0:	e5d03005 	ldrb	r3, [r0, #5]
    48e4:	e5d02006 	ldrb	r2, [r0, #6]
    48e8:	e3530000 	cmp	r3, #0	; 0x0
    48ec:	15d03003 	ldrbne	r3, [r0, #3]
    48f0:	128d1050 	addne	r1, sp, #80	; 0x50
    48f4:	10813103 	addne	r3, r1, r3, lsl #2
    48f8:	e5d01000 	ldrb	r1, [r0]
    48fc:	15133040 	ldrne	r3, [r3, #-64]
    4900:	e3510000 	cmp	r1, #0	; 0x0
    4904:	e590e014 	ldr	lr, [r0, #20]
    4908:	e59a5000 	ldr	r5, [sl]
    490c:	e5d0c002 	ldrb	ip, [r0, #2]
    4910:	059f105c 	ldreq	r1, [pc, #92]	; 4974 <do_tt_nbi+0xf8>
    4914:	0a000002 	beq	4924 <do_tt_nbi+0xa8>
    4918:	e3510001 	cmp	r1, #1	; 0x1
    491c:	01a01008 	moveq	r1, r8
    4920:	11a01007 	movne	r1, r7
    4924:	e58d1008 	str	r1, [sp, #8]
    4928:	e88d1008 	stm	sp, {r3, ip}
    492c:	e5d03001 	ldrb	r3, [r0, #1]
    4930:	e1a01004 	mov	r1, r4
    4934:	e58d300c 	str	r3, [sp, #12]
    4938:	e2844001 	add	r4, r4, #1	; 0x1
    493c:	e1a0300e 	mov	r3, lr
    4940:	e59f0030 	ldr	r0, [pc, #48]	; 4978 <do_tt_nbi+0xfc>
    4944:	e12fff35 	blx	r5
    4948:	e354001c 	cmp	r4, #28	; 0x1c
    494c:	1affffde 	bne	48cc <do_tt_nbi+0x50>
    4950:	e1a00006 	mov	r0, r6
    4954:	ebffef20 	bl	5dc <set_xom>
    4958:	e3a00000 	mov	r0, #0	; 0x0
    495c:	e28dd054 	add	sp, sp, #84	; 0x54
    4960:	e8bd85f0 	pop	{r4, r5, r6, r7, r8, sl, pc}
    4964:	00015574 	.word	0x00015574
    4968:	3c00d6cc 	.word	0x3c00d6cc
    496c:	000173f5 	.word	0x000173f5
    4970:	000173ee 	.word	0x000173ee
    4974:	000173e7 	.word	0x000173e7
    4978:	000173fa 	.word	0x000173fa

0000497c <tt_simple_test>:
    497c:	e92d45f0 	push	{r4, r5, r6, r7, r8, sl, lr}
    4980:	e1a0a001 	mov	sl, r1
    4984:	e24dd044 	sub	sp, sp, #68	; 0x44
    4988:	e3a01001 	mov	r1, #1	; 0x1
    498c:	e1a05000 	mov	r5, r0
    4990:	eb0006ef 	bl	6554 <vs_assign_by_name>
    4994:	e3500000 	cmp	r0, #0	; 0x0
    4998:	13e00000 	mvnne	r0, #0	; 0x0
    499c:	1a000048 	bne	4ac4 <tt_simple_test+0x148>
    49a0:	e1a00005 	mov	r0, r5
    49a4:	e59f1120 	ldr	r1, [pc, #288]	; 4acc <tt_simple_test+0x150>
    49a8:	e3a02003 	mov	r2, #3	; 0x3
    49ac:	ebfff2af 	bl	1470 <strncmp>
    49b0:	e3500000 	cmp	r0, #0	; 0x0
    49b4:	1a000001 	bne	49c0 <tt_simple_test+0x44>
    49b8:	eb00158b 	bl	9fec <fnd_align>
    49bc:	ea000001 	b	49c8 <tt_simple_test+0x4c>
    49c0:	e3a0000e 	mov	r0, #14	; 0xe
    49c4:	eb000570 	bl	5f8c <vs_align>
    49c8:	e1a06400 	lsl	r6, r0, #8
    49cc:	e1a00005 	mov	r0, r5
    49d0:	eb0005ee 	bl	6190 <vs_device_id>
    49d4:	e59f80f4 	ldr	r8, [pc, #244]	; 4ad0 <tt_simple_test+0x154>
    49d8:	e1a07000 	mov	r7, r0
    49dc:	e5984000 	ldr	r4, [r8]
    49e0:	eb000569 	bl	5f8c <vs_align>
    49e4:	e1a01005 	mov	r1, r5
    49e8:	e1a02000 	mov	r2, r0
    49ec:	e59f00e0 	ldr	r0, [pc, #224]	; 4ad4 <tt_simple_test+0x158>
    49f0:	e12fff34 	blx	r4
    49f4:	e35a0000 	cmp	sl, #0	; 0x0
    49f8:	1a00001a 	bne	4a68 <tt_simple_test+0xec>
    49fc:	e1a00007 	mov	r0, r7
    4a00:	eb0005ce 	bl	6140 <vs_device_erasable>
    4a04:	e3500000 	cmp	r0, #0	; 0x0
    4a08:	0a000009 	beq	4a34 <tt_simple_test+0xb8>
    4a0c:	e59f00c4 	ldr	r0, [pc, #196]	; 4ad8 <tt_simple_test+0x15c>
    4a10:	e1a0e00f 	mov	lr, pc
    4a14:	e598f000 	ldr	pc, [r8]
    4a18:	e59f10bc 	ldr	r1, [pc, #188]	; 4adc <tt_simple_test+0x160>
    4a1c:	e1a0000d 	mov	r0, sp
    4a20:	e1a02006 	mov	r2, r6
    4a24:	eb0036e0 	bl	125ac <sprintf>
    4a28:	e1a0000d 	mov	r0, sp
    4a2c:	e1a0100a 	mov	r1, sl
    4a30:	eb0037a5 	bl	128cc <run_command>
    4a34:	e59f3094 	ldr	r3, [pc, #148]	; 4ad0 <tt_simple_test+0x154>
    4a38:	e59f00a0 	ldr	r0, [pc, #160]	; 4ae0 <tt_simple_test+0x164>
    4a3c:	e1a0e00f 	mov	lr, pc
    4a40:	e593f000 	ldr	pc, [r3]
    4a44:	e1a02006 	mov	r2, r6
    4a48:	e59f1094 	ldr	r1, [pc, #148]	; 4ae4 <tt_simple_test+0x168>
    4a4c:	e1a0000d 	mov	r0, sp
    4a50:	eb0036d5 	bl	125ac <sprintf>
    4a54:	e1a0000d 	mov	r0, sp
    4a58:	e3a01000 	mov	r1, #0	; 0x0
    4a5c:	e1a0400d 	mov	r4, sp
    4a60:	eb003799 	bl	128cc <run_command>
    4a64:	ea000015 	b	4ac0 <tt_simple_test+0x144>
    4a68:	e59f0078 	ldr	r0, [pc, #120]	; 4ae8 <tt_simple_test+0x16c>
    4a6c:	e1a0e00f 	mov	lr, pc
    4a70:	e598f000 	ldr	pc, [r8]
    4a74:	e1a02006 	mov	r2, r6
    4a78:	e59f106c 	ldr	r1, [pc, #108]	; 4aec <tt_simple_test+0x170>
    4a7c:	e1a0000d 	mov	r0, sp
    4a80:	eb0036c9 	bl	125ac <sprintf>
    4a84:	e3a01000 	mov	r1, #0	; 0x0
    4a88:	e1a0000d 	mov	r0, sp
    4a8c:	eb00378e 	bl	128cc <run_command>
    4a90:	e59f0058 	ldr	r0, [pc, #88]	; 4af0 <tt_simple_test+0x174>
    4a94:	e1a0e00f 	mov	lr, pc
    4a98:	e598f000 	ldr	pc, [r8]
    4a9c:	e1a02006 	mov	r2, r6
    4aa0:	e59f104c 	ldr	r1, [pc, #76]	; 4af4 <tt_simple_test+0x178>
    4aa4:	e3a03003 	mov	r3, #3	; 0x3
    4aa8:	e59f0048 	ldr	r0, [pc, #72]	; 4af8 <tt_simple_test+0x17c>
    4aac:	ebfffee9 	bl	4658 <tt_cmp_buffer>
    4ab0:	e59f0044 	ldr	r0, [pc, #68]	; 4afc <tt_simple_test+0x180>
    4ab4:	e1a0400d 	mov	r4, sp
    4ab8:	e1a0e00f 	mov	lr, pc
    4abc:	e598f000 	ldr	pc, [r8]
    4ac0:	e3a00000 	mov	r0, #0	; 0x0
    4ac4:	e28dd044 	add	sp, sp, #68	; 0x44
    4ac8:	e8bd85f0 	pop	{r4, r5, r6, r7, r8, sl, pc}
    4acc:	00016283 	.word	0x00016283
    4ad0:	3c00d6cc 	.word	0x3c00d6cc
    4ad4:	000176f6 	.word	0x000176f6
    4ad8:	00017416 	.word	0x00017416
    4adc:	00017423 	.word	0x00017423
    4ae0:	00017438 	.word	0x00017438
    4ae4:	00017445 	.word	0x00017445
    4ae8:	00017463 	.word	0x00017463
    4aec:	00017470 	.word	0x00017470
    4af0:	0001748d 	.word	0x0001748d
    4af4:	50008000 	.word	0x50008000
    4af8:	40008000 	.word	0x40008000
    4afc:	00016bef 	.word	0x00016bef

00004b00 <do_tt_randomizer>:
    4b00:	e92d4ff0 	push	{r4, r5, r6, r7, r8, r9, sl, fp, lr}
    4b04:	e24dd064 	sub	sp, sp, #100	; 0x64
    4b08:	e1a06002 	mov	r6, r2
    4b0c:	e28d0010 	add	r0, sp, #16	; 0x10
    4b10:	e59f12dc 	ldr	r1, [pc, #732]	; 4df4 <do_tt_randomizer+0x2f4>
    4b14:	e3a02050 	mov	r2, #80	; 0x50
    4b18:	e1a05003 	mov	r5, r3
    4b1c:	ebfff28c 	bl	1554 <memcpy>
    4b20:	e3560001 	cmp	r6, #1	; 0x1
    4b24:	d59f02cc 	ldrle	r0, [pc, #716]	; 4df8 <do_tt_randomizer+0x2f8>
    4b28:	da000009 	ble	4b54 <do_tt_randomizer+0x54>
    4b2c:	e5950004 	ldr	r0, [r5, #4]
    4b30:	e59f12c4 	ldr	r1, [pc, #708]	; 4dfc <do_tt_randomizer+0x2fc>
    4b34:	e3a02003 	mov	r2, #3	; 0x3
    4b38:	ebfff24c 	bl	1470 <strncmp>
    4b3c:	e2504000 	subs	r4, r0, #0	; 0x0
    4b40:	e2858004 	add	r8, r5, #4	; 0x4
    4b44:	1a000010 	bne	4b8c <do_tt_randomizer+0x8c>
    4b48:	e3560002 	cmp	r6, #2	; 0x2
    4b4c:	1a000005 	bne	4b68 <do_tt_randomizer+0x68>
    4b50:	e59f02a8 	ldr	r0, [pc, #680]	; 4e00 <do_tt_randomizer+0x300>
    4b54:	e59f32a8 	ldr	r3, [pc, #680]	; 4e04 <do_tt_randomizer+0x304>
    4b58:	e1a0e00f 	mov	lr, pc
    4b5c:	e593f000 	ldr	pc, [r3]
    4b60:	e3e00000 	mvn	r0, #0	; 0x0
    4b64:	ea0000a0 	b	4dec <do_tt_randomizer+0x2ec>
    4b68:	e1a01004 	mov	r1, r4
    4b6c:	e3a02010 	mov	r2, #16	; 0x10
    4b70:	e5950008 	ldr	r0, [r5, #8]
    4b74:	eb003300 	bl	1177c <simple_strtoul>
    4b78:	ebffee97 	bl	5dc <set_xom>
    4b7c:	e1a00004 	mov	r0, r4
    4b80:	eb001aee 	bl	b740 <nand_rescan_config>
    4b84:	e1a00004 	mov	r0, r4
    4b88:	ea000000 	b	4b90 <do_tt_randomizer+0x90>
    4b8c:	e3a00001 	mov	r0, #1	; 0x1
    4b90:	eb0014e7 	bl	9f34 <nand_get_config>
    4b94:	e3500000 	cmp	r0, #0	; 0x0
    4b98:	e1a05000 	mov	r5, r0
    4b9c:	059f0264 	ldreq	r0, [pc, #612]	; 4e08 <do_tt_randomizer+0x308>
    4ba0:	0affffeb 	beq	4b54 <do_tt_randomizer+0x54>
    4ba4:	e3a00001 	mov	r0, #1	; 0x1
    4ba8:	e3a01000 	mov	r1, #0	; 0x0
    4bac:	e59fb250 	ldr	fp, [pc, #592]	; 4e04 <do_tt_randomizer+0x304>
    4bb0:	e58d0008 	str	r0, [sp, #8]
    4bb4:	e58d100c 	str	r1, [sp, #12]
    4bb8:	e59d000c 	ldr	r0, [sp, #12]
    4bbc:	e59f2248 	ldr	r2, [pc, #584]	; 4e0c <do_tt_randomizer+0x30c>
    4bc0:	e3a09000 	mov	r9, #0	; 0x0
    4bc4:	e7923000 	ldr	r3, [r2, r0]
    4bc8:	e59f0240 	ldr	r0, [pc, #576]	; 4e10 <do_tt_randomizer+0x310>
    4bcc:	e1a01003 	mov	r1, r3
    4bd0:	e5853048 	str	r3, [r5, #72]
    4bd4:	e59f2228 	ldr	r2, [pc, #552]	; 4e04 <do_tt_randomizer+0x304>
    4bd8:	e1a0e00f 	mov	lr, pc
    4bdc:	e592f000 	ldr	pc, [r2]
    4be0:	e59f1224 	ldr	r1, [pc, #548]	; 4e0c <do_tt_randomizer+0x30c>
    4be4:	e59d200c 	ldr	r2, [sp, #12]
    4be8:	e59d0008 	ldr	r0, [sp, #8]
    4bec:	e0813002 	add	r3, r1, r2
    4bf0:	e3a0100a 	mov	r1, #10	; 0xa
    4bf4:	e58d3000 	str	r3, [sp]
    4bf8:	eb003fed 	bl	14bb4 <__aeabi_idivmod>
    4bfc:	e28da010 	add	sl, sp, #16	; 0x10
    4c00:	e58d1004 	str	r1, [sp, #4]
    4c04:	ea00006a 	b	4db4 <do_tt_randomizer+0x2b4>
    4c08:	e4972004 	ldr	r2, [r7], #4
    4c0c:	e1a01004 	mov	r1, r4
    4c10:	e5862038 	str	r2, [r6, #56]
    4c14:	e2844001 	add	r4, r4, #1	; 0x1
    4c18:	e59f01f4 	ldr	r0, [pc, #500]	; 4e14 <do_tt_randomizer+0x314>
    4c1c:	e59f31e0 	ldr	r3, [pc, #480]	; 4e04 <do_tt_randomizer+0x304>
    4c20:	e1a0e00f 	mov	lr, pc
    4c24:	e593f000 	ldr	pc, [r3]
    4c28:	e3540004 	cmp	r4, #4	; 0x4
    4c2c:	e2866004 	add	r6, r6, #4	; 0x4
    4c30:	1afffff4 	bne	4c08 <do_tt_randomizer+0x108>
    4c34:	e3a00001 	mov	r0, #1	; 0x1
    4c38:	e5c50001 	strb	r0, [r5, #1]
    4c3c:	e3a00000 	mov	r0, #0	; 0x0
    4c40:	eb002389 	bl	da6c <get_timer>
    4c44:	e1a04000 	mov	r4, r0
    4c48:	e1a00005 	mov	r0, r5
    4c4c:	eb0019e8 	bl	b3f4 <nand_init_randomizer>
    4c50:	e1a00004 	mov	r0, r4
    4c54:	eb002384 	bl	da6c <get_timer>
    4c58:	e1a01000 	mov	r1, r0
    4c5c:	e59f01b4 	ldr	r0, [pc, #436]	; 4e18 <do_tt_randomizer+0x318>
    4c60:	e1a0e00f 	mov	lr, pc
    4c64:	e59bf000 	ldr	pc, [fp]
    4c68:	e3a01000 	mov	r1, #0	; 0x0
    4c6c:	e5980000 	ldr	r0, [r8]
    4c70:	ebffff41 	bl	497c <tt_simple_test>
    4c74:	e3a01000 	mov	r1, #0	; 0x0
    4c78:	e5c51001 	strb	r1, [r5, #1]
    4c7c:	e59f0198 	ldr	r0, [pc, #408]	; 4e1c <do_tt_randomizer+0x31c>
    4c80:	e1a0e00f 	mov	lr, pc
    4c84:	e59bf000 	ldr	pc, [fp]
    4c88:	e3a01001 	mov	r1, #1	; 0x1
    4c8c:	e5980000 	ldr	r0, [r8]
    4c90:	ebffff39 	bl	497c <tt_simple_test>
    4c94:	e3a02001 	mov	r2, #1	; 0x1
    4c98:	e5c52001 	strb	r2, [r5, #1]
    4c9c:	e59f017c 	ldr	r0, [pc, #380]	; 4e20 <do_tt_randomizer+0x320>
    4ca0:	e1a0e00f 	mov	lr, pc
    4ca4:	e59bf000 	ldr	pc, [fp]
    4ca8:	e3a01001 	mov	r1, #1	; 0x1
    4cac:	e5980000 	ldr	r0, [r8]
    4cb0:	ebffff31 	bl	497c <tt_simple_test>
    4cb4:	e2899001 	add	r9, r9, #1	; 0x1
    4cb8:	e59f0164 	ldr	r0, [pc, #356]	; 4e24 <do_tt_randomizer+0x324>
    4cbc:	e1a0e00f 	mov	lr, pc
    4cc0:	e59bf000 	ldr	pc, [fp]
    4cc4:	e1a00009 	mov	r0, r9
    4cc8:	e3a01005 	mov	r1, #5	; 0x5
    4ccc:	eb003fb8 	bl	14bb4 <__aeabi_idivmod>
    4cd0:	e28d3060 	add	r3, sp, #96	; 0x60
    4cd4:	e083c201 	add	ip, r3, r1, lsl #4
    4cd8:	e51c3050 	ldr	r3, [ip, #-80]
    4cdc:	e1a00005 	mov	r0, r5
    4ce0:	e5853038 	str	r3, [r5, #56]
    4ce4:	e51c304c 	ldr	r3, [ip, #-76]
    4ce8:	e585303c 	str	r3, [r5, #60]
    4cec:	e51c3048 	ldr	r3, [ip, #-72]
    4cf0:	e5853040 	str	r3, [r5, #64]
    4cf4:	e51c3044 	ldr	r3, [ip, #-68]
    4cf8:	e5853044 	str	r3, [r5, #68]
    4cfc:	eb0019bc 	bl	b3f4 <nand_init_randomizer>
    4d00:	e3a01001 	mov	r1, #1	; 0x1
    4d04:	e5980000 	ldr	r0, [r8]
    4d08:	ebffff1b 	bl	497c <tt_simple_test>
    4d0c:	e59f0114 	ldr	r0, [pc, #276]	; 4e28 <do_tt_randomizer+0x328>
    4d10:	e1a0e00f 	mov	lr, pc
    4d14:	e59bf000 	ldr	pc, [fp]
    4d18:	e59a3000 	ldr	r3, [sl]
    4d1c:	e1a00005 	mov	r0, r5
    4d20:	e5853038 	str	r3, [r5, #56]
    4d24:	e59a3004 	ldr	r3, [sl, #4]
    4d28:	e585303c 	str	r3, [r5, #60]
    4d2c:	e59a3008 	ldr	r3, [sl, #8]
    4d30:	e5853040 	str	r3, [r5, #64]
    4d34:	e59a300c 	ldr	r3, [sl, #12]
    4d38:	e28aa010 	add	sl, sl, #16	; 0x10
    4d3c:	e5853044 	str	r3, [r5, #68]
    4d40:	eb0019ab 	bl	b3f4 <nand_init_randomizer>
    4d44:	e3a01001 	mov	r1, #1	; 0x1
    4d48:	e5980000 	ldr	r0, [r8]
    4d4c:	ebffff0a 	bl	497c <tt_simple_test>
    4d50:	e59f00d4 	ldr	r0, [pc, #212]	; 4e2c <do_tt_randomizer+0x32c>
    4d54:	e1a0e00f 	mov	lr, pc
    4d58:	e59bf000 	ldr	pc, [fp]
    4d5c:	e59f20a8 	ldr	r2, [pc, #168]	; 4e0c <do_tt_randomizer+0x30c>
    4d60:	e59d1004 	ldr	r1, [sp, #4]
    4d64:	e1a00005 	mov	r0, r5
    4d68:	e7923101 	ldr	r3, [r2, r1, lsl #2]
    4d6c:	e5853048 	str	r3, [r5, #72]
    4d70:	eb00199f 	bl	b3f4 <nand_init_randomizer>
    4d74:	e3a01001 	mov	r1, #1	; 0x1
    4d78:	e5980000 	ldr	r0, [r8]
    4d7c:	ebfffefe 	bl	497c <tt_simple_test>
    4d80:	e59f00a8 	ldr	r0, [pc, #168]	; 4e30 <do_tt_randomizer+0x330>
    4d84:	e1a0e00f 	mov	lr, pc
    4d88:	e59bf000 	ldr	pc, [fp]
    4d8c:	e59d0000 	ldr	r0, [sp]
    4d90:	e5903000 	ldr	r3, [r0]
    4d94:	e1a00005 	mov	r0, r5
    4d98:	e5853048 	str	r3, [r5, #72]
    4d9c:	eb001994 	bl	b3f4 <nand_init_randomizer>
    4da0:	e5980000 	ldr	r0, [r8]
    4da4:	e3a01001 	mov	r1, #1	; 0x1
    4da8:	ebfffef3 	bl	497c <tt_simple_test>
    4dac:	e3590004 	cmp	r9, #4	; 0x4
    4db0:	0a000004 	beq	4dc8 <do_tt_randomizer+0x2c8>
    4db4:	e28d1010 	add	r1, sp, #16	; 0x10
    4db8:	e0817209 	add	r7, r1, r9, lsl #4
    4dbc:	e1a06005 	mov	r6, r5
    4dc0:	e3a04000 	mov	r4, #0	; 0x0
    4dc4:	eaffff8f 	b	4c08 <do_tt_randomizer+0x108>
    4dc8:	e59d2008 	ldr	r2, [sp, #8]
    4dcc:	e59d300c 	ldr	r3, [sp, #12]
    4dd0:	e2822001 	add	r2, r2, #1	; 0x1
    4dd4:	e2833004 	add	r3, r3, #4	; 0x4
    4dd8:	e3520006 	cmp	r2, #6	; 0x6
    4ddc:	e58d2008 	str	r2, [sp, #8]
    4de0:	e58d300c 	str	r3, [sp, #12]
    4de4:	1affff73 	bne	4bb8 <do_tt_randomizer+0xb8>
    4de8:	e3a00000 	mov	r0, #0	; 0x0
    4dec:	e28dd064 	add	sp, sp, #100	; 0x64
    4df0:	e8bd8ff0 	pop	{r4, r5, r6, r7, r8, r9, sl, fp, pc}
    4df4:	000155b4 	.word	0x000155b4
    4df8:	0001749c 	.word	0x0001749c
    4dfc:	00016127 	.word	0x00016127
    4e00:	000174bc 	.word	0x000174bc
    4e04:	3c00d6cc 	.word	0x3c00d6cc
    4e08:	000174d3 	.word	0x000174d3
    4e0c:	000113e0 	.word	0x000113e0
    4e10:	000174f8 	.word	0x000174f8
    4e14:	00017510 	.word	0x00017510
    4e18:	0001752a 	.word	0x0001752a
    4e1c:	0001754d 	.word	0x0001754d
    4e20:	00017576 	.word	0x00017576
    4e24:	0001759e 	.word	0x0001759e
    4e28:	000175c6 	.word	0x000175c6
    4e2c:	000175f3 	.word	0x000175f3
    4e30:	0001761b 	.word	0x0001761b

00004e34 <tt_nand_cross_cmp>:
    4e34:	e92d4ff0 	push	{r4, r5, r6, r7, r8, r9, sl, fp, lr}
    4e38:	e24dd004 	sub	sp, sp, #4	; 0x4
    4e3c:	e59da028 	ldr	sl, [sp, #40]
    4e40:	e3530000 	cmp	r3, #0	; 0x0
    4e44:	e1a05002 	mov	r5, r2
    4e48:	13a02000 	movne	r2, #0	; 0x0
    4e4c:	059a2010 	ldreq	r2, [sl, #16]
    4e50:	e3530000 	cmp	r3, #0	; 0x0
    4e54:	e1a06001 	mov	r6, r1
    4e58:	159a3010 	ldrne	r3, [sl, #16]
    4e5c:	e59a1014 	ldr	r1, [sl, #20]
    4e60:	e1a07000 	mov	r7, r0
    4e64:	e0838001 	add	r8, r3, r1
    4e68:	e082b001 	add	fp, r2, r1
    4e6c:	e3a04000 	mov	r4, #0	; 0x0
    4e70:	e2689000 	rsb	r9, r8, #0	; 0x0
    4e74:	e3a03000 	mov	r3, #0	; 0x0
    4e78:	e1550003 	cmp	r5, r3
    4e7c:	e1a00007 	mov	r0, r7
    4e80:	e1a01006 	mov	r1, r6
    4e84:	e087700b 	add	r7, r7, fp
    4e88:	e0866008 	add	r6, r6, r8
    4e8c:	e0855009 	add	r5, r5, r9
    4e90:	da000003 	ble	4ea4 <tt_nand_cross_cmp+0x70>
    4e94:	e59a2014 	ldr	r2, [sl, #20]
    4e98:	ebfffdee 	bl	4658 <tt_cmp_buffer>
    4e9c:	e0844000 	add	r4, r4, r0
    4ea0:	eafffff3 	b	4e74 <tt_nand_cross_cmp+0x40>
    4ea4:	e1a00004 	mov	r0, r4
    4ea8:	e28dd004 	add	sp, sp, #4	; 0x4
    4eac:	e8bd8ff0 	pop	{r4, r5, r6, r7, r8, r9, sl, fp, pc}

00004eb0 <do_tt_sysinfo>:
    4eb0:	e92d40f0 	push	{r4, r5, r6, r7, lr}
    4eb4:	e3520001 	cmp	r2, #1	; 0x1
    4eb8:	e24dd044 	sub	sp, sp, #68	; 0x44
    4ebc:	e1a04003 	mov	r4, r3
    4ec0:	ca000003 	bgt	4ed4 <do_tt_sysinfo+0x24>
    4ec4:	e59f01ac 	ldr	r0, [pc, #428]	; 5078 <do_tt_sysinfo+0x1c8>
    4ec8:	e59f31ac 	ldr	r3, [pc, #428]	; 507c <do_tt_sysinfo+0x1cc>
    4ecc:	e1a0e00f 	mov	lr, pc
    4ed0:	e593f000 	ldr	pc, [r3]
    4ed4:	e3a00001 	mov	r0, #1	; 0x1
    4ed8:	eb001415 	bl	9f34 <nand_get_config>
    4edc:	e2505000 	subs	r5, r0, #0	; 0x0
    4ee0:	1a000004 	bne	4ef8 <do_tt_sysinfo+0x48>
    4ee4:	e59f0194 	ldr	r0, [pc, #404]	; 5080 <do_tt_sysinfo+0x1d0>
    4ee8:	e59f318c 	ldr	r3, [pc, #396]	; 507c <do_tt_sysinfo+0x1cc>
    4eec:	e1a0e00f 	mov	lr, pc
    4ef0:	e593f000 	ldr	pc, [r3]
    4ef4:	ea000004 	b	4f0c <do_tt_sysinfo+0x5c>
    4ef8:	e59f0184 	ldr	r0, [pc, #388]	; 5084 <do_tt_sysinfo+0x1d4>
    4efc:	e3a01001 	mov	r1, #1	; 0x1
    4f00:	eb000593 	bl	6554 <vs_assign_by_name>
    4f04:	e2507000 	subs	r7, r0, #0	; 0x0
    4f08:	0a000001 	beq	4f14 <do_tt_sysinfo+0x64>
    4f0c:	e3e00000 	mvn	r0, #0	; 0x0
    4f10:	ea000056 	b	5070 <do_tt_sysinfo+0x1c0>
    4f14:	e1a01007 	mov	r1, r7
    4f18:	e3a0200a 	mov	r2, #10	; 0xa
    4f1c:	e5940004 	ldr	r0, [r4, #4]
    4f20:	eb003215 	bl	1177c <simple_strtoul>
    4f24:	e5850010 	str	r0, [r5, #16]
    4f28:	e1a04000 	mov	r4, r0
    4f2c:	eb00142e 	bl	9fec <fnd_align>
    4f30:	e1a06480 	lsl	r6, r0, #9
    4f34:	e1a01004 	mov	r1, r4
    4f38:	e59f513c 	ldr	r5, [pc, #316]	; 507c <do_tt_sysinfo+0x1cc>
    4f3c:	e59f0144 	ldr	r0, [pc, #324]	; 5088 <do_tt_sysinfo+0x1d8>
    4f40:	e1a02006 	mov	r2, r6
    4f44:	e1a0e00f 	mov	lr, pc
    4f48:	e595f000 	ldr	pc, [r5]
    4f4c:	e1a0400d 	mov	r4, sp
    4f50:	e1a01007 	mov	r1, r7
    4f54:	e59f0130 	ldr	r0, [pc, #304]	; 508c <do_tt_sysinfo+0x1dc>
    4f58:	e1a0e00f 	mov	lr, pc
    4f5c:	e595f000 	ldr	pc, [r5]
    4f60:	e59f0128 	ldr	r0, [pc, #296]	; 5090 <do_tt_sysinfo+0x1e0>
    4f64:	e1a0e00f 	mov	lr, pc
    4f68:	e595f000 	ldr	pc, [r5]
    4f6c:	e1a02006 	mov	r2, r6
    4f70:	e59f111c 	ldr	r1, [pc, #284]	; 5094 <do_tt_sysinfo+0x1e4>
    4f74:	e1a0000d 	mov	r0, sp
    4f78:	eb00358b 	bl	125ac <sprintf>
    4f7c:	e3a01000 	mov	r1, #0	; 0x0
    4f80:	e1a0000d 	mov	r0, sp
    4f84:	eb003650 	bl	128cc <run_command>
    4f88:	eb003612 	bl	127d8 <tstc>
    4f8c:	e2873001 	add	r3, r7, #1	; 0x1
    4f90:	e3500000 	cmp	r0, #0	; 0x0
    4f94:	e1a07003 	mov	r7, r3
    4f98:	0a000002 	beq	4fa8 <do_tt_sysinfo+0xf8>
    4f9c:	eb00360e 	bl	127dc <getc>
    4fa0:	e3500003 	cmp	r0, #3	; 0x3
    4fa4:	0a000030 	beq	506c <do_tt_sysinfo+0x1bc>
    4fa8:	e59f00e8 	ldr	r0, [pc, #232]	; 5098 <do_tt_sysinfo+0x1e8>
    4fac:	e1a0e00f 	mov	lr, pc
    4fb0:	e595f000 	ldr	pc, [r5]
    4fb4:	e1a02006 	mov	r2, r6
    4fb8:	e59f10dc 	ldr	r1, [pc, #220]	; 509c <do_tt_sysinfo+0x1ec>
    4fbc:	e1a0000d 	mov	r0, sp
    4fc0:	eb003579 	bl	125ac <sprintf>
    4fc4:	e3a01000 	mov	r1, #0	; 0x0
    4fc8:	e1a0000d 	mov	r0, sp
    4fcc:	eb00363e 	bl	128cc <run_command>
    4fd0:	eb003600 	bl	127d8 <tstc>
    4fd4:	e3500000 	cmp	r0, #0	; 0x0
    4fd8:	0a000002 	beq	4fe8 <do_tt_sysinfo+0x138>
    4fdc:	eb0035fe 	bl	127dc <getc>
    4fe0:	e3500003 	cmp	r0, #3	; 0x3
    4fe4:	0a000020 	beq	506c <do_tt_sysinfo+0x1bc>
    4fe8:	e59f00b0 	ldr	r0, [pc, #176]	; 50a0 <do_tt_sysinfo+0x1f0>
    4fec:	e1a0e00f 	mov	lr, pc
    4ff0:	e595f000 	ldr	pc, [r5]
    4ff4:	e1a02006 	mov	r2, r6
    4ff8:	e59f10a4 	ldr	r1, [pc, #164]	; 50a4 <do_tt_sysinfo+0x1f4>
    4ffc:	e1a0000d 	mov	r0, sp
    5000:	eb003569 	bl	125ac <sprintf>
    5004:	e3a01000 	mov	r1, #0	; 0x0
    5008:	e1a0000d 	mov	r0, sp
    500c:	eb00362e 	bl	128cc <run_command>
    5010:	eb0035f0 	bl	127d8 <tstc>
    5014:	e3500000 	cmp	r0, #0	; 0x0
    5018:	0a000002 	beq	5028 <do_tt_sysinfo+0x178>
    501c:	eb0035ee 	bl	127dc <getc>
    5020:	e3500003 	cmp	r0, #3	; 0x3
    5024:	0a000010 	beq	506c <do_tt_sysinfo+0x1bc>
    5028:	e59f0078 	ldr	r0, [pc, #120]	; 50a8 <do_tt_sysinfo+0x1f8>
    502c:	e1a0e00f 	mov	lr, pc
    5030:	e595f000 	ldr	pc, [r5]
    5034:	e59f1070 	ldr	r1, [pc, #112]	; 50ac <do_tt_sysinfo+0x1fc>
    5038:	e1a02006 	mov	r2, r6
    503c:	e3a0300c 	mov	r3, #12	; 0xc
    5040:	e59f0068 	ldr	r0, [pc, #104]	; 50b0 <do_tt_sysinfo+0x200>
    5044:	ebfffd83 	bl	4658 <tt_cmp_buffer>
    5048:	e59f0064 	ldr	r0, [pc, #100]	; 50b4 <do_tt_sysinfo+0x204>
    504c:	e1a0e00f 	mov	lr, pc
    5050:	e595f000 	ldr	pc, [r5]
    5054:	eb0035df 	bl	127d8 <tstc>
    5058:	e3500000 	cmp	r0, #0	; 0x0
    505c:	0affffbb 	beq	4f50 <do_tt_sysinfo+0xa0>
    5060:	eb0035dd 	bl	127dc <getc>
    5064:	e3500003 	cmp	r0, #3	; 0x3
    5068:	1affffb8 	bne	4f50 <do_tt_sysinfo+0xa0>
    506c:	e3a00000 	mov	r0, #0	; 0x0
    5070:	e28dd044 	add	sp, sp, #68	; 0x44
    5074:	e8bd80f0 	pop	{r4, r5, r6, r7, pc}
    5078:	00017648 	.word	0x00017648
    507c:	3c00d6cc 	.word	0x3c00d6cc
    5080:	0001765f 	.word	0x0001765f
    5084:	00016283 	.word	0x00016283
    5088:	0001767a 	.word	0x0001767a
    508c:	00016f62 	.word	0x00016f62
    5090:	00017416 	.word	0x00017416
    5094:	0001769b 	.word	0x0001769b
    5098:	00017438 	.word	0x00017438
    509c:	000176af 	.word	0x000176af
    50a0:	00017463 	.word	0x00017463
    50a4:	000176cc 	.word	0x000176cc
    50a8:	0001748d 	.word	0x0001748d
    50ac:	50008000 	.word	0x50008000
    50b0:	40008000 	.word	0x40008000
    50b4:	00016bef 	.word	0x00016bef

000050b8 <do_tt_sn>:
    50b8:	e92d45f0 	push	{r4, r5, r6, r7, r8, sl, lr}
    50bc:	e3520001 	cmp	r2, #1	; 0x1
    50c0:	e24dd044 	sub	sp, sp, #68	; 0x44
    50c4:	e1a04002 	mov	r4, r2
    50c8:	e1a05003 	mov	r5, r3
    50cc:	ca000003 	bgt	50e0 <do_tt_sn+0x28>
    50d0:	e59f01d8 	ldr	r0, [pc, #472]	; 52b0 <do_tt_sn+0x1f8>
    50d4:	e59f31d8 	ldr	r3, [pc, #472]	; 52b4 <do_tt_sn+0x1fc>
    50d8:	e1a0e00f 	mov	lr, pc
    50dc:	e593f000 	ldr	pc, [r3]
    50e0:	e5950004 	ldr	r0, [r5, #4]
    50e4:	e3a01001 	mov	r1, #1	; 0x1
    50e8:	eb000519 	bl	6554 <vs_assign_by_name>
    50ec:	e250a000 	subs	sl, r0, #0	; 0x0
    50f0:	13e00000 	mvnne	r0, #0	; 0x0
    50f4:	1a00006b 	bne	52a8 <do_tt_sn+0x1f0>
    50f8:	e5950004 	ldr	r0, [r5, #4]
    50fc:	e59f11b4 	ldr	r1, [pc, #436]	; 52b8 <do_tt_sn+0x200>
    5100:	e3a02003 	mov	r2, #3	; 0x3
    5104:	ebfff0d9 	bl	1470 <strncmp>
    5108:	e3500000 	cmp	r0, #0	; 0x0
    510c:	13a07501 	movne	r7, #4194304	; 0x400000
    5110:	1a000001 	bne	511c <do_tt_sn+0x64>
    5114:	eb0013b4 	bl	9fec <fnd_align>
    5118:	e1a07500 	lsl	r7, r0, #10
    511c:	e5950004 	ldr	r0, [r5, #4]
    5120:	eb00041a 	bl	6190 <vs_device_id>
    5124:	e3540002 	cmp	r4, #2	; 0x2
    5128:	e1a08000 	mov	r8, r0
    512c:	da000007 	ble	5150 <do_tt_sn+0x98>
    5130:	e3a01000 	mov	r1, #0	; 0x0
    5134:	e3a0200a 	mov	r2, #10	; 0xa
    5138:	e5950008 	ldr	r0, [r5, #8]
    513c:	eb00318e 	bl	1177c <simple_strtoul>
    5140:	e1a04000 	mov	r4, r0
    5144:	e1a00008 	mov	r0, r8
    5148:	eb00038f 	bl	5f8c <vs_align>
    514c:	e0070094 	mul	r7, r4, r0
    5150:	e59f615c 	ldr	r6, [pc, #348]	; 52b4 <do_tt_sn+0x1fc>
    5154:	e1a00008 	mov	r0, r8
    5158:	e5954004 	ldr	r4, [r5, #4]
    515c:	e5965000 	ldr	r5, [r6]
    5160:	eb000389 	bl	5f8c <vs_align>
    5164:	e1a01004 	mov	r1, r4
    5168:	e1a02000 	mov	r2, r0
    516c:	e59f0148 	ldr	r0, [pc, #328]	; 52bc <do_tt_sn+0x204>
    5170:	e12fff35 	blx	r5
    5174:	e1a0400d 	mov	r4, sp
    5178:	e1a0100a 	mov	r1, sl
    517c:	e59f013c 	ldr	r0, [pc, #316]	; 52c0 <do_tt_sn+0x208>
    5180:	e1a0e00f 	mov	lr, pc
    5184:	e596f000 	ldr	pc, [r6]
    5188:	e1a00008 	mov	r0, r8
    518c:	eb0003eb 	bl	6140 <vs_device_erasable>
    5190:	e28a3001 	add	r3, sl, #1	; 0x1
    5194:	e3500000 	cmp	r0, #0	; 0x0
    5198:	e1a0a003 	mov	sl, r3
    519c:	e59f0120 	ldr	r0, [pc, #288]	; 52c4 <do_tt_sn+0x20c>
    51a0:	0a00000e 	beq	51e0 <do_tt_sn+0x128>
    51a4:	e1a0e00f 	mov	lr, pc
    51a8:	e596f000 	ldr	pc, [r6]
    51ac:	e1a02007 	mov	r2, r7
    51b0:	e59f1110 	ldr	r1, [pc, #272]	; 52c8 <do_tt_sn+0x210>
    51b4:	e1a0000d 	mov	r0, sp
    51b8:	eb0034fb 	bl	125ac <sprintf>
    51bc:	e3a01000 	mov	r1, #0	; 0x0
    51c0:	e1a0000d 	mov	r0, sp
    51c4:	eb0035c0 	bl	128cc <run_command>
    51c8:	eb003582 	bl	127d8 <tstc>
    51cc:	e3500000 	cmp	r0, #0	; 0x0
    51d0:	0a000002 	beq	51e0 <do_tt_sn+0x128>
    51d4:	eb003580 	bl	127dc <getc>
    51d8:	e3500003 	cmp	r0, #3	; 0x3
    51dc:	0a000030 	beq	52a4 <do_tt_sn+0x1ec>
    51e0:	e59f00e4 	ldr	r0, [pc, #228]	; 52cc <do_tt_sn+0x214>
    51e4:	e1a0e00f 	mov	lr, pc
    51e8:	e596f000 	ldr	pc, [r6]
    51ec:	e1a02007 	mov	r2, r7
    51f0:	e59f10d8 	ldr	r1, [pc, #216]	; 52d0 <do_tt_sn+0x218>
    51f4:	e1a0000d 	mov	r0, sp
    51f8:	eb0034eb 	bl	125ac <sprintf>
    51fc:	e3a01000 	mov	r1, #0	; 0x0
    5200:	e1a0000d 	mov	r0, sp
    5204:	eb0035b0 	bl	128cc <run_command>
    5208:	eb003572 	bl	127d8 <tstc>
    520c:	e3500000 	cmp	r0, #0	; 0x0
    5210:	0a000002 	beq	5220 <do_tt_sn+0x168>
    5214:	eb003570 	bl	127dc <getc>
    5218:	e3500003 	cmp	r0, #3	; 0x3
    521c:	0a000020 	beq	52a4 <do_tt_sn+0x1ec>
    5220:	e59f00ac 	ldr	r0, [pc, #172]	; 52d4 <do_tt_sn+0x21c>
    5224:	e1a0e00f 	mov	lr, pc
    5228:	e596f000 	ldr	pc, [r6]
    522c:	e1a02007 	mov	r2, r7
    5230:	e59f10a0 	ldr	r1, [pc, #160]	; 52d8 <do_tt_sn+0x220>
    5234:	e1a0000d 	mov	r0, sp
    5238:	eb0034db 	bl	125ac <sprintf>
    523c:	e3a01000 	mov	r1, #0	; 0x0
    5240:	e1a0000d 	mov	r0, sp
    5244:	eb0035a0 	bl	128cc <run_command>
    5248:	eb003562 	bl	127d8 <tstc>
    524c:	e3500000 	cmp	r0, #0	; 0x0
    5250:	0a000002 	beq	5260 <do_tt_sn+0x1a8>
    5254:	eb003560 	bl	127dc <getc>
    5258:	e3500003 	cmp	r0, #3	; 0x3
    525c:	0a000010 	beq	52a4 <do_tt_sn+0x1ec>
    5260:	e59f0074 	ldr	r0, [pc, #116]	; 52dc <do_tt_sn+0x224>
    5264:	e1a0e00f 	mov	lr, pc
    5268:	e596f000 	ldr	pc, [r6]
    526c:	e59f106c 	ldr	r1, [pc, #108]	; 52e0 <do_tt_sn+0x228>
    5270:	e1a02007 	mov	r2, r7
    5274:	e3a0300c 	mov	r3, #12	; 0xc
    5278:	e59f0064 	ldr	r0, [pc, #100]	; 52e4 <do_tt_sn+0x22c>
    527c:	ebfffcf5 	bl	4658 <tt_cmp_buffer>
    5280:	e59f0060 	ldr	r0, [pc, #96]	; 52e8 <do_tt_sn+0x230>
    5284:	e1a0e00f 	mov	lr, pc
    5288:	e596f000 	ldr	pc, [r6]
    528c:	eb003551 	bl	127d8 <tstc>
    5290:	e3500000 	cmp	r0, #0	; 0x0
    5294:	0affffb7 	beq	5178 <do_tt_sn+0xc0>
    5298:	eb00354f 	bl	127dc <getc>
    529c:	e3500003 	cmp	r0, #3	; 0x3
    52a0:	1affffb4 	bne	5178 <do_tt_sn+0xc0>
    52a4:	e3a00000 	mov	r0, #0	; 0x0
    52a8:	e28dd044 	add	sp, sp, #68	; 0x44
    52ac:	e8bd85f0 	pop	{r4, r5, r6, r7, r8, sl, pc}
    52b0:	000176e8 	.word	0x000176e8
    52b4:	3c00d6cc 	.word	0x3c00d6cc
    52b8:	00016283 	.word	0x00016283
    52bc:	000176f5 	.word	0x000176f5
    52c0:	00016f62 	.word	0x00016f62
    52c4:	00017416 	.word	0x00017416
    52c8:	0001769b 	.word	0x0001769b
    52cc:	00017438 	.word	0x00017438
    52d0:	af          	.byte	0xaf
    52d1:	76          	.byte	0x76
    52d2:	0001      	.short	0x0001
    52d4:	00017463 	.word	0x00017463
    52d8:	000176cc 	.word	0x000176cc
    52dc:	0001748d 	.word	0x0001748d
    52e0:	50008000 	.word	0x50008000
    52e4:	40008000 	.word	0x40008000
    52e8:	00016bef 	.word	0x00016bef

000052ec <tt_nand_trolling>:
    52ec:	e92d4ff0 	push	{r4, r5, r6, r7, r8, r9, sl, fp, lr}
    52f0:	e24dd034 	sub	sp, sp, #52	; 0x34
    52f4:	e58d000c 	str	r0, [sp, #12]
    52f8:	e1a06001 	mov	r6, r1
    52fc:	e3a00001 	mov	r0, #1	; 0x1
    5300:	e3a01064 	mov	r1, #100	; 0x64
    5304:	e1a09002 	mov	r9, r2
    5308:	ebfffd26 	bl	47a8 <tt_rnd_get_int>
    530c:	e3500032 	cmp	r0, #50	; 0x32
    5310:	c5991020 	ldrgt	r1, [r9, #32]
    5314:	c58d1010 	strgt	r1, [sp, #16]
    5318:	ca000003 	bgt	532c <tt_nand_trolling+0x40>
    531c:	e3a00001 	mov	r0, #1	; 0x1
    5320:	e5991020 	ldr	r1, [r9, #32]
    5324:	ebfffd1f 	bl	47a8 <tt_rnd_get_int>
    5328:	e58d0010 	str	r0, [sp, #16]
    532c:	e59d200c 	ldr	r2, [sp, #12]
    5330:	e5991014 	ldr	r1, [r9, #20]
    5334:	e3520002 	cmp	r2, #2	; 0x2
    5338:	05993010 	ldreq	r3, [r9, #16]
    533c:	059d2010 	ldreq	r2, [sp, #16]
    5340:	159d3010 	ldrne	r3, [sp, #16]
    5344:	00833001 	addeq	r3, r3, r1
    5348:	00010293 	muleq	r1, r3, r2
    534c:	10010391 	mulne	r1, r1, r3
    5350:	e28d002c 	add	r0, sp, #44	; 0x2c
    5354:	e1a02001 	mov	r2, r1
    5358:	ebfffd3b 	bl	484c <tt_rnd_get_data>
    535c:	e3500000 	cmp	r0, #0	; 0x0
    5360:	e58d0014 	str	r0, [sp, #20]
    5364:	1a000004 	bne	537c <tt_nand_trolling+0x90>
    5368:	e59f0330 	ldr	r0, [pc, #816]	; 56a0 <tt_nand_trolling+0x3b4>
    536c:	e59f3330 	ldr	r3, [pc, #816]	; 56a4 <tt_nand_trolling+0x3b8>
    5370:	e1a0e00f 	mov	lr, pc
    5374:	e593f000 	ldr	pc, [r3]
    5378:	ea000028 	b	5420 <tt_nand_trolling+0x134>
    537c:	e5991024 	ldr	r1, [r9, #36]
    5380:	e3a00000 	mov	r0, #0	; 0x0
    5384:	ebfffd07 	bl	47a8 <tt_rnd_get_int>
    5388:	e5995020 	ldr	r5, [r9, #32]
    538c:	e59d2010 	ldr	r2, [sp, #16]
    5390:	e1a04000 	mov	r4, r0
    5394:	e0621005 	rsb	r1, r2, r5
    5398:	e3a00000 	mov	r0, #0	; 0x0
    539c:	ebfffd01 	bl	47a8 <tt_rnd_get_int>
    53a0:	e59d300c 	ldr	r3, [sp, #12]
    53a4:	e0240495 	mla	r4, r5, r4, r0
    53a8:	e3530000 	cmp	r3, #0	; 0x0
    53ac:	05963014 	ldreq	r3, [r6, #20]
    53b0:	15993014 	ldrne	r3, [r9, #20]
    53b4:	e1a05fc4 	asr	r5, r4, #31
    53b8:	e0876394 	umull	r6, r7, r4, r3
    53bc:	e3a01000 	mov	r1, #0	; 0x0
    53c0:	e3a02010 	mov	r2, #16	; 0x10
    53c4:	e28d001c 	add	r0, sp, #28	; 0x1c
    53c8:	e0277593 	mla	r7, r3, r5, r7
    53cc:	ebfff058 	bl	1534 <memset>
    53d0:	e59f32d0 	ldr	r3, [pc, #720]	; 56a8 <tt_nand_trolling+0x3bc>
    53d4:	e59d200c 	ldr	r2, [sp, #12]
    53d8:	e58d301c 	str	r3, [sp, #28]
    53dc:	e59f32c8 	ldr	r3, [pc, #712]	; 56ac <tt_nand_trolling+0x3c0>
    53e0:	e28d1030 	add	r1, sp, #48	; 0x30
    53e4:	e58d3020 	str	r3, [sp, #32]
    53e8:	e59f32c0 	ldr	r3, [pc, #704]	; 56b0 <tt_nand_trolling+0x3c4>
    53ec:	e59f82b0 	ldr	r8, [pc, #688]	; 56a4 <tt_nand_trolling+0x3b8>
    53f0:	e58d3024 	str	r3, [sp, #36]
    53f4:	e0813102 	add	r3, r1, r2, lsl #2
    53f8:	e513b014 	ldr	fp, [r3, #-20]
    53fc:	e3a01001 	mov	r1, #1	; 0x1
    5400:	e1a0000b 	mov	r0, fp
    5404:	eb000452 	bl	6554 <vs_assign_by_name>
    5408:	e3500000 	cmp	r0, #0	; 0x0
    540c:	0a000005 	beq	5428 <tt_nand_trolling+0x13c>
    5410:	e1a0100b 	mov	r1, fp
    5414:	e59f0298 	ldr	r0, [pc, #664]	; 56b4 <tt_nand_trolling+0x3c8>
    5418:	e1a0e00f 	mov	lr, pc
    541c:	e598f000 	ldr	pc, [r8]
    5420:	e3e00000 	mvn	r0, #0	; 0x0
    5424:	ea00009b 	b	5698 <tt_nand_trolling+0x3ac>
    5428:	e59d2014 	ldr	r2, [sp, #20]
    542c:	e59d302c 	ldr	r3, [sp, #44]
    5430:	e59f0280 	ldr	r0, [pc, #640]	; 56b8 <tt_nand_trolling+0x3cc>
    5434:	e1a0100b 	mov	r1, fp
    5438:	e88d00c0 	stm	sp, {r6, r7}
    543c:	e1a0e00f 	mov	lr, pc
    5440:	e598f000 	ldr	pc, [r8]
    5444:	e1a00006 	mov	r0, r6
    5448:	e1a01007 	mov	r1, r7
    544c:	eb0002a1 	bl	5ed8 <vs_isbad>
    5450:	e250a000 	subs	sl, r0, #0	; 0x0
    5454:	0a000004 	beq	546c <tt_nand_trolling+0x180>
    5458:	e59f025c 	ldr	r0, [pc, #604]	; 56bc <tt_nand_trolling+0x3d0>
    545c:	e1a0e00f 	mov	lr, pc
    5460:	e598f000 	ldr	pc, [r8]
    5464:	e3e0000a 	mvn	r0, #10	; 0xa
    5468:	ea00008a 	b	5698 <tt_nand_trolling+0x3ac>
    546c:	e1a01007 	mov	r1, r7
    5470:	e59d202c 	ldr	r2, [sp, #44]
    5474:	e1a00006 	mov	r0, r6
    5478:	eb000287 	bl	5e9c <vs_erase>
    547c:	e1a0000a 	mov	r0, sl
    5480:	eb002179 	bl	da6c <get_timer>
    5484:	e59d102c 	ldr	r1, [sp, #44]
    5488:	e1a02006 	mov	r2, r6
    548c:	e1a03007 	mov	r3, r7
    5490:	e1a04000 	mov	r4, r0
    5494:	e59d0014 	ldr	r0, [sp, #20]
    5498:	e88d0402 	stm	sp, {r1, sl}
    549c:	eb000268 	bl	5e44 <vs_write>
    54a0:	e1a00004 	mov	r0, r4
    54a4:	eb002170 	bl	da6c <get_timer>
    54a8:	e1a01000 	mov	r1, r0
    54ac:	e59d002c 	ldr	r0, [sp, #44]
    54b0:	e3a05ffa 	mov	r5, #1000	; 0x3e8
    54b4:	e1a00540 	asr	r0, r0, #10
    54b8:	e0000095 	mul	r0, r5, r0
    54bc:	eb003cb2 	bl	1478c <__aeabi_uidiv>
    54c0:	e58d0008 	str	r0, [sp, #8]
    54c4:	e1a0000a 	mov	r0, sl
    54c8:	eb002167 	bl	da6c <get_timer>
    54cc:	e59d102c 	ldr	r1, [sp, #44]
    54d0:	e1a02006 	mov	r2, r6
    54d4:	e1a03007 	mov	r3, r7
    54d8:	e1a04000 	mov	r4, r0
    54dc:	e3a0048e 	mov	r0, #-1912602624	; 0x8e000000
    54e0:	e88d0402 	stm	sp, {r1, sl}
    54e4:	eb000356 	bl	6244 <vs_read>
    54e8:	e1a00004 	mov	r0, r4
    54ec:	eb00215e 	bl	da6c <get_timer>
    54f0:	e59d402c 	ldr	r4, [sp, #44]
    54f4:	e1a01000 	mov	r1, r0
    54f8:	e1a00544 	asr	r0, r4, #10
    54fc:	e0000095 	mul	r0, r5, r0
    5500:	eb003ca1 	bl	1478c <__aeabi_uidiv>
    5504:	e1a02004 	mov	r2, r4
    5508:	e1a05000 	mov	r5, r0
    550c:	e3a0148e 	mov	r1, #-1912602624	; 0x8e000000
    5510:	e59d0014 	ldr	r0, [sp, #20]
    5514:	e3a0300c 	mov	r3, #12	; 0xc
    5518:	ebfffc4e 	bl	4658 <tt_cmp_buffer>
    551c:	e3500000 	cmp	r0, #0	; 0x0
    5520:	0a000007 	beq	5544 <tt_nand_trolling+0x258>
    5524:	e58d0000 	str	r0, [sp]
    5528:	e1a0100b 	mov	r1, fp
    552c:	e59d2008 	ldr	r2, [sp, #8]
    5530:	e1a03005 	mov	r3, r5
    5534:	e59f0184 	ldr	r0, [pc, #388]	; 56c0 <tt_nand_trolling+0x3d4>
    5538:	e1a0e00f 	mov	lr, pc
    553c:	e598f000 	ldr	pc, [r8]
    5540:	ea000005 	b	555c <tt_nand_trolling+0x270>
    5544:	e1a0100b 	mov	r1, fp
    5548:	e59d2008 	ldr	r2, [sp, #8]
    554c:	e1a03005 	mov	r3, r5
    5550:	e59f016c 	ldr	r0, [pc, #364]	; 56c4 <tt_nand_trolling+0x3d8>
    5554:	e1a0e00f 	mov	lr, pc
    5558:	e598f000 	ldr	pc, [r8]
    555c:	e59d102c 	ldr	r1, [sp, #44]
    5560:	e59f0160 	ldr	r0, [pc, #352]	; 56c8 <tt_nand_trolling+0x3dc>
    5564:	e890000c 	ldm	r0, {r2, r3}
    5568:	e0922001 	adds	r2, r2, r1
    556c:	e0a33fc1 	adc	r3, r3, r1, asr #31
    5570:	e59d100c 	ldr	r1, [sp, #12]
    5574:	e880000c 	stm	r0, {r2, r3}
    5578:	e3510000 	cmp	r1, #0	; 0x0
    557c:	0a000040 	beq	5684 <tt_nand_trolling+0x398>
    5580:	e2618003 	rsb	r8, r1, #3	; 0x3
    5584:	e28d2030 	add	r2, sp, #48	; 0x30
    5588:	e0823108 	add	r3, r2, r8, lsl #2
    558c:	e513a014 	ldr	sl, [r3, #-20]
    5590:	e3a01001 	mov	r1, #1	; 0x1
    5594:	e1a0000a 	mov	r0, sl
    5598:	eb0003ed 	bl	6554 <vs_assign_by_name>
    559c:	e3500000 	cmp	r0, #0	; 0x0
    55a0:	0a000005 	beq	55bc <tt_nand_trolling+0x2d0>
    55a4:	e1a0100a 	mov	r1, sl
    55a8:	e59f0104 	ldr	r0, [pc, #260]	; 56b4 <tt_nand_trolling+0x3c8>
    55ac:	e59f30f0 	ldr	r3, [pc, #240]	; 56a4 <tt_nand_trolling+0x3b8>
    55b0:	e1a0e00f 	mov	lr, pc
    55b4:	e593f000 	ldr	pc, [r3]
    55b8:	eaffff98 	b	5420 <tt_nand_trolling+0x134>
    55bc:	e3580001 	cmp	r8, #1	; 0x1
    55c0:	15990010 	ldrne	r0, [r9, #16]
    55c4:	e5993014 	ldr	r3, [r9, #20]
    55c8:	e59d1010 	ldr	r1, [sp, #16]
    55cc:	e0803003 	add	r3, r0, r3
    55d0:	e0030391 	mul	r3, r1, r3
    55d4:	e3a00000 	mov	r0, #0	; 0x0
    55d8:	e58d302c 	str	r3, [sp, #44]
    55dc:	eb002122 	bl	da6c <get_timer>
    55e0:	e59d102c 	ldr	r1, [sp, #44]
    55e4:	e1a02006 	mov	r2, r6
    55e8:	e1a04000 	mov	r4, r0
    55ec:	e1a03007 	mov	r3, r7
    55f0:	e58d1000 	str	r1, [sp]
    55f4:	e3a0048e 	mov	r0, #-1912602624	; 0x8e000000
    55f8:	e3a01000 	mov	r1, #0	; 0x0
    55fc:	e58d1004 	str	r1, [sp, #4]
    5600:	eb00030f 	bl	6244 <vs_read>
    5604:	e1a00004 	mov	r0, r4
    5608:	eb002117 	bl	da6c <get_timer>
    560c:	e59d402c 	ldr	r4, [sp, #44]
    5610:	e1a01000 	mov	r1, r0
    5614:	e1a03544 	asr	r3, r4, #10
    5618:	e3a00ffa 	mov	r0, #1000	; 0x3e8
    561c:	e0000390 	mul	r0, r0, r3
    5620:	eb003c59 	bl	1478c <__aeabi_uidiv>
    5624:	e3580002 	cmp	r8, #2	; 0x2
    5628:	13a03000 	movne	r3, #0	; 0x0
    562c:	03a03001 	moveq	r3, #1	; 0x1
    5630:	e1a05000 	mov	r5, r0
    5634:	e1a02004 	mov	r2, r4
    5638:	e59d0014 	ldr	r0, [sp, #20]
    563c:	e3a0148e 	mov	r1, #-1912602624	; 0x8e000000
    5640:	e58d9000 	str	r9, [sp]
    5644:	ebfffdfa 	bl	4e34 <tt_nand_cross_cmp>
    5648:	e3500000 	cmp	r0, #0	; 0x0
    564c:	e59f8050 	ldr	r8, [pc, #80]	; 56a4 <tt_nand_trolling+0x3b8>
    5650:	0a000006 	beq	5670 <tt_nand_trolling+0x384>
    5654:	e1a03000 	mov	r3, r0
    5658:	e1a0100a 	mov	r1, sl
    565c:	e1a02005 	mov	r2, r5
    5660:	e59f0064 	ldr	r0, [pc, #100]	; 56cc <tt_nand_trolling+0x3e0>
    5664:	e1a0e00f 	mov	lr, pc
    5668:	e598f000 	ldr	pc, [r8]
    566c:	ea000004 	b	5684 <tt_nand_trolling+0x398>
    5670:	e1a0100a 	mov	r1, sl
    5674:	e1a02005 	mov	r2, r5
    5678:	e59f0050 	ldr	r0, [pc, #80]	; 56d0 <tt_nand_trolling+0x3e4>
    567c:	e1a0e00f 	mov	lr, pc
    5680:	e598f000 	ldr	pc, [r8]
    5684:	e59f0048 	ldr	r0, [pc, #72]	; 56d4 <tt_nand_trolling+0x3e8>
    5688:	e59f3014 	ldr	r3, [pc, #20]	; 56a4 <tt_nand_trolling+0x3b8>
    568c:	e1a0e00f 	mov	lr, pc
    5690:	e593f000 	ldr	pc, [r3]
    5694:	e3a00000 	mov	r0, #0	; 0x0
    5698:	e28dd034 	add	sp, sp, #52	; 0x34
    569c:	e8bd8ff0 	pop	{r4, r5, r6, r7, r8, r9, sl, fp, pc}
    56a0:	00017713 	.word	0x00017713
    56a4:	3c00d6cc 	.word	0x3c00d6cc
    56a8:	00016127 	.word	0x00016127
    56ac:	0001627f 	.word	0x0001627f
    56b0:	00016283 	.word	0x00016283
    56b4:	00017732 	.word	0x00017732
    56b8:	0001774f 	.word	0x0001774f
    56bc:	0001777f 	.word	0x0001777f
    56c0:	000177a7 	.word	0x000177a7
    56c4:	000177e0 	.word	0x000177e0
    56c8:	3c00d158 	.word	0x3c00d158
    56cc:	0001780c 	.word	0x0001780c
    56d0:	00017839 	.word	0x00017839
    56d4:	00016bef 	.word	0x00016bef

000056d8 <do_tt_ndloop>:
    56d8:	e92d40f0 	push	{r4, r5, r6, r7, lr}
    56dc:	e3a00001 	mov	r0, #1	; 0x1
    56e0:	e24dd004 	sub	sp, sp, #4	; 0x4
    56e4:	eb001212 	bl	9f34 <nand_get_config>
    56e8:	e2505000 	subs	r5, r0, #0	; 0x0
    56ec:	1a000005 	bne	5708 <do_tt_ndloop+0x30>
    56f0:	e59f00d0 	ldr	r0, [pc, #208]	; 57c8 <do_tt_ndloop+0xf0>
    56f4:	e59f30d0 	ldr	r3, [pc, #208]	; 57cc <do_tt_ndloop+0xf4>
    56f8:	e1a0e00f 	mov	lr, pc
    56fc:	e593f000 	ldr	pc, [r3]
    5700:	e3e00001 	mvn	r0, #1	; 0x1
    5704:	ea00002d 	b	57c0 <do_tt_ndloop+0xe8>
    5708:	e3a00000 	mov	r0, #0	; 0x0
    570c:	eb0020d6 	bl	da6c <get_timer>
    5710:	e59f10b8 	ldr	r1, [pc, #184]	; 57d0 <do_tt_ndloop+0xf8>
    5714:	e3a02000 	mov	r2, #0	; 0x0
    5718:	e3a03000 	mov	r3, #0	; 0x0
    571c:	e881000c 	stm	r1, {r2, r3}
    5720:	e59f70a4 	ldr	r7, [pc, #164]	; 57cc <do_tt_ndloop+0xf4>
    5724:	e1a06000 	mov	r6, r0
    5728:	e3a04000 	mov	r4, #0	; 0x0
    572c:	e1a01004 	mov	r1, r4
    5730:	e59f009c 	ldr	r0, [pc, #156]	; 57d4 <do_tt_ndloop+0xfc>
    5734:	e1a0e00f 	mov	lr, pc
    5738:	e597f000 	ldr	pc, [r7]
    573c:	e3a01000 	mov	r1, #0	; 0x0
    5740:	e1a02005 	mov	r2, r5
    5744:	e3a00001 	mov	r0, #1	; 0x1
    5748:	ebfffee7 	bl	52ec <tt_nand_trolling>
    574c:	e3500000 	cmp	r0, #0	; 0x0
    5750:	e2844001 	add	r4, r4, #1	; 0x1
    5754:	1a000003 	bne	5768 <do_tt_ndloop+0x90>
    5758:	e1a01000 	mov	r1, r0
    575c:	e1a02005 	mov	r2, r5
    5760:	e3a00002 	mov	r0, #2	; 0x2
    5764:	ebfffee0 	bl	52ec <tt_nand_trolling>
    5768:	eb00341a 	bl	127d8 <tstc>
    576c:	e3500000 	cmp	r0, #0	; 0x0
    5770:	0affffed 	beq	572c <do_tt_ndloop+0x54>
    5774:	eb003418 	bl	127dc <getc>
    5778:	e3500003 	cmp	r0, #3	; 0x3
    577c:	1affffea 	bne	572c <do_tt_ndloop+0x54>
    5780:	e1a00006 	mov	r0, r6
    5784:	eb0020b8 	bl	da6c <get_timer>
    5788:	e59f3040 	ldr	r3, [pc, #64]	; 57d0 <do_tt_ndloop+0xf8>
    578c:	e30e1a60 	movw	r1, #60000	; 0xea60
    5790:	e5934000 	ldr	r4, [r3]
    5794:	e5933004 	ldr	r3, [r3, #4]
    5798:	e1a04a24 	lsr	r4, r4, #20
    579c:	e1844603 	orr	r4, r4, r3, lsl #12
    57a0:	eb003c7b 	bl	14994 <__aeabi_idiv>
    57a4:	e1a01004 	mov	r1, r4
    57a8:	e1a02000 	mov	r2, r0
    57ac:	e59f3018 	ldr	r3, [pc, #24]	; 57cc <do_tt_ndloop+0xf4>
    57b0:	e59f0020 	ldr	r0, [pc, #32]	; 57d8 <do_tt_ndloop+0x100>
    57b4:	e1a0e00f 	mov	lr, pc
    57b8:	e593f000 	ldr	pc, [r3]
    57bc:	e3a00000 	mov	r0, #0	; 0x0
    57c0:	e28dd004 	add	sp, sp, #4	; 0x4
    57c4:	e8bd80f0 	pop	{r4, r5, r6, r7, pc}
    57c8:	00017859 	.word	0x00017859
    57cc:	3c00d6cc 	.word	0x3c00d6cc
    57d0:	3c00d158 	.word	0x3c00d158
    57d4:	00016f62 	.word	0x00016f62
    57d8:	00016f6c 	.word	0x00016f6c

000057dc <do_tt_nand>:
    57dc:	e3520001 	cmp	r2, #1	; 0x1
    57e0:	e92d47f0 	push	{r4, r5, r6, r7, r8, r9, sl, lr}
    57e4:	e1a08002 	mov	r8, r2
    57e8:	e1a0a003 	mov	sl, r3
    57ec:	c59f90dc 	ldrgt	r9, [pc, #220]	; 58d0 <do_tt_nand+0xf4>
    57f0:	c3a06001 	movgt	r6, #1	; 0x1
    57f4:	ca000005 	bgt	5810 <do_tt_nand+0x34>
    57f8:	e59f00d4 	ldr	r0, [pc, #212]	; 58d4 <do_tt_nand+0xf8>
    57fc:	e59f30cc 	ldr	r3, [pc, #204]	; 58d0 <do_tt_nand+0xf4>
    5800:	e1a0e00f 	mov	lr, pc
    5804:	e593f000 	ldr	pc, [r3]
    5808:	e3e00000 	mvn	r0, #0	; 0x0
    580c:	e8bd87f0 	pop	{r4, r5, r6, r7, r8, r9, sl, pc}
    5810:	e3a01000 	mov	r1, #0	; 0x0
    5814:	e3a0200a 	mov	r2, #10	; 0xa
    5818:	e79a0106 	ldr	r0, [sl, r6, lsl #2]
    581c:	eb002fd6 	bl	1177c <simple_strtoul>
    5820:	e1a07000 	mov	r7, r0
    5824:	ebffeb6c 	bl	5dc <set_xom>
    5828:	e3a00000 	mov	r0, #0	; 0x0
    582c:	eb0017c3 	bl	b740 <nand_rescan_config>
    5830:	e3a00000 	mov	r0, #0	; 0x0
    5834:	eb0011be 	bl	9f34 <nand_get_config>
    5838:	e1a05000 	mov	r5, r0
    583c:	e3a00001 	mov	r0, #1	; 0x1
    5840:	eb0011bb 	bl	9f34 <nand_get_config>
    5844:	e3500000 	cmp	r0, #0	; 0x0
    5848:	13550000 	cmpne	r5, #0	; 0x0
    584c:	e1a04000 	mov	r4, r0
    5850:	1a000005 	bne	586c <do_tt_nand+0x90>
    5854:	e59f007c 	ldr	r0, [pc, #124]	; 58d8 <do_tt_nand+0xfc>
    5858:	e59f3070 	ldr	r3, [pc, #112]	; 58d0 <do_tt_nand+0xf4>
    585c:	e1a0e00f 	mov	lr, pc
    5860:	e593f000 	ldr	pc, [r3]
    5864:	e3e00001 	mvn	r0, #1	; 0x1
    5868:	e8bd87f0 	pop	{r4, r5, r6, r7, r8, r9, sl, pc}
    586c:	e1a01007 	mov	r1, r7
    5870:	e59f0064 	ldr	r0, [pc, #100]	; 58dc <do_tt_nand+0x100>
    5874:	e1a0e00f 	mov	lr, pc
    5878:	e599f000 	ldr	pc, [r9]
    587c:	e3a00000 	mov	r0, #0	; 0x0
    5880:	e1a01005 	mov	r1, r5
    5884:	e1a02004 	mov	r2, r4
    5888:	ebfffe97 	bl	52ec <tt_nand_trolling>
    588c:	e370000b 	cmn	r0, #11	; 0xb
    5890:	0afffff9 	beq	587c <do_tt_nand+0xa0>
    5894:	e3a00001 	mov	r0, #1	; 0x1
    5898:	e1a01005 	mov	r1, r5
    589c:	e1a02004 	mov	r2, r4
    58a0:	ebfffe91 	bl	52ec <tt_nand_trolling>
    58a4:	e370000b 	cmn	r0, #11	; 0xb
    58a8:	0afffff9 	beq	5894 <do_tt_nand+0xb8>
    58ac:	e1a01005 	mov	r1, r5
    58b0:	e1a02004 	mov	r2, r4
    58b4:	e2866001 	add	r6, r6, #1	; 0x1
    58b8:	e3a00002 	mov	r0, #2	; 0x2
    58bc:	ebfffe8a 	bl	52ec <tt_nand_trolling>
    58c0:	e1560008 	cmp	r6, r8
    58c4:	baffffd1 	blt	5810 <do_tt_nand+0x34>
    58c8:	e3a00000 	mov	r0, #0	; 0x0
    58cc:	e8bd87f0 	pop	{r4, r5, r6, r7, r8, r9, sl, pc}
    58d0:	3c00d6cc 	.word	0x3c00d6cc
    58d4:	0001788b 	.word	0x0001788b
    58d8:	00017859 	.word	0x00017859
    58dc:	000178c1 	.word	0x000178c1

000058e0 <tt_wire_get_opt>:
    58e0:	e5900008 	ldr	r0, [r0, #8]
    58e4:	e12fff1e 	bx	lr

000058e8 <tt_wire_get_len>:
    58e8:	e590000c 	ldr	r0, [r0, #12]
    58ec:	e12fff1e 	bx	lr

000058f0 <tt_wire_make_data>:
    58f0:	e92d40f0 	push	{r4, r5, r6, r7, lr}
    58f4:	e24dd004 	sub	sp, sp, #4	; 0x4
    58f8:	e1a04000 	mov	r4, r0
    58fc:	e1a07002 	mov	r7, r2
    5900:	e1a06003 	mov	r6, r3
    5904:	ebffef12 	bl	1554 <memcpy>
    5908:	e59f3040 	ldr	r3, [pc, #64]	; 5950 <tt_wire_make_data+0x60>
    590c:	e5846008 	str	r6, [r4, #8]
    5910:	e5843000 	str	r3, [r4]
    5914:	e59d3018 	ldr	r3, [sp, #24]
    5918:	e3a05000 	mov	r5, #0	; 0x0
    591c:	e584300c 	str	r3, [r4, #12]
    5920:	e1a01007 	mov	r1, r7
    5924:	e5845004 	str	r5, [r4, #4]
    5928:	e1a00005 	mov	r0, r5
    592c:	eb000469 	bl	6ad8 <hash_init>
    5930:	e1a01007 	mov	r1, r7
    5934:	e1a00004 	mov	r0, r4
    5938:	eb000441 	bl	6a44 <hash_data>
    593c:	e2840004 	add	r0, r4, #4	; 0x4
    5940:	eb000423 	bl	69d4 <hash_value>
    5944:	e1a00005 	mov	r0, r5
    5948:	e28dd004 	add	sp, sp, #4	; 0x4
    594c:	e8bd80f0 	pop	{r4, r5, r6, r7, pc}
    5950:	7766dd80 	.word	0x7766dd80

00005954 <tt_wire_check_valid>:
    5954:	e92d40f0 	push	{r4, r5, r6, r7, lr}
    5958:	e5903000 	ldr	r3, [r0]
    595c:	e59f2084 	ldr	r2, [pc, #132]	; 59e8 <tt_wire_check_valid+0x94>
    5960:	e24dd00c 	sub	sp, sp, #12	; 0xc
    5964:	e1530002 	cmp	r3, r2
    5968:	e1a04000 	mov	r4, r0
    596c:	e1a06001 	mov	r6, r1
    5970:	e5907004 	ldr	r7, [r0, #4]
    5974:	0a000006 	beq	5994 <tt_wire_check_valid+0x40>
    5978:	e1a01003 	mov	r1, r3
    597c:	e59f0068 	ldr	r0, [pc, #104]	; 59ec <tt_wire_check_valid+0x98>
    5980:	e59f3068 	ldr	r3, [pc, #104]	; 59f0 <tt_wire_check_valid+0x9c>
    5984:	e1a0e00f 	mov	lr, pc
    5988:	e593f000 	ldr	pc, [r3]
    598c:	e3a00000 	mov	r0, #0	; 0x0
    5990:	ea000012 	b	59e0 <tt_wire_check_valid+0x8c>
    5994:	e3a05000 	mov	r5, #0	; 0x0
    5998:	e5805004 	str	r5, [r0, #4]
    599c:	e1a00005 	mov	r0, r5
    59a0:	eb00044c 	bl	6ad8 <hash_init>
    59a4:	e1a01006 	mov	r1, r6
    59a8:	e1a00004 	mov	r0, r4
    59ac:	eb000424 	bl	6a44 <hash_data>
    59b0:	e28d0004 	add	r0, sp, #4	; 0x4
    59b4:	eb000406 	bl	69d4 <hash_value>
    59b8:	e59d1004 	ldr	r1, [sp, #4]
    59bc:	e1510007 	cmp	r1, r7
    59c0:	03a00001 	moveq	r0, #1	; 0x1
    59c4:	0a000005 	beq	59e0 <tt_wire_check_valid+0x8c>
    59c8:	e59f0024 	ldr	r0, [pc, #36]	; 59f4 <tt_wire_check_valid+0xa0>
    59cc:	e1a02007 	mov	r2, r7
    59d0:	e59f3018 	ldr	r3, [pc, #24]	; 59f0 <tt_wire_check_valid+0x9c>
    59d4:	e1a0e00f 	mov	lr, pc
    59d8:	e593f000 	ldr	pc, [r3]
    59dc:	e1a00005 	mov	r0, r5
    59e0:	e28dd00c 	add	sp, sp, #12	; 0xc
    59e4:	e8bd80f0 	pop	{r4, r5, r6, r7, pc}
    59e8:	7766dd80 	.word	0x7766dd80
    59ec:	0001793b 	.word	0x0001793b
    59f0:	3c00d6cc 	.word	0x3c00d6cc
    59f4:	00017964 	.word	0x00017964

000059f8 <do_tt_wire>:
    59f8:	e92d4ff0 	push	{r4, r5, r6, r7, r8, r9, sl, fp, lr}
    59fc:	e3520001 	cmp	r2, #1	; 0x1
    5a00:	e24dd01c 	sub	sp, sp, #28	; 0x1c
    5a04:	e1a04003 	mov	r4, r3
    5a08:	d59f032c 	ldrle	r0, [pc, #812]	; 5d3c <do_tt_wire+0x344>
    5a0c:	da00002b 	ble	5ac0 <do_tt_wire+0xc8>
    5a10:	e3a02003 	mov	r2, #3	; 0x3
    5a14:	e5930004 	ldr	r0, [r3, #4]
    5a18:	e59f1320 	ldr	r1, [pc, #800]	; 5d40 <do_tt_wire+0x348>
    5a1c:	ebffee93 	bl	1470 <strncmp>
    5a20:	e3500000 	cmp	r0, #0	; 0x0
    5a24:	059f2318 	ldreq	r2, [pc, #792]	; 5d44 <do_tt_wire+0x34c>
    5a28:	0a000006 	beq	5a48 <do_tt_wire+0x50>
    5a2c:	e5940004 	ldr	r0, [r4, #4]
    5a30:	e59f1310 	ldr	r1, [pc, #784]	; 5d48 <do_tt_wire+0x350>
    5a34:	e3a02003 	mov	r2, #3	; 0x3
    5a38:	ebffee8c 	bl	1470 <strncmp>
    5a3c:	e3500000 	cmp	r0, #0	; 0x0
    5a40:	1a000009 	bne	5a6c <do_tt_wire+0x74>
    5a44:	e59f2300 	ldr	r2, [pc, #768]	; 5d4c <do_tt_wire+0x354>
    5a48:	e59f3300 	ldr	r3, [pc, #768]	; 5d50 <do_tt_wire+0x358>
    5a4c:	e3a00000 	mov	r0, #0	; 0x0
    5a50:	e5832000 	str	r2, [r3]
    5a54:	eb002004 	bl	da6c <get_timer>
    5a58:	e59f82f4 	ldr	r8, [pc, #756]	; 5d54 <do_tt_wire+0x35c>
    5a5c:	e59f92ec 	ldr	r9, [pc, #748]	; 5d50 <do_tt_wire+0x358>
    5a60:	e1a0a008 	mov	sl, r8
    5a64:	e58d000c 	str	r0, [sp, #12]
    5a68:	ea000006 	b	5a88 <do_tt_wire+0x90>
    5a6c:	e5941004 	ldr	r1, [r4, #4]
    5a70:	e59f02e0 	ldr	r0, [pc, #736]	; 5d58 <do_tt_wire+0x360>
    5a74:	e59f32d8 	ldr	r3, [pc, #728]	; 5d54 <do_tt_wire+0x35c>
    5a78:	e1a0e00f 	mov	lr, pc
    5a7c:	e593f000 	ldr	pc, [r3]
    5a80:	e3e00000 	mvn	r0, #0	; 0x0
    5a84:	ea0000aa 	b	5d34 <do_tt_wire+0x33c>
    5a88:	e59f02cc 	ldr	r0, [pc, #716]	; 5d5c <do_tt_wire+0x364>
    5a8c:	eb001fd2 	bl	d9dc <udelay>
    5a90:	e59f02c8 	ldr	r0, [pc, #712]	; 5d60 <do_tt_wire+0x368>
    5a94:	e1a0e00f 	mov	lr, pc
    5a98:	e598f000 	ldr	pc, [r8]
    5a9c:	e5993000 	ldr	r3, [r9]
    5aa0:	e1a0e00f 	mov	lr, pc
    5aa4:	e593f000 	ldr	pc, [r3]
    5aa8:	e3500000 	cmp	r0, #0	; 0x0
    5aac:	a3a07000 	movge	r7, #0	; 0x0
    5ab0:	a3a06020 	movge	r6, #32	; 0x20
    5ab4:	a59fb2a8 	ldrge	fp, [pc, #680]	; 5d64 <do_tt_wire+0x36c>
    5ab8:	aa000004 	bge	5ad0 <do_tt_wire+0xd8>
    5abc:	e59f02a4 	ldr	r0, [pc, #676]	; 5d68 <do_tt_wire+0x370>
    5ac0:	e59f328c 	ldr	r3, [pc, #652]	; 5d54 <do_tt_wire+0x35c>
    5ac4:	e1a0e00f 	mov	lr, pc
    5ac8:	e593f000 	ldr	pc, [r3]
    5acc:	eaffffeb 	b	5a80 <do_tt_wire+0x88>
    5ad0:	e3570000 	cmp	r7, #0	; 0x0
    5ad4:	e1a01006 	mov	r1, r6
    5ad8:	e59f028c 	ldr	r0, [pc, #652]	; 5d6c <do_tt_wire+0x374>
    5adc:	1a00002f 	bne	5ba0 <do_tt_wire+0x1a8>
    5ae0:	e59f0288 	ldr	r0, [pc, #648]	; 5d70 <do_tt_wire+0x378>
    5ae4:	e1a0e00f 	mov	lr, pc
    5ae8:	e598f000 	ldr	pc, [r8]
    5aec:	e1a00007 	mov	r0, r7
    5af0:	eb001fdd 	bl	da6c <get_timer>
    5af4:	e1a01006 	mov	r1, r6
    5af8:	e1a04000 	mov	r4, r0
    5afc:	e5993000 	ldr	r3, [r9]
    5b00:	e3a0048e 	mov	r0, #-1912602624	; 0x8e000000
    5b04:	e1a0e00f 	mov	lr, pc
    5b08:	e593f004 	ldr	pc, [r3, #4]
    5b0c:	e1a05000 	mov	r5, r0
    5b10:	e1a00004 	mov	r0, r4
    5b14:	eb001fd4 	bl	da6c <get_timer>
    5b18:	e3550000 	cmp	r5, #0	; 0x0
    5b1c:	e1a04000 	mov	r4, r0
    5b20:	e1a01006 	mov	r1, r6
    5b24:	e3a0048e 	mov	r0, #-1912602624	; 0x8e000000
    5b28:	ba00003d 	blt	5c24 <do_tt_wire+0x22c>
    5b2c:	ebffff88 	bl	5954 <tt_wire_check_valid>
    5b30:	e3500000 	cmp	r0, #0	; 0x0
    5b34:	e1a01004 	mov	r1, r4
    5b38:	e1a03546 	asr	r3, r6, #10
    5b3c:	1a000007 	bne	5b60 <do_tt_wire+0x168>
    5b40:	e2800ffa 	add	r0, r0, #1000	; 0x3e8
    5b44:	e0000390 	mul	r0, r0, r3
    5b48:	eb003b91 	bl	14994 <__aeabi_idiv>
    5b4c:	e1a01000 	mov	r1, r0
    5b50:	e59f021c 	ldr	r0, [pc, #540]	; 5d74 <do_tt_wire+0x37c>
    5b54:	e1a0e00f 	mov	lr, pc
    5b58:	e59af000 	ldr	pc, [sl]
    5b5c:	eaffffc9 	b	5a88 <do_tt_wire+0x90>
    5b60:	e59fc210 	ldr	ip, [pc, #528]	; 5d78 <do_tt_wire+0x380>
    5b64:	e3a02ffa 	mov	r2, #1000	; 0x3e8
    5b68:	e0000392 	mul	r0, r2, r3
    5b6c:	e89c000c 	ldm	ip, {r2, r3}
    5b70:	e0922006 	adds	r2, r2, r6
    5b74:	e0a33fc6 	adc	r3, r3, r6, asr #31
    5b78:	e88c000c 	stm	ip, {r2, r3}
    5b7c:	eb003b84 	bl	14994 <__aeabi_idiv>
    5b80:	e1a01000 	mov	r1, r0
    5b84:	e59f01f0 	ldr	r0, [pc, #496]	; 5d7c <do_tt_wire+0x384>
    5b88:	e1a0e00f 	mov	lr, pc
    5b8c:	e598f000 	ldr	pc, [r8]
    5b90:	e3a0348e 	mov	r3, #-1912602624	; 0x8e000000
    5b94:	e5937008 	ldr	r7, [r3, #8]
    5b98:	e593600c 	ldr	r6, [r3, #12]
    5b9c:	ea000044 	b	5cb4 <do_tt_wire+0x2bc>
    5ba0:	e3570001 	cmp	r7, #1	; 0x1
    5ba4:	1a000030 	bne	5c6c <do_tt_wire+0x274>
    5ba8:	e1a0e00f 	mov	lr, pc
    5bac:	e598f000 	ldr	pc, [r8]
    5bb0:	e1a01007 	mov	r1, r7
    5bb4:	e3a00000 	mov	r0, #0	; 0x0
    5bb8:	ebfffafa 	bl	47a8 <tt_rnd_get_int>
    5bbc:	e3a01020 	mov	r1, #32	; 0x20
    5bc0:	e1a07000 	mov	r7, r0
    5bc4:	e3a02502 	mov	r2, #8388608	; 0x800000
    5bc8:	e28d0014 	add	r0, sp, #20	; 0x14
    5bcc:	ebfffb1e 	bl	484c <tt_rnd_get_data>
    5bd0:	e59dc014 	ldr	ip, [sp, #20]
    5bd4:	e1a01000 	mov	r1, r0
    5bd8:	e1a02006 	mov	r2, r6
    5bdc:	e1a03007 	mov	r3, r7
    5be0:	e3a0048e 	mov	r0, #-1912602624	; 0x8e000000
    5be4:	e58dc000 	str	ip, [sp]
    5be8:	ebffff40 	bl	58f0 <tt_wire_make_data>
    5bec:	e3a00000 	mov	r0, #0	; 0x0
    5bf0:	eb001f9d 	bl	da6c <get_timer>
    5bf4:	e1a01006 	mov	r1, r6
    5bf8:	e1a05000 	mov	r5, r0
    5bfc:	e5993000 	ldr	r3, [r9]
    5c00:	e3a0048e 	mov	r0, #-1912602624	; 0x8e000000
    5c04:	e1a0e00f 	mov	lr, pc
    5c08:	e593f008 	ldr	pc, [r3, #8]
    5c0c:	e1a04000 	mov	r4, r0
    5c10:	e1a00005 	mov	r0, r5
    5c14:	eb001f94 	bl	da6c <get_timer>
    5c18:	e3540000 	cmp	r4, #0	; 0x0
    5c1c:	e1a01000 	mov	r1, r0
    5c20:	aa000003 	bge	5c34 <do_tt_wire+0x23c>
    5c24:	e59f0154 	ldr	r0, [pc, #340]	; 5d80 <do_tt_wire+0x388>
    5c28:	e1a0e00f 	mov	lr, pc
    5c2c:	e59af000 	ldr	pc, [sl]
    5c30:	eaffff94 	b	5a88 <do_tt_wire+0x90>
    5c34:	e89b000c 	ldm	fp, {r2, r3}
    5c38:	e0922006 	adds	r2, r2, r6
    5c3c:	e0a33fc6 	adc	r3, r3, r6, asr #31
    5c40:	e59d6014 	ldr	r6, [sp, #20]
    5c44:	e88b000c 	stm	fp, {r2, r3}
    5c48:	e1a00546 	asr	r0, r6, #10
    5c4c:	e3a02ffa 	mov	r2, #1000	; 0x3e8
    5c50:	e0000092 	mul	r0, r2, r0
    5c54:	eb003b4e 	bl	14994 <__aeabi_idiv>
    5c58:	e1a01000 	mov	r1, r0
    5c5c:	e59f0120 	ldr	r0, [pc, #288]	; 5d84 <do_tt_wire+0x38c>
    5c60:	e1a0e00f 	mov	lr, pc
    5c64:	e598f000 	ldr	pc, [r8]
    5c68:	ea000011 	b	5cb4 <do_tt_wire+0x2bc>
    5c6c:	e3570003 	cmp	r7, #3	; 0x3
    5c70:	1a000004 	bne	5c88 <do_tt_wire+0x290>
    5c74:	e59f010c 	ldr	r0, [pc, #268]	; 5d88 <do_tt_wire+0x390>
    5c78:	e59f30d4 	ldr	r3, [pc, #212]	; 5d54 <do_tt_wire+0x35c>
    5c7c:	e1a0e00f 	mov	lr, pc
    5c80:	e593f000 	ldr	pc, [r3]
    5c84:	ea000010 	b	5ccc <do_tt_wire+0x2d4>
    5c88:	e3570002 	cmp	r7, #2	; 0x2
    5c8c:	1a000003 	bne	5ca0 <do_tt_wire+0x2a8>
    5c90:	e59f00f4 	ldr	r0, [pc, #244]	; 5d8c <do_tt_wire+0x394>
    5c94:	e1a0e00f 	mov	lr, pc
    5c98:	e598f000 	ldr	pc, [r8]
    5c9c:	eaffff79 	b	5a88 <do_tt_wire+0x90>
    5ca0:	e59f00e8 	ldr	r0, [pc, #232]	; 5d90 <do_tt_wire+0x398>
    5ca4:	e59f30a8 	ldr	r3, [pc, #168]	; 5d54 <do_tt_wire+0x35c>
    5ca8:	e1a0e00f 	mov	lr, pc
    5cac:	e593f000 	ldr	pc, [r3]
    5cb0:	eafffffe 	b	5cb0 <do_tt_wire+0x2b8>
    5cb4:	eb0032c7 	bl	127d8 <tstc>
    5cb8:	e3500000 	cmp	r0, #0	; 0x0
    5cbc:	0affff83 	beq	5ad0 <do_tt_wire+0xd8>
    5cc0:	eb0032c5 	bl	127dc <getc>
    5cc4:	e3500003 	cmp	r0, #3	; 0x3
    5cc8:	1affff80 	bne	5ad0 <do_tt_wire+0xd8>
    5ccc:	e59d000c 	ldr	r0, [sp, #12]
    5cd0:	eb001f65 	bl	da6c <get_timer>
    5cd4:	e59f3088 	ldr	r3, [pc, #136]	; 5d64 <do_tt_wire+0x36c>
    5cd8:	e59f4074 	ldr	r4, [pc, #116]	; 5d54 <do_tt_wire+0x35c>
    5cdc:	e893000a 	ldm	r3, {r1, r3}
    5ce0:	e1a01a21 	lsr	r1, r1, #20
    5ce4:	e1811603 	orr	r1, r1, r3, lsl #12
    5ce8:	e1a05000 	mov	r5, r0
    5cec:	e59f00a0 	ldr	r0, [pc, #160]	; 5d94 <do_tt_wire+0x39c>
    5cf0:	e1a0e00f 	mov	lr, pc
    5cf4:	e594f000 	ldr	pc, [r4]
    5cf8:	e59f3078 	ldr	r3, [pc, #120]	; 5d78 <do_tt_wire+0x380>
    5cfc:	e59f0094 	ldr	r0, [pc, #148]	; 5d98 <do_tt_wire+0x3a0>
    5d00:	e893000a 	ldm	r3, {r1, r3}
    5d04:	e1a01a21 	lsr	r1, r1, #20
    5d08:	e1811603 	orr	r1, r1, r3, lsl #12
    5d0c:	e1a0e00f 	mov	lr, pc
    5d10:	e594f000 	ldr	pc, [r4]
    5d14:	e30e1a60 	movw	r1, #60000	; 0xea60
    5d18:	e1a00005 	mov	r0, r5
    5d1c:	eb003b1c 	bl	14994 <__aeabi_idiv>
    5d20:	e1a01000 	mov	r1, r0
    5d24:	e59f0070 	ldr	r0, [pc, #112]	; 5d9c <do_tt_wire+0x3a4>
    5d28:	e1a0e00f 	mov	lr, pc
    5d2c:	e594f000 	ldr	pc, [r4]
    5d30:	e3a00000 	mov	r0, #0	; 0x0
    5d34:	e28dd01c 	add	sp, sp, #28	; 0x1c
    5d38:	e8bd8ff0 	pop	{r4, r5, r6, r7, r8, r9, sl, fp, pc}
    5d3c:	0001798d 	.word	0x0001798d
    5d40:	000179d6 	.word	0x000179d6
    5d44:	00015604 	.word	0x00015604
    5d48:	000179da 	.word	0x000179da
    5d4c:	0001561c 	.word	0x0001561c
    5d50:	3c00d170 	.word	0x3c00d170
    5d54:	3c00d6cc 	.word	0x3c00d6cc
    5d58:	000179de 	.word	0x000179de
    5d5c:	001e8480 	.word	0x001e8480
    5d60:	000179fe 	.word	0x000179fe
    5d64:	3c00d168 	.word	0x3c00d168
    5d68:	00017a20 	.word	0x00017a20
    5d6c:	00017a8d 	.word	0x00017a8d
    5d70:	00017a43 	.word	0x00017a43
    5d74:	00017a6f 	.word	0x00017a6f
    5d78:	3c00d160 	.word	0x3c00d160
    5d7c:	00017a7e 	.word	0x00017a7e
    5d80:	00017a5f 	.word	0x00017a5f
    5d84:	00017aa9 	.word	0x00017aa9
    5d88:	00017ab8 	.word	0x00017ab8
    5d8c:	00017aca 	.word	0x00017aca
    5d90:	00017ae3 	.word	0x00017ae3
    5d94:	00017b10 	.word	0x00017b10
    5d98:	00017b2a 	.word	0x00017b2a
    5d9c:	00017b48 	.word	0x00017b48

00005da0 <vs_is_assigned>:
    5da0:	e59f300c 	ldr	r3, [pc, #12]	; 5db4 <vs_is_assigned+0x14>
    5da4:	e5930000 	ldr	r0, [r3]
    5da8:	e2500000 	subs	r0, r0, #0	; 0x0
    5dac:	13a00001 	movne	r0, #1	; 0x1
    5db0:	e12fff1e 	bx	lr
    5db4:	3c00d178 	.word	0x3c00d178

00005db8 <vs_is_opt_available>:
    5db8:	e350000d 	cmp	r0, #13	; 0xd
    5dbc:	959f2078 	ldrls	r2, [pc, #120]	; 5e3c <vs_is_opt_available+0x84>
    5dc0:	93a0302c 	movls	r3, #44	; 0x2c
    5dc4:	859f3074 	ldrhi	r3, [pc, #116]	; 5e40 <vs_is_opt_available+0x88>
    5dc8:	90202093 	mlals	r0, r3, r0, r2
    5dcc:	85930000 	ldrhi	r0, [r3]
    5dd0:	e3500000 	cmp	r0, #0	; 0x0
    5dd4:	0a000016 	beq	5e34 <vs_is_opt_available+0x7c>
    5dd8:	e3510005 	cmp	r1, #5	; 0x5
    5ddc:	979ff101 	ldrls	pc, [pc, r1, lsl #2]
    5de0:	ea000013 	b	5e34 <vs_is_opt_available+0x7c>
    5de4:	00005dfc 	.word	0x00005dfc
    5de8:	00005e04 	.word	0x00005e04
    5dec:	00005e0c 	.word	0x00005e0c
    5df0:	00005e14 	.word	0x00005e14
    5df4:	00005e1c 	.word	0x00005e1c
    5df8:	00005e24 	.word	0x00005e24
    5dfc:	e590300c 	ldr	r3, [r0, #12]
    5e00:	ea000008 	b	5e28 <vs_is_opt_available+0x70>
    5e04:	e5903010 	ldr	r3, [r0, #16]
    5e08:	ea000006 	b	5e28 <vs_is_opt_available+0x70>
    5e0c:	e5903014 	ldr	r3, [r0, #20]
    5e10:	ea000004 	b	5e28 <vs_is_opt_available+0x70>
    5e14:	e5903018 	ldr	r3, [r0, #24]
    5e18:	ea000002 	b	5e28 <vs_is_opt_available+0x70>
    5e1c:	e590301c 	ldr	r3, [r0, #28]
    5e20:	ea000000 	b	5e28 <vs_is_opt_available+0x70>
    5e24:	e5903020 	ldr	r3, [r0, #32]
    5e28:	e2530000 	subs	r0, r3, #0	; 0x0
    5e2c:	13a00001 	movne	r0, #1	; 0x1
    5e30:	e12fff1e 	bx	lr
    5e34:	e3a00000 	mov	r0, #0	; 0x0
    5e38:	e12fff1e 	bx	lr
    5e3c:	0001561c 	.word	0x0001561c
    5e40:	3c00d178 	.word	0x3c00d178

00005e44 <vs_write>:
    5e44:	e92d4010 	push	{r4, lr}
    5e48:	e24dd008 	sub	sp, sp, #8	; 0x8
    5e4c:	e59d4010 	ldr	r4, [sp, #16]
    5e50:	e3540000 	cmp	r4, #0	; 0x0
    5e54:	01a00004 	moveq	r0, r4
    5e58:	0a00000c 	beq	5e90 <vs_write+0x4c>
    5e5c:	e59f1034 	ldr	r1, [pc, #52]	; 5e98 <vs_write+0x54>
    5e60:	e5911000 	ldr	r1, [r1]
    5e64:	e3510000 	cmp	r1, #0	; 0x0
    5e68:	03e00001 	mvneq	r0, #1	; 0x1
    5e6c:	0a000007 	beq	5e90 <vs_write+0x4c>
    5e70:	e591c014 	ldr	ip, [r1, #20]
    5e74:	e35c0000 	cmp	ip, #0	; 0x0
    5e78:	03e00002 	mvneq	r0, #2	; 0x2
    5e7c:	0a000003 	beq	5e90 <vs_write+0x4c>
    5e80:	e59d1014 	ldr	r1, [sp, #20]
