
/home/neville/Work/q3f_irom/irom/out/vmirom:     file format elf32-littlearm


Disassembly of section .text:

00000000 <_start>:
       0:	ea000012 	b	50 <reset>
       4:	ebfffffe 	bl	4 <_start+0x4>
       8:	ebfffffe 	bl	8 <_start+0x8>
       c:	ebfffffe 	bl	c <_start+0xc>
      10:	ebfffffe 	bl	10 <_start+0x10>
      14:	ebfffffe 	bl	14 <_start+0x14>
      18:	ebfffffe 	bl	18 <_start+0x18>
      1c:	ebfffffe 	bl	1c <_start+0x1c>
      20:	00000000 	.word	0x00000000
      24:	00000001 	.word	0x00000001
      28:	00000002 	.word	0x00000002
      2c:	00000003 	.word	0x00000003
      30:	00000004 	.word	0x00000004
      34:	00000005 	.word	0x00000005
      38:	00000006 	.word	0x00000006
      3c:	00000007 	.word	0x00000007

00000040 <_armboot_start>:
      40:	00000000 	.word	0x00000000

00000044 <_bss_start>:
      44:	0800d1a8 	.word	0x0800d1a8

00000048 <_bss_end>:
      48:	0800dd08 	.word	0x0800dd08

0000004c <__stack>:
      4c:	0800cfe0 	.word	0x0800cfe0

00000050 <reset>:
      50:	e10f0000 	mrs	r0, CPSR
      54:	e3c0001f 	bic	r0, r0, #31	; 0x1f
      58:	e38000d3 	orr	r0, r0, #211	; 0xd3
      5c:	e129f000 	msr	CPSR_fc, r0
      60:	eb00000e 	bl	a0 <core_init_crit>
      64:	ee100fb0 	mrc	15, 0, r0, cr0, cr0, {5}
      68:	e7e10050 	ubfx	r0, r0, #0, #2
      6c:	e3500000 	cmp	r0, #0	; 0x0
      70:	1a000019 	bne	dc <core_hold>
      74:	e51fd030 	ldr	sp, [pc, #-48]	; 4c <__stack>
      78:	eb0003bf 	bl	f7c <chip_test>
      7c:	e51f0040 	ldr	r0, [pc, #-64]	; 44 <_bss_start>
      80:	e51f1040 	ldr	r1, [pc, #-64]	; 48 <_bss_end>
      84:	e3a02000 	mov	r2, #0	; 0x0

00000088 <clbss_l>:
      88:	e5802000 	str	r2, [r0]
      8c:	e2800004 	add	r0, r0, #4	; 0x4
      90:	e1500001 	cmp	r0, r1
      94:	1afffffb 	bne	88 <clbss_l>
      98:	e51ff004 	ldr	pc, [pc, #-4]	; 9c <_main>

0000009c <_main>:
      9c:	00000520 	.word	0x00000520

000000a0 <core_init_crit>:
      a0:	e3a00000 	mov	r0, #0	; 0x0
      a4:	ee080f17 	mcr	15, 0, r0, cr8, cr7, {0}
      a8:	ee070f15 	mcr	15, 0, r0, cr7, cr5, {0}
      ac:	ee110f10 	mrc	15, 0, r0, cr1, cr0, {0}
      b0:	e3c00a02 	bic	r0, r0, #8192	; 0x2000
      b4:	e3c00007 	bic	r0, r0, #7	; 0x7
      b8:	e3800002 	orr	r0, r0, #2	; 0x2
      bc:	e3800b02 	orr	r0, r0, #2048	; 0x800
      c0:	ee010f10 	mcr	15, 0, r0, cr1, cr0, {0}
      c4:	e59f1070 	ldr	r1, [pc, #112]	; 13c <low_power+0x8>
      c8:	e59f0070 	ldr	r0, [pc, #112]	; 140 <low_power+0xc>
      cc:	e5810034 	str	r0, [r1, #52]
      d0:	e59f006c 	ldr	r0, [pc, #108]	; 144 <low_power+0x10>
      d4:	e5810034 	str	r0, [r1, #52]
      d8:	e1a0f00e 	mov	pc, lr

000000dc <core_hold>:
      dc:	e59f3064 	ldr	r3, [pc, #100]	; 148 <low_power+0x14>
      e0:	e5931000 	ldr	r1, [r3]
      e4:	e3a0203b 	mov	r2, #59	; 0x3b
      e8:	e1510002 	cmp	r1, r2
      ec:	1a000010 	bne	134 <low_power>
      f0:	e593100c 	ldr	r1, [r3, #12]
      f4:	e1a02401 	lsl	r2, r1, #8
      f8:	e5931008 	ldr	r1, [r3, #8]
      fc:	e1822001 	orr	r2, r2, r1
     100:	e1a02402 	lsl	r2, r2, #8
     104:	e5931004 	ldr	r1, [r3, #4]
     108:	e1822001 	orr	r2, r2, r1
     10c:	e1a01402 	lsl	r1, r2, #8
     110:	e1a02100 	lsl	r2, r0, #2
     114:	e0821001 	add	r1, r2, r1
     118:	e3a02001 	mov	r2, #1	; 0x1
     11c:	e5812000 	str	r2, [r1]
     120:	f57ff04f 	.word	0xf57ff04f

00000124 <hold_l>:
     124:	e5910000 	ldr	r0, [r1]
     128:	e3500001 	cmp	r0, #1	; 0x1
     12c:	0afffffc 	beq	124 <hold_l>
     130:	e1a0f000 	mov	pc, r0

00000134 <low_power>:
     134:	e320f003 	.word	0xe320f003
     138:	eafffffe 	b	138 <low_power+0x4>
     13c:	21b00600 	.word	0x21b00600
     140:	12345678 	.word	0x12345678
     144:	87654321 	.word	0x87654321
     148:	2d009c2c 	.word	0x2d009c2c
     14c:	e1a00000 	.word	0xe1a00000

00000150 <bl_load_isi>:
     150:	e92d4ff0 	push	{r4, r5, r6, r7, r8, r9, sl, fp, lr}
     154:	e1a04001 	mov	r4, r1
     158:	e24dd02c 	sub	sp, sp, #44	; 0x2c
     15c:	e58d0024 	str	r0, [sp, #36]
     160:	e3a01001 	mov	r1, #1	; 0x1
     164:	e1a00004 	mov	r0, r4
     168:	e1a09002 	mov	r9, r2
     16c:	eb0013d1 	bl	50b8 <vs_assign_by_id>
     170:	e2506000 	subs	r6, r0, #0	; 0x0
     174:	0a000008 	beq	19c <bl_load_isi+0x4c>
     178:	e59f3178 	ldr	r3, [pc, #376]	; 2f8 <_data_len+0x154>
     17c:	e1a00004 	mov	r0, r4
     180:	e5934000 	ldr	r4, [r3]
     184:	eb0012d4 	bl	4cdc <vs_device_name>
     188:	e1a02006 	mov	r2, r6
     18c:	e1a01000 	mov	r1, r0
     190:	e59f0164 	ldr	r0, [pc, #356]	; 2fc <_data_len+0x158>
     194:	e12fff34 	blx	r4
     198:	ea000053 	b	2ec <_data_len+0x148>
     19c:	e1a00004 	mov	r0, r4
     1a0:	e59f1158 	ldr	r1, [pc, #344]	; 300 <_data_len+0x15c>
     1a4:	eb001303 	bl	4db8 <vs_is_device>
     1a8:	e8990030 	ldm	r9, {r4, r5}
     1ac:	e59f2150 	ldr	r2, [pc, #336]	; 304 <_data_len+0x160>
     1b0:	e3a03000 	mov	r3, #0	; 0x0
     1b4:	e0922004 	adds	r2, r2, r4
     1b8:	e59f4148 	ldr	r4, [pc, #328]	; 308 <_data_len+0x164>
     1bc:	e0a33005 	adc	r3, r3, r5
     1c0:	e3e05000 	mvn	r5, #0	; 0x0
     1c4:	e3500000 	cmp	r0, #0	; 0x0
     1c8:	e0033005 	and	r3, r3, r5
     1cc:	e0022004 	and	r2, r2, r4
     1d0:	03a08b01 	moveq	r8, #1024	; 0x400
     1d4:	13a08b02 	movne	r8, #2048	; 0x800
     1d8:	e889000c 	stm	r9, {r2, r3}
     1dc:	e1a02008 	mov	r2, r8
     1e0:	e1a03fc2 	asr	r3, r2, #31
     1e4:	e1cd21f8 	strd	r2, [sp, #24]
     1e8:	e1a07006 	mov	r7, r6
     1ec:	e58d6008 	str	r6, [sp, #8]
     1f0:	e1a05006 	mov	r5, r6
     1f4:	e58d600c 	str	r6, [sp, #12]
     1f8:	e1570008 	cmp	r7, r8
     1fc:	1a00000e 	bne	23c <_data_len+0x98>
     200:	e59d0024 	ldr	r0, [sp, #36]
     204:	eb0005b8 	bl	18ec <isi_check_header>
     208:	e2502000 	subs	r2, r0, #0	; 0x0
     20c:	e59f00f8 	ldr	r0, [pc, #248]	; 30c <_data_len+0x168>
     210:	1a000007 	bne	234 <_data_len+0x90>
     214:	e59da024 	ldr	sl, [sp, #36]
     218:	e59fb0d8 	ldr	fp, [pc, #216]	; 2f8 <_data_len+0x154>
     21c:	e59a300c 	ldr	r3, [sl, #12]
     220:	e2835c02 	add	r5, r3, #512	; 0x200
     224:	e1a01005 	mov	r1, r5
     228:	e1a0e00f 	mov	lr, pc
     22c:	e59bf000 	ldr	pc, [fp]
     230:	ea000001 	b	23c <_data_len+0x98>
     234:	e59f00d4 	ldr	r0, [pc, #212]	; 310 <_data_len+0x16c>
     238:	ea00000c 	b	270 <_data_len+0xcc>
     23c:	e2554000 	subs	r4, r5, #0	; 0x0
     240:	13a04001 	movne	r4, #1	; 0x1
     244:	e1570005 	cmp	r7, r5
     248:	e59d1024 	ldr	r1, [sp, #36]
     24c:	b3a04000 	movlt	r4, #0	; 0x0
     250:	e3540000 	cmp	r4, #0	; 0x0
     254:	e0810007 	add	r0, r1, r7
     258:	0a000006 	beq	278 <_data_len+0xd4>
     25c:	e1a00001 	mov	r0, r1
     260:	eb0005fa 	bl	1a50 <isi_check_data>
     264:	e3500000 	cmp	r0, #0	; 0x0
     268:	0a00001f 	beq	2ec <_data_len+0x148>
     26c:	e59f00a0 	ldr	r0, [pc, #160]	; 314 <_data_len+0x170>
     270:	e3a01000 	mov	r1, #0	; 0x0
     274:	ea000006 	b	294 <_data_len+0xf0>
     278:	e59d200c 	ldr	r2, [sp, #12]
     27c:	e3520004 	cmp	r2, #4	; 0x4
     280:	e2822001 	add	r2, r2, #1	; 0x1
     284:	e58d200c 	str	r2, [sp, #12]
     288:	da000005 	ble	2a4 <_data_len+0x100>
     28c:	e59f0080 	ldr	r0, [pc, #128]	; 314 <_data_len+0x170>
     290:	e1a01004 	mov	r1, r4
     294:	e59f305c 	ldr	r3, [pc, #92]	; 2f8 <_data_len+0x154>
     298:	e1a0e00f 	mov	lr, pc
     29c:	e593f000 	ldr	pc, [r3]
     2a0:	ea000010 	b	2e8 <_data_len+0x144>
     2a4:	e899000c 	ldm	r9, {r2, r3}
     2a8:	e58d8000 	str	r8, [sp]
     2ac:	e58d4004 	str	r4, [sp, #4]
     2b0:	eb0012d9 	bl	4e1c <vs_read>
     2b4:	e8990c00 	ldm	r9, {sl, fp}
     2b8:	e1cd21d8 	ldrd	r2, [sp, #24]
     2bc:	e09aa002 	adds	sl, sl, r2
     2c0:	e0abb003 	adc	fp, fp, r3
     2c4:	e59d3008 	ldr	r3, [sp, #8]
     2c8:	e1500008 	cmp	r0, r8
     2cc:	e2833001 	add	r3, r3, #1	; 0x1
     2d0:	00877008 	addeq	r7, r7, r8
     2d4:	058d400c 	streq	r4, [sp, #12]
     2d8:	e3530080 	cmp	r3, #128	; 0x80
     2dc:	e8890c00 	stm	r9, {sl, fp}
     2e0:	e58d3008 	str	r3, [sp, #8]
     2e4:	1affffc3 	bne	1f8 <_data_len+0x54>
     2e8:	e3e06000 	mvn	r6, #0	; 0x0
     2ec:	e1a00006 	mov	r0, r6
     2f0:	e28dd02c 	add	sp, sp, #44	; 0x2c
     2f4:	e8bd8ff0 	pop	{r4, r5, r6, r7, r8, r9, sl, fp, pc}
     2f8:	0800d76c 	.word	0x0800d76c
     2fc:	000119ca 	.word	0x000119ca
     300:	000119ee 	.word	0x000119ee
     304:	0001ffff 	.word	0x0001ffff
     308:	fffe0000 	.word	0xfffe0000
     30c:	000119f3 	.word	0x000119f3
     310:	00011a0a 	.word	0x00011a0a
     314:	00011a1c 	.word	0x00011a1c

00000318 <try_get_bl>:
     318:	e92d40f0 	push	{r4, r5, r6, r7, lr}
     31c:	e3a02602 	mov	r2, #2097152	; 0x200000
     320:	e24dd00c 	sub	sp, sp, #12	; 0xc
     324:	e3a03000 	mov	r3, #0	; 0x0
     328:	e88d000c 	stm	sp, {r2, r3}
     32c:	e1a07001 	mov	r7, r1
     330:	e1a06000 	mov	r6, r0
     334:	eb0000aa 	bl	5e4 <boot_device>
     338:	e1a04000 	mov	r4, r0
     33c:	eb00121f 	bl	4bc0 <vs_device_bootable>
     340:	e2505000 	subs	r5, r0, #0	; 0x0
     344:	1a000008 	bne	36c <try_get_bl+0x54>
     348:	e59f308c 	ldr	r3, [pc, #140]	; 3dc <try_get_bl+0xc4>
     34c:	e1a00004 	mov	r0, r4
     350:	e5934000 	ldr	r4, [r3]
     354:	eb001260 	bl	4cdc <vs_device_name>
     358:	e1a01000 	mov	r1, r0
     35c:	e59f007c 	ldr	r0, [pc, #124]	; 3e0 <try_get_bl+0xc8>
     360:	e12fff34 	blx	r4
     364:	e1a00005 	mov	r0, r5
     368:	ea000019 	b	3d4 <try_get_bl+0xbc>
     36c:	e1a00004 	mov	r0, r4
     370:	eb001247 	bl	4c94 <vs_device_boot0>
     374:	e3500000 	cmp	r0, #0	; 0x0
     378:	13a02000 	movne	r2, #0	; 0x0
     37c:	13a03000 	movne	r3, #0	; 0x0
     380:	188d000c 	stmne	sp, {r2, r3}
     384:	e3a00302 	mov	r0, #134217728	; 0x8000000
     388:	e1a01004 	mov	r1, r4
     38c:	e1a0200d 	mov	r2, sp
     390:	e3a03000 	mov	r3, #0	; 0x0
     394:	ebffff6d 	bl	150 <bl_load_isi>
     398:	e3500000 	cmp	r0, #0	; 0x0
     39c:	13a00000 	movne	r0, #0	; 0x0
     3a0:	1a00000b 	bne	3d4 <try_get_bl+0xbc>
     3a4:	e3a03302 	mov	r3, #134217728	; 0x8000000
     3a8:	e5932008 	ldr	r2, [r3, #8]
     3ac:	e3c22102 	bic	r2, r2, #-2147483648	; 0x80000000
     3b0:	e5862000 	str	r2, [r6]
     3b4:	e5874000 	str	r4, [r7]
     3b8:	e5933008 	ldr	r3, [r3, #8]
     3bc:	e3530000 	cmp	r3, #0	; 0x0
     3c0:	aa000002 	bge	3d0 <try_get_bl+0xb8>
     3c4:	e3a00001 	mov	r0, #1	; 0x1
     3c8:	e59f1014 	ldr	r1, [pc, #20]	; 3e4 <try_get_bl+0xcc>
     3cc:	eb00170d 	bl	6008 <cdbg_verify_burn_enable>
     3d0:	e3a00001 	mov	r0, #1	; 0x1
     3d4:	e28dd00c 	add	sp, sp, #12	; 0xc
     3d8:	e8bd80f0 	pop	{r4, r5, r6, r7, pc}
     3dc:	0800d76c 	.word	0x0800d76c
     3e0:	00011a2e 	.word	0x00011a2e
     3e4:	08000100 	.word	0x08000100

000003e8 <try_boot>:
     3e8:	e92d41f0 	push	{r4, r5, r6, r7, r8, lr}
     3ec:	e3a03000 	mov	r3, #0	; 0x0
     3f0:	e24dd008 	sub	sp, sp, #8	; 0x8
     3f4:	e1a07000 	mov	r7, r0
     3f8:	e1a00003 	mov	r0, r3
     3fc:	e58d3004 	str	r3, [sp, #4]
     400:	e58d3000 	str	r3, [sp]
     404:	e1a04003 	mov	r4, r3
     408:	eb00005b 	bl	57c <set_xom>
     40c:	eb000061 	bl	598 <boot_info>
     410:	e28d8004 	add	r8, sp, #4	; 0x4
     414:	e1a05000 	mov	r5, r0
     418:	ea000008 	b	440 <try_boot+0x58>
     41c:	eb00012e 	bl	8dc <gtc_time>
     420:	e1a00004 	mov	r0, r4
     424:	eb000054 	bl	57c <set_xom>
     428:	e1a00008 	mov	r0, r8
     42c:	e1a0100d 	mov	r1, sp
     430:	ebffffb8 	bl	318 <try_get_bl>
     434:	e3500000 	cmp	r0, #0	; 0x0
     438:	13a04001 	movne	r4, #1	; 0x1
     43c:	1a000003 	bne	450 <try_boot+0x68>
     440:	e1540005 	cmp	r4, r5
     444:	e2844001 	add	r4, r4, #1	; 0x1
     448:	bafffff3 	blt	41c <try_boot+0x34>
     44c:	e3a04000 	mov	r4, #0	; 0x0
     450:	eb000121 	bl	8dc <gtc_time>
     454:	e3a00001 	mov	r0, #1	; 0x1
     458:	eb000135 	bl	934 <ecfg_check_flag>
     45c:	e3500000 	cmp	r0, #0	; 0x0
     460:	1a00000c 	bne	498 <try_boot+0xb0>
     464:	e3570000 	cmp	r7, #0	; 0x0
     468:	1a00000a 	bne	498 <try_boot+0xb0>
     46c:	eb0000cb 	bl	7a0 <get_reset_stats>
     470:	e3500000 	cmp	r0, #0	; 0x0
     474:	13500002 	cmpne	r0, #2	; 0x2
     478:	1a000006 	bne	498 <try_boot+0xb0>
     47c:	e3500002 	cmp	r0, #2	; 0x2
     480:	1a000001 	bne	48c <try_boot+0xa4>
     484:	e28d0004 	add	r0, sp, #4	; 0x4
     488:	eb0000d1 	bl	7d4 <update_mask_on_reset>
     48c:	e59d0004 	ldr	r0, [sp, #4]
     490:	eb00189a 	bl	6700 <burn>
     494:	eb000110 	bl	8dc <gtc_time>
     498:	e3540000 	cmp	r4, #0	; 0x0
     49c:	0a000004 	beq	4b4 <try_boot+0xcc>
     4a0:	e3a03302 	mov	r3, #134217728	; 0x8000000
     4a4:	e5930014 	ldr	r0, [r3, #20]
     4a8:	e59d1000 	ldr	r1, [sp]
     4ac:	eb0016e0 	bl	6034 <cdbg_jump>
     4b0:	eafffffe 	b	4b0 <try_boot+0xc8>
     4b4:	eb001710 	bl	60fc <cdbg_shell>
     4b8:	eafffffe 	b	4b8 <try_boot+0xd0>

000004bc <init_data_section>:
     4bc:	e59f1010 	ldr	r1, [pc, #16]	; 4d4 <init_data_section+0x18>
     4c0:	e59f0010 	ldr	r0, [pc, #16]	; 4d8 <init_data_section+0x1c>
     4c4:	e1510000 	cmp	r1, r0
     4c8:	012fff1e 	bxeq	lr
     4cc:	e59f2008 	ldr	r2, [pc, #8]	; 4dc <init_data_section+0x20>
     4d0:	ea00039d 	b	134c <memcpy>
     4d4:	0001474c 	.word	0x0001474c
     4d8:	0800d000 	.word	0x0800d000
     4dc:	000001a4 	.word	0x000001a4

000004e0 <initialization>:
     4e0:	e52de004 	push	{lr}		; (str lr, [sp, #-4]!)
     4e4:	e24dd004 	sub	sp, sp, #4	; 0x4
     4e8:	ebfffff3 	bl	4bc <init_data_section>
     4ec:	eb000027 	bl	590 <init_xom>
     4f0:	eb000099 	bl	75c <init_lowlevel>
     4f4:	eb0004be 	bl	17f4 <init_malloc>
     4f8:	eb00211a 	bl	8968 <init_timer>
     4fc:	eb000103 	bl	910 <init_gtc>
     500:	eb0020ab 	bl	87b4 <init_serial>
     504:	eb0019d8 	bl	6c6c <init_mmc>
     508:	eb0000a3 	bl	79c <init_crypto>
     50c:	eb000220 	bl	d94 <init_alternate>
     510:	eb00001f 	bl	594 <init_boot_sequence>
     514:	e3a00000 	mov	r0, #0	; 0x0
     518:	e28dd004 	add	sp, sp, #4	; 0x4
     51c:	e8bd8000 	pop	{pc}

00000520 <main>:
     520:	e52de004 	push	{lr}		; (str lr, [sp, #-4]!)
     524:	e3a00000 	mov	r0, #0	; 0x0
     528:	e24dd004 	sub	sp, sp, #4	; 0x4
     52c:	eb001699 	bl	5f98 <cdbg_log_toggle>
     530:	ebffffea 	bl	4e0 <initialization>
     534:	eb0000e8 	bl	8dc <gtc_time>
     538:	e3a00001 	mov	r0, #1	; 0x1
     53c:	eb001695 	bl	5f98 <cdbg_log_toggle>
     540:	e59f001c 	ldr	r0, [pc, #28]	; 564 <main+0x44>
     544:	e59f301c 	ldr	r3, [pc, #28]	; 568 <main+0x48>
     548:	e1a0e00f 	mov	lr, pc
     54c:	e593f000 	ldr	pc, [r3]
     550:	e3a00000 	mov	r0, #0	; 0x0
     554:	eb00168f 	bl	5f98 <cdbg_log_toggle>
     558:	e3a00000 	mov	r0, #0	; 0x0
     55c:	ebffffa1 	bl	3e8 <try_boot>
     560:	eafffffe 	b	560 <main+0x40>
     564:	00011a48 	.word	0x00011a48
     568:	0800d76c 	.word	0x0800d76c

0000056c <get_xom>:
     56c:	e59f3004 	ldr	r3, [pc, #4]	; 578 <get_xom+0xc>
     570:	e1d300b0 	ldrh	r0, [r3]
     574:	e12fff1e 	bx	lr
     578:	0800d1a8 	.word	0x0800d1a8

0000057c <set_xom>:
     57c:	e59f3008 	ldr	r3, [pc, #8]	; 58c <set_xom+0x10>
     580:	e200001f 	and	r0, r0, #31	; 0x1f
     584:	e1c300b0 	strh	r0, [r3]
     588:	e12fff1e 	bx	lr
     58c:	0800d1a8 	.word	0x0800d1a8

00000590 <init_xom>:
     590:	e12fff1e 	bx	lr

00000594 <init_boot_sequence>:
     594:	e12fff1e 	bx	lr

00000598 <boot_info>:
     598:	e92d4010 	push	{r4, lr}
     59c:	eb0000ed 	bl	958 <ecfg_paras>
     5a0:	e1a04000 	mov	r4, r0
     5a4:	e3a00b01 	mov	r0, #1024	; 0x400
     5a8:	eb0000e1 	bl	934 <ecfg_check_flag>
     5ac:	e59f3028 	ldr	r3, [pc, #40]	; 5dc <boot_info+0x44>
     5b0:	e3500000 	cmp	r0, #0	; 0x0
     5b4:	11d330b0 	ldrhne	r3, [r3]
     5b8:	01d330b0 	ldrheq	r3, [r3]
     5bc:	1203301f 	andne	r3, r3, #31	; 0x1f
     5c0:	0203301f 	andeq	r3, r3, #31	; 0x1f
     5c4:	159f2014 	ldrne	r2, [pc, #20]	; 5e0 <boot_info+0x48>
     5c8:	11a03083 	lslne	r3, r3, #1
     5cc:	00843083 	addeq	r3, r4, r3, lsl #1
     5d0:	119200b3 	ldrhne	r0, [r2, r3]
     5d4:	01d302b0 	ldrheq	r0, [r3, #32]
     5d8:	e8bd8010 	pop	{r4, pc}
     5dc:	0800d1a8 	.word	0x0800d1a8
     5e0:	000115e4 	.word	0x000115e4

000005e4 <boot_device>:
     5e4:	e52de004 	push	{lr}		; (str lr, [sp, #-4]!)
     5e8:	e24dd004 	sub	sp, sp, #4	; 0x4
     5ec:	ebffffe9 	bl	598 <boot_info>
     5f0:	e1a00620 	lsr	r0, r0, #12
     5f4:	e6ff0070 	uxth	r0, r0
     5f8:	e28dd004 	add	sp, sp, #4	; 0x4
     5fc:	e8bd8000 	pop	{pc}

00000600 <set_pll>:
     600:	e3500003 	cmp	r0, #3	; 0x3
     604:	e92d45f0 	push	{r4, r5, r6, r7, r8, sl, lr}
     608:	e1a02001 	mov	r2, r1
     60c:	88bd85f0 	pophi	{r4, r5, r6, r7, r8, sl, pc}
     610:	e3a03018 	mov	r3, #24	; 0x18
     614:	e0030093 	mul	r3, r3, r0
     618:	e59f808c 	ldr	r8, [pc, #140]	; 6ac <set_pll+0xac>
     61c:	e59f008c 	ldr	r0, [pc, #140]	; 6b0 <set_pll+0xb0>
     620:	e59fc08c 	ldr	ip, [pc, #140]	; 6b4 <set_pll+0xb4>
     624:	e59f508c 	ldr	r5, [pc, #140]	; 6b8 <set_pll+0xb8>
     628:	e59fa08c 	ldr	sl, [pc, #140]	; 6bc <set_pll+0xbc>
     62c:	e283142d 	add	r1, r3, #754974720	; 0x2d000000
     630:	e0838008 	add	r8, r3, r8
     634:	e083c00c 	add	ip, r3, ip
     638:	e3a07001 	mov	r7, #1	; 0x1
     63c:	e2811a0a 	add	r1, r1, #40960	; 0xa000
     640:	e0830000 	add	r0, r3, r0
     644:	e1a06422 	lsr	r6, r2, #8
     648:	e0835005 	add	r5, r3, r5
     64c:	e3a04000 	mov	r4, #0	; 0x0
     650:	e6ef2072 	uxtb	r2, r2
     654:	e083a00a 	add	sl, r3, sl
     658:	e3a03002 	mov	r3, #2	; 0x2
     65c:	e5c87000 	strb	r7, [r8]
     660:	e5c12000 	strb	r2, [r1]
     664:	e5c06000 	strb	r6, [r0]
     668:	e5cc4000 	strb	r4, [ip]
     66c:	e5c53000 	strb	r3, [r5]
     670:	e0833007 	add	r3, r3, r7
     674:	e5c83000 	strb	r3, [r8]
     678:	e1a02004 	mov	r2, r4
     67c:	e5cc7000 	strb	r7, [ip]
     680:	e3011a0a 	movw	r1, #6666	; 0x1a0a
     684:	ea000001 	b	690 <set_pll+0x90>
     688:	e1520001 	cmp	r2, r1
     68c:	0a000003 	beq	6a0 <set_pll+0xa0>
     690:	e5da3000 	ldrb	r3, [sl]
     694:	e2822001 	add	r2, r2, #1	; 0x1
     698:	e3130001 	tst	r3, #1	; 0x1
     69c:	0afffff9 	beq	688 <set_pll+0x88>
     6a0:	e3a03002 	mov	r3, #2	; 0x2
     6a4:	e5883000 	str	r3, [r8]
     6a8:	e8bd85f0 	pop	{r4, r5, r6, r7, r8, sl, pc}
     6ac:	2d00a00c 	.word	0x2d00a00c
     6b0:	2d00a004 	.word	0x2d00a004
     6b4:	2d00a010 	.word	0x2d00a010
     6b8:	2d00a008 	.word	0x2d00a008
     6bc:	2d00a014 	.word	0x2d00a014

000006c0 <set_clk_divider>:
     6c0:	e3500005 	cmp	r0, #5	; 0x5
     6c4:	812fff1e 	bxhi	lr
     6c8:	e59fc020 	ldr	ip, [pc, #32]	; 6f0 <set_clk_divider+0x30>
     6cc:	e1a03280 	lsl	r3, r0, #5
     6d0:	e083c00c 	add	ip, r3, ip
     6d4:	e3a02000 	mov	r2, #0	; 0x0
     6d8:	e7d13002 	ldrb	r3, [r1, r2]
     6dc:	e2822001 	add	r2, r2, #1	; 0x1
     6e0:	e3520008 	cmp	r2, #8	; 0x8
     6e4:	e4cc3004 	strb	r3, [ip], #4
     6e8:	1afffffa 	bne	6d8 <set_clk_divider+0x18>
     6ec:	e12fff1e 	bx	lr
     6f0:	2d00a070 	.word	0x2d00a070

000006f4 <module_set_clock>:
     6f4:	e59f3020 	ldr	r3, [pc, #32]	; 71c <module_set_clock+0x28>
     6f8:	e1500003 	cmp	r0, r3
     6fc:	13a03001 	movne	r3, #1	; 0x1
     700:	1580300c 	strne	r3, [r0, #12]
     704:	e2013007 	and	r3, r1, #7	; 0x7
     708:	e5803000 	str	r3, [r0]
     70c:	e3a03000 	mov	r3, #0	; 0x0
     710:	e5802004 	str	r2, [r0, #4]
     714:	e580300c 	str	r3, [r0, #12]
     718:	e12fff1e 	bx	lr
     71c:	2d00a360 	.word	0x2d00a360

00000720 <module_enable>:
     720:	e3a020ff 	mov	r2, #255	; 0xff
     724:	e3a01000 	mov	r1, #0	; 0x0
     728:	e3a03011 	mov	r3, #17	; 0x11
     72c:	e580100c 	str	r1, [r0, #12]
     730:	e5802000 	str	r2, [r0]
     734:	e5802004 	str	r2, [r0, #4]
     738:	e5803008 	str	r3, [r0, #8]
     73c:	e5801014 	str	r1, [r0, #20]
     740:	e5903008 	ldr	r3, [r0, #8]
     744:	e3c33010 	bic	r3, r3, #16	; 0x10
     748:	e5803008 	str	r3, [r0, #8]
     74c:	e5802018 	str	r2, [r0, #24]
     750:	e5801000 	str	r1, [r0]
     754:	e580200c 	str	r2, [r0, #12]
     758:	e12fff1e 	bx	lr

0000075c <init_lowlevel>:
     75c:	e3a01000 	mov	r1, #0	; 0x0
     760:	e3e00000 	mvn	r0, #0	; 0x0
     764:	e59f3018 	ldr	r3, [pc, #24]	; 784 <init_lowlevel+0x28>
     768:	e1a02101 	lsl	r2, r1, #2
     76c:	e2811001 	add	r1, r1, #1	; 0x1
     770:	e0823003 	add	r3, r2, r3
     774:	e3510008 	cmp	r1, #8	; 0x8
     778:	e5830000 	str	r0, [r3]
     77c:	1afffff8 	bne	764 <init_lowlevel+0x8>
     780:	e12fff1e 	bx	lr
     784:	21b01180 	.word	0x21b01180

00000788 <init_igps_ram>:
     788:	e59f3008 	ldr	r3, [pc, #8]	; 798 <init_igps_ram+0x10>
     78c:	e3a02001 	mov	r2, #1	; 0x1
     790:	e5832410 	str	r2, [r3, #1040]
     794:	e12fff1e 	bx	lr
     798:	2d00c000 	.word	0x2d00c000

0000079c <init_crypto>:
     79c:	e12fff1e 	bx	lr

000007a0 <get_reset_stats>:
     7a0:	e59f2028 	ldr	r2, [pc, #40]	; 7d0 <get_reset_stats+0x30>
     7a4:	e5923c10 	ldr	r3, [r2, #3088]
     7a8:	e2130002 	ands	r0, r3, #2	; 0x2
     7ac:	012fff1e 	bxeq	lr
     7b0:	e5920c2c 	ldr	r0, [r2, #3116]
     7b4:	e3100001 	tst	r0, #1	; 0x1
     7b8:	03a00001 	moveq	r0, #1	; 0x1
     7bc:	012fff1e 	bxeq	lr
     7c0:	e3500037 	cmp	r0, #55	; 0x37
     7c4:	03a00002 	moveq	r0, #2	; 0x2
     7c8:	13a00003 	movne	r0, #3	; 0x3
     7cc:	e12fff1e 	bx	lr
     7d0:	2d009000 	.word	0x2d009000

000007d4 <update_mask_on_reset>:
     7d4:	e59f3018 	ldr	r3, [pc, #24]	; 7f4 <update_mask_on_reset+0x20>
     7d8:	e5932c30 	ldr	r2, [r3, #3120]
     7dc:	e3120080 	tst	r2, #128	; 0x80
     7e0:	13a03001 	movne	r3, #1	; 0x1
     7e4:	1202200f 	andne	r2, r2, #15	; 0xf
     7e8:	11e03213 	mvnne	r3, r3, lsl r2
     7ec:	15803000 	strne	r3, [r0]
     7f0:	e12fff1e 	bx	lr
     7f4:	2d009000 	.word	0x2d009000

000007f8 <get_wakeup_entry>:
     7f8:	e59f301c 	ldr	r3, [pc, #28]	; 81c <get_wakeup_entry+0x24>
     7fc:	e5931c38 	ldr	r1, [r3, #3128]
     800:	e5932c34 	ldr	r2, [r3, #3124]
     804:	e5930c30 	ldr	r0, [r3, #3120]
     808:	e1822401 	orr	r2, r2, r1, lsl #8
     80c:	e5933c2c 	ldr	r3, [r3, #3116]
     810:	e1800402 	orr	r0, r0, r2, lsl #8
     814:	e1830400 	orr	r0, r3, r0, lsl #8
     818:	e12fff1e 	bx	lr
     81c:	2d009000 	.word	0x2d009000

00000820 <system_reset>:
     820:	e59f3010 	ldr	r3, [pc, #16]	; 838 <system_reset+0x18>
     824:	e3a02001 	mov	r2, #1	; 0x1
     828:	e5832c2c 	str	r2, [r3, #3116]
     82c:	e2822002 	add	r2, r2, #2	; 0x2
     830:	e5832c00 	str	r2, [r3, #3072]
     834:	e12fff1e 	bx	lr
     838:	2d009000 	.word	0x2d009000

0000083c <pads_init_module>:
     83c:	e92d4030 	push	{r4, r5, lr}
     840:	e1a05000 	mov	r5, r0
     844:	e24dd004 	sub	sp, sp, #4	; 0x4
     848:	e59f4064 	ldr	r4, [pc, #100]	; 8b4 <pads_init_module+0x78>
     84c:	ea000013 	b	8a0 <pads_init_module+0x64>
     850:	e1500005 	cmp	r0, r5
     854:	1a000010 	bne	89c <pads_init_module+0x60>
     858:	e3a01000 	mov	r1, #0	; 0x0
     85c:	e1a02001 	mov	r2, r1
     860:	e514000c 	ldr	r0, [r4, #-12]
     864:	eb0000c6 	bl	b84 <pads_chmod>
     868:	e5140004 	ldr	r0, [r4, #-4]
     86c:	e3a01000 	mov	r1, #0	; 0x0
     870:	e1500001 	cmp	r0, r1
     874:	e1a02001 	mov	r2, r1
     878:	da000000 	ble	880 <pads_init_module+0x44>
     87c:	eb0000c0 	bl	b84 <pads_chmod>
     880:	e5943000 	ldr	r3, [r4]
     884:	e3a01000 	mov	r1, #0	; 0x0
     888:	e1530001 	cmp	r3, r1
     88c:	e1a02001 	mov	r2, r1
     890:	e1a00003 	mov	r0, r3
     894:	da000000 	ble	89c <pads_init_module+0x60>
     898:	eb0000b9 	bl	b84 <pads_chmod>
     89c:	e2844014 	add	r4, r4, #20	; 0x14
     8a0:	e5140010 	ldr	r0, [r4, #-16]
     8a4:	e3500000 	cmp	r0, #0	; 0x0
     8a8:	1affffe8 	bne	850 <pads_init_module+0x14>
     8ac:	e28dd004 	add	sp, sp, #4	; 0x4
     8b0:	e8bd8030 	pop	{r4, r5, pc}
     8b4:	0800d010 	.word	0x0800d010

000008b8 <module_reset>:
     8b8:	e3a030ff 	mov	r3, #255	; 0xff
     8bc:	e5803000 	str	r3, [r0]
     8c0:	e92d4010 	push	{r4, lr}
     8c4:	e1a04000 	mov	r4, r0
     8c8:	e3a0000a 	mov	r0, #10	; 0xa
     8cc:	eb001fe1 	bl	8858 <udelay>
     8d0:	e3a03000 	mov	r3, #0	; 0x0
     8d4:	e5843000 	str	r3, [r4]
     8d8:	e8bd8010 	pop	{r4, pc}

000008dc <gtc_time>:
     8dc:	e59f3020 	ldr	r3, [pc, #32]	; 904 <gtc_time+0x28>
     8e0:	e92d4010 	push	{r4, lr}
     8e4:	e5930000 	ldr	r0, [r3]
     8e8:	e59f3018 	ldr	r3, [pc, #24]	; 908 <gtc_time+0x2c>
     8ec:	e5934000 	ldr	r4, [r3]
     8f0:	eb001ffc 	bl	88e8 <get_timer>
     8f4:	e1a01000 	mov	r1, r0
     8f8:	e59f000c 	ldr	r0, [pc, #12]	; 90c <gtc_time+0x30>
     8fc:	e12fff34 	blx	r4
     900:	e8bd8010 	pop	{r4, pc}
     904:	0800d1ac 	.word	0x0800d1ac
     908:	0800d76c 	.word	0x0800d76c
     90c:	00011a4d 	.word	0x00011a4d

00000910 <init_gtc>:
     910:	e52de004 	push	{lr}		; (str lr, [sp, #-4]!)
     914:	e3a00000 	mov	r0, #0	; 0x0
     918:	e24dd004 	sub	sp, sp, #4	; 0x4
     91c:	eb001ff1 	bl	88e8 <get_timer>
     920:	e59f3008 	ldr	r3, [pc, #8]	; 930 <init_gtc+0x20>
     924:	e5830000 	str	r0, [r3]
     928:	e28dd004 	add	sp, sp, #4	; 0x4
     92c:	e8bd8000 	pop	{pc}
     930:	0800d1ac 	.word	0x0800d1ac

00000934 <ecfg_check_flag>:
     934:	e3500801 	cmp	r0, #65536	; 0x10000
     938:	0a000004 	beq	950 <ecfg_check_flag+0x1c>
     93c:	e3500101 	cmp	r0, #1073741824	; 0x40000000
     940:	0a000002 	beq	950 <ecfg_check_flag+0x1c>
     944:	e3500001 	cmp	r0, #1	; 0x1
     948:	13a00001 	movne	r0, #1	; 0x1
     94c:	112fff1e 	bxne	lr
     950:	e3a00000 	mov	r0, #0	; 0x0
     954:	e12fff1e 	bx	lr

00000958 <ecfg_paras>:
     958:	e59f0000 	ldr	r0, [pc, #0]	; 960 <ecfg_paras+0x8>
     95c:	e12fff1e 	bx	lr
     960:	0800d770 	.word	0x0800d770

00000964 <efuse_mac>:
     964:	e3a00000 	mov	r0, #0	; 0x0
     968:	e3a01000 	mov	r1, #0	; 0x0
     96c:	e12fff1e 	bx	lr

00000970 <efuse_info>:
     970:	e92d40f0 	push	{r4, r5, r6, r7, lr}
     974:	e1a04000 	mov	r4, r0
     978:	e24dd004 	sub	sp, sp, #4	; 0x4
     97c:	e59f6144 	ldr	r6, [pc, #324]	; ac8 <efuse_info+0x158>
     980:	e59f0144 	ldr	r0, [pc, #324]	; acc <efuse_info+0x15c>
     984:	e1a0e00f 	mov	lr, pc
     988:	e596f000 	ldr	pc, [r6]
     98c:	e59f013c 	ldr	r0, [pc, #316]	; ad0 <efuse_info+0x160>
     990:	e1a0e00f 	mov	lr, pc
     994:	e596f000 	ldr	pc, [r6]
     998:	e3540000 	cmp	r4, #0	; 0x0
     99c:	0a00003c 	beq	a94 <efuse_info+0x124>
     9a0:	e59f412c 	ldr	r4, [pc, #300]	; ad4 <efuse_info+0x164>
     9a4:	e59f012c 	ldr	r0, [pc, #300]	; ad8 <efuse_info+0x168>
     9a8:	e5941000 	ldr	r1, [r4]
     9ac:	e1a0e00f 	mov	lr, pc
     9b0:	e596f000 	ldr	pc, [r6]
     9b4:	e5d41004 	ldrb	r1, [r4, #4]
     9b8:	e59f011c 	ldr	r0, [pc, #284]	; adc <efuse_info+0x16c>
     9bc:	e1a0e00f 	mov	lr, pc
     9c0:	e596f000 	ldr	pc, [r6]
     9c4:	e5d41005 	ldrb	r1, [r4, #5]
     9c8:	e59f0110 	ldr	r0, [pc, #272]	; ae0 <efuse_info+0x170>
     9cc:	e1a0e00f 	mov	lr, pc
     9d0:	e596f000 	ldr	pc, [r6]
     9d4:	e5d41006 	ldrb	r1, [r4, #6]
     9d8:	e59f0104 	ldr	r0, [pc, #260]	; ae4 <efuse_info+0x174>
     9dc:	e1a0e00f 	mov	lr, pc
     9e0:	e596f000 	ldr	pc, [r6]
     9e4:	e5d41007 	ldrb	r1, [r4, #7]
     9e8:	e59f00f8 	ldr	r0, [pc, #248]	; ae8 <efuse_info+0x178>
     9ec:	e1a0e00f 	mov	lr, pc
     9f0:	e596f000 	ldr	pc, [r6]
     9f4:	e1d410b8 	ldrh	r1, [r4, #8]
     9f8:	e59f00ec 	ldr	r0, [pc, #236]	; aec <efuse_info+0x17c>
     9fc:	e1a0e00f 	mov	lr, pc
     a00:	e596f000 	ldr	pc, [r6]
     a04:	e1d410ba 	ldrh	r1, [r4, #10]
     a08:	e59f00e0 	ldr	r0, [pc, #224]	; af0 <efuse_info+0x180>
     a0c:	e1a0e00f 	mov	lr, pc
     a10:	e596f000 	ldr	pc, [r6]
     a14:	e1d410bc 	ldrh	r1, [r4, #12]
     a18:	e59f00d4 	ldr	r0, [pc, #212]	; af4 <efuse_info+0x184>
     a1c:	e1a0e00f 	mov	lr, pc
     a20:	e596f000 	ldr	pc, [r6]
     a24:	e1d410be 	ldrh	r1, [r4, #14]
     a28:	e59f00c8 	ldr	r0, [pc, #200]	; af8 <efuse_info+0x188>
     a2c:	e1a0e00f 	mov	lr, pc
     a30:	e596f000 	ldr	pc, [r6]
     a34:	e1a05004 	mov	r5, r4
     a38:	e3a04000 	mov	r4, #0	; 0x0
     a3c:	e1a01004 	mov	r1, r4
     a40:	e5952010 	ldr	r2, [r5, #16]
     a44:	e2844001 	add	r4, r4, #1	; 0x1
     a48:	e59f00ac 	ldr	r0, [pc, #172]	; afc <efuse_info+0x18c>
     a4c:	e1a0e00f 	mov	lr, pc
     a50:	e596f000 	ldr	pc, [r6]
     a54:	e3540004 	cmp	r4, #4	; 0x4
     a58:	e2855004 	add	r5, r5, #4	; 0x4
     a5c:	1afffff6 	bne	a3c <efuse_info+0xcc>
     a60:	e59f6060 	ldr	r6, [pc, #96]	; ac8 <efuse_info+0x158>
     a64:	e59f5068 	ldr	r5, [pc, #104]	; ad4 <efuse_info+0x164>
     a68:	e284400c 	add	r4, r4, #12	; 0xc
     a6c:	e1a03084 	lsl	r3, r4, #1
     a70:	e1a01004 	mov	r1, r4
     a74:	e19520b3 	ldrh	r2, [r5, r3]
     a78:	e2844001 	add	r4, r4, #1	; 0x1
     a7c:	e59f007c 	ldr	r0, [pc, #124]	; b00 <efuse_info+0x190>
     a80:	e1a0e00f 	mov	lr, pc
     a84:	e596f000 	ldr	pc, [r6]
     a88:	e354001c 	cmp	r4, #28	; 0x1c
     a8c:	1afffff6 	bne	a6c <efuse_info+0xfc>
     a90:	ea00000a 	b	ac0 <efuse_info+0x150>
     a94:	e59f4068 	ldr	r4, [pc, #104]	; b04 <efuse_info+0x194>
     a98:	e59f7068 	ldr	r7, [pc, #104]	; b08 <efuse_info+0x198>
     a9c:	e1a05006 	mov	r5, r6
     aa0:	e5942000 	ldr	r2, [r4]
     aa4:	e1a01004 	mov	r1, r4
     aa8:	e59f005c 	ldr	r0, [pc, #92]	; b0c <efuse_info+0x19c>
     aac:	e2844004 	add	r4, r4, #4	; 0x4
     ab0:	e1a0e00f 	mov	lr, pc
     ab4:	e595f000 	ldr	pc, [r5]
     ab8:	e1540007 	cmp	r4, r7
     abc:	1afffff7 	bne	aa0 <efuse_info+0x130>
     ac0:	e28dd004 	add	sp, sp, #4	; 0x4
     ac4:	e8bd80f0 	pop	{r4, r5, r6, r7, pc}
     ac8:	0800d76c 	.word	0x0800d76c
     acc:	00011a55 	.word	0x00011a55
     ad0:	00011a6a 	.word	0x00011a6a
     ad4:	0800d770 	.word	0x0800d770
     ad8:	00011a81 	.word	0x00011a81
     adc:	00011a90 	.word	0x00011a90
     ae0:	00011a9f 	.word	0x00011a9f
     ae4:	00011ab2 	.word	0x00011ab2
     ae8:	00011ac1 	.word	0x00011ac1
     aec:	00011ad6 	.word	0x00011ad6
     af0:	00011ae3 	.word	0x00011ae3
     af4:	00011af3 	.word	0x00011af3
     af8:	00011b04 	.word	0x00011b04
     afc:	00011b16 	.word	0x00011b16
     b00:	00011b26 	.word	0x00011b26
     b04:	2d00d9b4 	.word	0x2d00d9b4
     b08:	2d00da94 	.word	0x2d00da94
     b0c:	00011b37 	.word	0x00011b37

00000b10 <init_efuse>:
     b10:	e59f0008 	ldr	r0, [pc, #8]	; b20 <init_efuse+0x10>
     b14:	e3a01000 	mov	r1, #0	; 0x0
     b18:	e3a02038 	mov	r2, #56	; 0x38
     b1c:	ea000202 	b	132c <memset>
     b20:	0800d770 	.word	0x0800d770

00000b24 <assert_linkpc>:
     b24:	e3a00001 	mov	r0, #1	; 0x1
     b28:	e12fff1e 	bx	lr

00000b2c <pads_states>:
     b2c:	e3500000 	cmp	r0, #0	; 0x0
     b30:	e2803007 	add	r3, r0, #7	; 0x7
     b34:	a1a03000 	movge	r3, r0
     b38:	e1a031c3 	asr	r3, r3, #3
     b3c:	e59f203c 	ldr	r2, [pc, #60]	; b80 <pads_states+0x54>
     b40:	e1a03103 	lsl	r3, r3, #2
     b44:	e0832002 	add	r2, r3, r2
     b48:	e5921000 	ldr	r1, [r2]
     b4c:	e3a03001 	mov	r3, #1	; 0x1
     b50:	e2002007 	and	r2, r0, #7	; 0x7
     b54:	e0113213 	ands	r3, r1, r3, lsl r2
     b58:	01a00003 	moveq	r0, r3
     b5c:	012fff1e 	bxeq	lr
     b60:	e1a03300 	lsl	r3, r0, #6
     b64:	e2833282 	add	r3, r3, #536870920	; 0x20000008
     b68:	e283360f 	add	r3, r3, #15728640	; 0xf00000
     b6c:	e5933000 	ldr	r3, [r3]
     b70:	e3530000 	cmp	r3, #0	; 0x0
     b74:	13a00002 	movne	r0, #2	; 0x2
     b78:	03a00001 	moveq	r0, #1	; 0x1
     b7c:	e12fff1e 	bx	lr
     b80:	2d009004 	.word	0x2d009004

00000b84 <pads_chmod>:
     b84:	e92d4ff0 	push	{r4, r5, r6, r7, r8, r9, sl, fp, lr}
     b88:	e1b07840 	asrs	r7, r0, #16
     b8c:	e1a00800 	lsl	r0, r0, #16
     b90:	03a03000 	moveq	r3, #0	; 0x0
     b94:	13a03001 	movne	r3, #1	; 0x1
     b98:	e1a00820 	lsr	r0, r0, #16
     b9c:	e1570000 	cmp	r7, r0
     ba0:	a3a0c000 	movge	ip, #0	; 0x0
     ba4:	b203c001 	andlt	ip, r3, #1	; 0x1
     ba8:	e35c0000 	cmp	ip, #0	; 0x0
     bac:	e24dd004 	sub	sp, sp, #4	; 0x4
     bb0:	e1a05001 	mov	r5, r1
     bb4:	e1a09002 	mov	r9, r2
     bb8:	1a000038 	bne	ca0 <pads_chmod+0x11c>
     bbc:	e2803883 	add	r3, r0, #8585216	; 0x830000
     bc0:	e2833903 	add	r3, r3, #49152	; 0xc000
     bc4:	e1a02303 	lsl	r2, r3, #6
     bc8:	e3570000 	cmp	r7, #0	; 0x0
     bcc:	01a07000 	moveq	r7, r0
     bd0:	e2826008 	add	r6, r2, #8	; 0x8
     bd4:	e2828004 	add	r8, r2, #4	; 0x4
     bd8:	e1a04000 	mov	r4, r0
     bdc:	e3a0a001 	mov	sl, #1	; 0x1
     be0:	e59fb0c0 	ldr	fp, [pc, #192]	; ca8 <pads_chmod+0x124>
     be4:	ea00002a 	b	c94 <pads_chmod+0x110>
     be8:	e3540000 	cmp	r4, #0	; 0x0
     bec:	a1a03004 	movge	r3, r4
     bf0:	e3550001 	cmp	r5, #1	; 0x1
     bf4:	e1a011c3 	asr	r1, r3, #3
     bf8:	e204c007 	and	ip, r4, #7	; 0x7
     bfc:	0a00000b 	beq	c30 <pads_chmod+0xac>
     c00:	e3550002 	cmp	r5, #2	; 0x2
     c04:	0a000012 	beq	c54 <pads_chmod+0xd0>
     c08:	e59f209c 	ldr	r2, [pc, #156]	; cac <pads_chmod+0x128>
     c0c:	e1a03101 	lsl	r3, r1, #2
     c10:	e2551000 	subs	r1, r5, #0	; 0x0
     c14:	e0832002 	add	r2, r3, r2
     c18:	e59f0090 	ldr	r0, [pc, #144]	; cb0 <pads_chmod+0x12c>
     c1c:	1a000017 	bne	c80 <pads_chmod+0xfc>
     c20:	e5923000 	ldr	r3, [r2]
     c24:	e1c33c1a 	bic	r3, r3, sl, lsl ip
     c28:	e5823000 	str	r3, [r2]
     c2c:	ea000015 	b	c88 <pads_chmod+0x104>
     c30:	e59f3074 	ldr	r3, [pc, #116]	; cac <pads_chmod+0x128>
     c34:	e1a02101 	lsl	r2, r1, #2
     c38:	e0823003 	add	r3, r2, r3
     c3c:	e5932000 	ldr	r2, [r3]
     c40:	e1822c15 	orr	r2, r2, r5, lsl ip
     c44:	e5832000 	str	r2, [r3]
     c48:	e3a03000 	mov	r3, #0	; 0x0
     c4c:	e5863000 	str	r3, [r6]
     c50:	ea00000c 	b	c88 <pads_chmod+0x104>
     c54:	e59f2050 	ldr	r2, [pc, #80]	; cac <pads_chmod+0x128>
     c58:	e1a03101 	lsl	r3, r1, #2
     c5c:	e0832002 	add	r2, r3, r2
     c60:	e5923000 	ldr	r3, [r2]
     c64:	e2591000 	subs	r1, r9, #0	; 0x0
     c68:	13a01001 	movne	r1, #1	; 0x1
     c6c:	e1833c1a 	orr	r3, r3, sl, lsl ip
     c70:	e5823000 	str	r3, [r2]
     c74:	e586a000 	str	sl, [r6]
     c78:	e5881000 	str	r1, [r8]
     c7c:	ea000001 	b	c88 <pads_chmod+0x104>
     c80:	e1a0e00f 	mov	lr, pc
     c84:	e59bf000 	ldr	pc, [fp]
     c88:	e2844001 	add	r4, r4, #1	; 0x1
     c8c:	e2866040 	add	r6, r6, #64	; 0x40
     c90:	e2888040 	add	r8, r8, #64	; 0x40
     c94:	e1540007 	cmp	r4, r7
     c98:	e2843007 	add	r3, r4, #7	; 0x7
     c9c:	daffffd1 	ble	be8 <pads_chmod+0x64>
     ca0:	e28dd004 	add	sp, sp, #4	; 0x4
     ca4:	e8bd8ff0 	pop	{r4, r5, r6, r7, r8, r9, sl, fp, pc}
     ca8:	0800d76c 	.word	0x0800d76c
     cac:	2d009004 	.word	0x2d009004
     cb0:	00011b47 	.word	0x00011b47

00000cb4 <pads_pull>:
     cb4:	e1b02840 	asrs	r2, r0, #16
     cb8:	e1a00800 	lsl	r0, r0, #16
     cbc:	03a03000 	moveq	r3, #0	; 0x0
     cc0:	13a03001 	movne	r3, #1	; 0x1
     cc4:	e1a00820 	lsr	r0, r0, #16
     cc8:	e1520000 	cmp	r2, r0
     ccc:	a3a03000 	movge	r3, #0	; 0x0
     cd0:	b2033001 	andlt	r3, r3, #1	; 0x1
     cd4:	e3530000 	cmp	r3, #0	; 0x0
     cd8:	112fff1e 	bxne	lr
     cdc:	e1a03300 	lsl	r3, r0, #6
     ce0:	e28332c2 	add	r3, r3, #536870924	; 0x2000000c
     ce4:	e3520000 	cmp	r2, #0	; 0x0
     ce8:	01a02000 	moveq	r2, r0
     cec:	e283360f 	add	r3, r3, #15728640	; 0xf00000
     cf0:	e3a0c001 	mov	ip, #1	; 0x1
     cf4:	ea000004 	b	d0c <pads_pull+0x58>
     cf8:	e3510000 	cmp	r1, #0	; 0x0
     cfc:	05831000 	streq	r1, [r3]
     d00:	1583c000 	strne	ip, [r3]
     d04:	e2800001 	add	r0, r0, #1	; 0x1
     d08:	e2833040 	add	r3, r3, #64	; 0x40
     d0c:	e1500002 	cmp	r0, r2
     d10:	dafffff8 	ble	cf8 <pads_pull+0x44>
     d14:	e12fff1e 	bx	lr

00000d18 <pads_setpin>:
     d18:	e1b0c840 	asrs	ip, r0, #16
     d1c:	e1a00800 	lsl	r0, r0, #16
     d20:	03a03000 	moveq	r3, #0	; 0x0
     d24:	13a03001 	movne	r3, #1	; 0x1
     d28:	e1a00820 	lsr	r0, r0, #16
     d2c:	e15c0000 	cmp	ip, r0
     d30:	a3a03000 	movge	r3, #0	; 0x0
     d34:	b2033001 	andlt	r3, r3, #1	; 0x1
     d38:	e3530000 	cmp	r3, #0	; 0x0
     d3c:	112fff1e 	bxne	lr
     d40:	e1a03300 	lsl	r3, r0, #6
     d44:	e2832242 	add	r2, r3, #536870916	; 0x20000004
     d48:	e35c0000 	cmp	ip, #0	; 0x0
     d4c:	01a0c000 	moveq	ip, r0
     d50:	e282260f 	add	r2, r2, #15728640	; 0xf00000
     d54:	ea000002 	b	d64 <pads_setpin+0x4c>
     d58:	e2513000 	subs	r3, r1, #0	; 0x0
     d5c:	13a03001 	movne	r3, #1	; 0x1
     d60:	e4823040 	str	r3, [r2], #64
     d64:	e150000c 	cmp	r0, ip
     d68:	e2800001 	add	r0, r0, #1	; 0x1
     d6c:	dafffff9 	ble	d58 <pads_setpin+0x40>
     d70:	e12fff1e 	bx	lr

00000d74 <pads_getpin>:
     d74:	e59f3014 	ldr	r3, [pc, #20]	; d90 <pads_getpin+0x1c>
     d78:	e6f30070 	uxtah	r0, r3, r0
     d7c:	e1a00300 	lsl	r0, r0, #6
     d80:	e5900000 	ldr	r0, [r0]
     d84:	e2500000 	subs	r0, r0, #0	; 0x0
     d88:	13a00001 	movne	r0, #1	; 0x1
     d8c:	e12fff1e 	bx	lr
     d90:	0083c000 	.word	0x0083c000

00000d94 <init_alternate>:
     d94:	e52de004 	push	{lr}		; (str lr, [sp, #-4]!)
     d98:	e59f0010 	ldr	r0, [pc, #16]	; db0 <init_alternate+0x1c>
     d9c:	e24dd004 	sub	sp, sp, #4	; 0x4
     da0:	ebfffe5e 	bl	720 <module_enable>
     da4:	e3a00000 	mov	r0, #0	; 0x0
     da8:	e28dd004 	add	sp, sp, #4	; 0x4
     dac:	e8bd8000 	pop	{pc}
     db0:	2d013c00 	.word	0x2d013c00

00000db4 <cpu_recase>:
     db4:	e92d4010 	push	{r4, lr}
     db8:	e59f1098 	ldr	r1, [pc, #152]	; e58 <cpu_recase+0xa4>
     dbc:	e3a02004 	mov	r2, #4	; 0x4
     dc0:	e1a04000 	mov	r4, r0
     dc4:	eb000127 	bl	1268 <strncmp>
     dc8:	e3500000 	cmp	r0, #0	; 0x0
     dcc:	1a000002 	bne	ddc <cpu_recase+0x28>
     dd0:	eb0000ba 	bl	10c0 <get_mux>
     dd4:	e3c00004 	bic	r0, r0, #4	; 0x4
     dd8:	ea00000d 	b	e14 <cpu_recase+0x60>
     ddc:	e1a00004 	mov	r0, r4
     de0:	e59f1074 	ldr	r1, [pc, #116]	; e5c <cpu_recase+0xa8>
     de4:	e3a02005 	mov	r2, #5	; 0x5
     de8:	eb00011e 	bl	1268 <strncmp>
     dec:	e3500000 	cmp	r0, #0	; 0x0
     df0:	0a000005 	beq	e0c <cpu_recase+0x58>
     df4:	e1a00004 	mov	r0, r4
     df8:	e59f1060 	ldr	r1, [pc, #96]	; e60 <cpu_recase+0xac>
     dfc:	e3a02004 	mov	r2, #4	; 0x4
     e00:	eb000118 	bl	1268 <strncmp>
     e04:	e3500000 	cmp	r0, #0	; 0x0
     e08:	18bd8010 	popne	{r4, pc}
     e0c:	eb0000ab 	bl	10c0 <get_mux>
     e10:	e3800004 	orr	r0, r0, #4	; 0x4
     e14:	e59f3048 	ldr	r3, [pc, #72]	; e64 <cpu_recase+0xb0>
     e18:	e59f4044 	ldr	r4, [pc, #68]	; e64 <cpu_recase+0xb0>
     e1c:	e59f1044 	ldr	r1, [pc, #68]	; e68 <cpu_recase+0xb4>
     e20:	e5830000 	str	r0, [r3]
     e24:	e5942000 	ldr	r2, [r4]
     e28:	e5913000 	ldr	r3, [r1]
     e2c:	e1520003 	cmp	r2, r3
     e30:	08bd8010 	popeq	{r4, pc}
     e34:	e1a00002 	mov	r0, r2
     e38:	e5812000 	str	r2, [r1]
     e3c:	eb00009b 	bl	10b0 <set_mux>
     e40:	e5941000 	ldr	r1, [r4]
     e44:	e59f0020 	ldr	r0, [pc, #32]	; e6c <cpu_recase+0xb8>
     e48:	e59f3020 	ldr	r3, [pc, #32]	; e70 <cpu_recase+0xbc>
     e4c:	e1a0e00f 	mov	lr, pc
     e50:	e593f000 	ldr	pc, [r3]
     e54:	e8bd8010 	pop	{r4, pc}
     e58:	00011b5e 	.word	0x00011b5e
     e5c:	00011b63 	.word	0x00011b63
     e60:	000119ee 	.word	0x000119ee
     e64:	0800d1b0 	.word	0x0800d1b0
     e68:	0800d104 	.word	0x0800d104
     e6c:	00011b69 	.word	0x00011b69
     e70:	0800d76c 	.word	0x0800d76c

00000e74 <set_clk>:
     e74:	e92d4030 	push	{r4, r5, lr}
     e78:	e1d010b2 	ldrh	r1, [r0, #2]
     e7c:	e24dd004 	sub	sp, sp, #4	; 0x4
     e80:	e3510000 	cmp	r1, #0	; 0x0
     e84:	e1a04000 	mov	r4, r0
     e88:	0a000001 	beq	e94 <set_clk+0x20>
     e8c:	e3a00001 	mov	r0, #1	; 0x1
     e90:	ebfffdda 	bl	600 <set_pll>
     e94:	e1d410b4 	ldrh	r1, [r4, #4]
     e98:	e3510000 	cmp	r1, #0	; 0x0
     e9c:	0a000001 	beq	ea8 <set_clk+0x34>
     ea0:	e3a00002 	mov	r0, #2	; 0x2
     ea4:	ebfffdd5 	bl	600 <set_pll>
     ea8:	e1d410b6 	ldrh	r1, [r4, #6]
     eac:	e3510000 	cmp	r1, #0	; 0x0
     eb0:	0a000001 	beq	ebc <set_clk+0x48>
     eb4:	e3a00003 	mov	r0, #3	; 0x3
     eb8:	ebfffdd0 	bl	600 <set_pll>
     ebc:	e59f0094 	ldr	r0, [pc, #148]	; f58 <set_clk+0xe4>
     ec0:	e3a01001 	mov	r1, #1	; 0x1
     ec4:	e3a0200b 	mov	r2, #11	; 0xb
     ec8:	ebfffe09 	bl	6f4 <module_set_clock>
     ecc:	e59f0088 	ldr	r0, [pc, #136]	; f5c <set_clk+0xe8>
     ed0:	e3a01001 	mov	r1, #1	; 0x1
     ed4:	e3a02013 	mov	r2, #19	; 0x13
     ed8:	ebfffe05 	bl	6f4 <module_set_clock>
     edc:	e59f007c 	ldr	r0, [pc, #124]	; f60 <set_clk+0xec>
     ee0:	e3a01002 	mov	r1, #2	; 0x2
     ee4:	e3a0200f 	mov	r2, #15	; 0xf
     ee8:	ebfffe01 	bl	6f4 <module_set_clock>
     eec:	e59f0070 	ldr	r0, [pc, #112]	; f64 <set_clk+0xf0>
     ef0:	e3a01002 	mov	r1, #2	; 0x2
     ef4:	e3a02019 	mov	r2, #25	; 0x19
     ef8:	ebfffdfd 	bl	6f4 <module_set_clock>
     efc:	e59f4064 	ldr	r4, [pc, #100]	; f68 <set_clk+0xf4>
     f00:	e59f5064 	ldr	r5, [pc, #100]	; f6c <set_clk+0xf8>
     f04:	e1a00004 	mov	r0, r4
     f08:	e3a01002 	mov	r1, #2	; 0x2
     f0c:	e2844010 	add	r4, r4, #16	; 0x10
     f10:	e3a02003 	mov	r2, #3	; 0x3
     f14:	ebfffdf6 	bl	6f4 <module_set_clock>
     f18:	e1540005 	cmp	r4, r5
     f1c:	1afffff8 	bne	f04 <set_clk+0x90>
     f20:	e59f0048 	ldr	r0, [pc, #72]	; f70 <set_clk+0xfc>
     f24:	e3a01003 	mov	r1, #3	; 0x3
     f28:	e3a02013 	mov	r2, #19	; 0x13
     f2c:	ebfffdf0 	bl	6f4 <module_set_clock>
     f30:	e59f003c 	ldr	r0, [pc, #60]	; f74 <set_clk+0x100>
     f34:	e3a01001 	mov	r1, #1	; 0x1
     f38:	e3a02004 	mov	r2, #4	; 0x4
     f3c:	ebfffdec 	bl	6f4 <module_set_clock>
     f40:	e59f0030 	ldr	r0, [pc, #48]	; f78 <set_clk+0x104>
     f44:	e3a01002 	mov	r1, #2	; 0x2
     f48:	e3a02007 	mov	r2, #7	; 0x7
     f4c:	e28dd004 	add	sp, sp, #4	; 0x4
     f50:	e8bd4030 	pop	{r4, r5, lr}
     f54:	eafffde6 	b	6f4 <module_set_clock>
     f58:	2d00a250 	.word	0x2d00a250
     f5c:	2d00a2c0 	.word	0x2d00a2c0
     f60:	2d00a240 	.word	0x2d00a240
     f64:	2d00a290 	.word	0x2d00a290
     f68:	2d00a130 	.word	0x2d00a130
     f6c:	2d00a190 	.word	0x2d00a190
     f70:	2d00a260 	.word	0x2d00a260
     f74:	2d00a2a0 	.word	0x2d00a2a0
     f78:	2d00a360 	.word	0x2d00a360

00000f7c <chip_test>:
     f7c:	e59f0044 	ldr	r0, [pc, #68]	; fc8 <end+0x4>
     f80:	e5901000 	ldr	r1, [r0]
     f84:	e59f2040 	ldr	r2, [pc, #64]	; fcc <end+0x8>
     f88:	e1520001 	cmp	r2, r1
     f8c:	1a00000c 	bne	fc4 <end>
     f90:	e5901004 	ldr	r1, [r0, #4]
     f94:	e59f2034 	ldr	r2, [pc, #52]	; fd0 <end+0xc>
     f98:	e1520001 	cmp	r2, r1
     f9c:	1a000008 	bne	fc4 <end>
     fa0:	e5901008 	ldr	r1, [r0, #8]
     fa4:	e59f2028 	ldr	r2, [pc, #40]	; fd4 <end+0x10>
     fa8:	e1520001 	cmp	r2, r1
     fac:	1a000004 	bne	fc4 <end>
     fb0:	e590100c 	ldr	r1, [r0, #12]
     fb4:	e59f201c 	ldr	r2, [pc, #28]	; fd8 <end+0x14>
     fb8:	e1520001 	cmp	r2, r1
     fbc:	1a000000 	bne	fc4 <end>
     fc0:	e59ff014 	ldr	pc, [pc, #20]	; fdc <end+0x18>

00000fc4 <end>:
     fc4:	e1a0f00e 	mov	pc, lr
     fc8:	08000040 	.word	0x08000040
     fcc:	6f666e69 	.word	0x6f666e69
     fd0:	612d6d74 	.word	0x612d6d74
     fd4:	2d6e696c 	.word	0x2d6e696c
     fd8:	796c6e6f 	.word	0x796c6e6f
     fdc:	08000200 	.word	0x08000200

00000fe0 <module_get_clock>:
     fe0:	e59f30a4 	ldr	r3, [pc, #164]	; 108c <module_get_clock+0xac>
     fe4:	e1500003 	cmp	r0, r3
     fe8:	0a00001d 	beq	1064 <module_get_clock+0x84>
     fec:	8a00000c 	bhi	1024 <module_get_clock+0x44>
     ff0:	e3500003 	cmp	r0, #3	; 0x3
     ff4:	0a000022 	beq	1084 <module_get_clock+0xa4>
     ff8:	8a000002 	bhi	1008 <module_get_clock+0x28>
     ffc:	e3500001 	cmp	r0, #1	; 0x1
    1000:	1a00001d 	bne	107c <module_get_clock+0x9c>
    1004:	ea00001e 	b	1084 <module_get_clock+0xa4>
    1008:	e59f3080 	ldr	r3, [pc, #128]	; 1090 <module_get_clock+0xb0>
    100c:	e1500003 	cmp	r0, r3
    1010:	0a000013 	beq	1064 <module_get_clock+0x84>
    1014:	e2833010 	add	r3, r3, #16	; 0x10
    1018:	e1500003 	cmp	r0, r3
    101c:	1a000016 	bne	107c <module_get_clock+0x9c>
    1020:	ea00000f 	b	1064 <module_get_clock+0x84>
    1024:	e59f3068 	ldr	r3, [pc, #104]	; 1094 <module_get_clock+0xb4>
    1028:	e1500003 	cmp	r0, r3
    102c:	0a00000c 	beq	1064 <module_get_clock+0x84>
    1030:	8a000003 	bhi	1044 <module_get_clock+0x64>
    1034:	e2433010 	sub	r3, r3, #16	; 0x10
    1038:	e1500003 	cmp	r0, r3
    103c:	1a00000e 	bne	107c <module_get_clock+0x9c>
    1040:	ea000009 	b	106c <module_get_clock+0x8c>
    1044:	e59f304c 	ldr	r3, [pc, #76]	; 1098 <module_get_clock+0xb8>
    1048:	e1500003 	cmp	r0, r3
    104c:	059f0048 	ldreq	r0, [pc, #72]	; 109c <module_get_clock+0xbc>
    1050:	012fff1e 	bxeq	lr
    1054:	e28330a0 	add	r3, r3, #160	; 0xa0
    1058:	e1500003 	cmp	r0, r3
    105c:	1a000006 	bne	107c <module_get_clock+0x9c>
    1060:	ea000003 	b	1074 <module_get_clock+0x94>
    1064:	e59f0034 	ldr	r0, [pc, #52]	; 10a0 <module_get_clock+0xc0>
    1068:	e12fff1e 	bx	lr
    106c:	e59f0030 	ldr	r0, [pc, #48]	; 10a4 <module_get_clock+0xc4>
    1070:	e12fff1e 	bx	lr
    1074:	e59f002c 	ldr	r0, [pc, #44]	; 10a8 <module_get_clock+0xc8>
    1078:	e12fff1e 	bx	lr
    107c:	e3a00000 	mov	r0, #0	; 0x0
    1080:	e12fff1e 	bx	lr
    1084:	e59f0020 	ldr	r0, [pc, #32]	; 10ac <module_get_clock+0xcc>
    1088:	e12fff1e 	bx	lr
    108c:	2d00a260 	.word	0x2d00a260
    1090:	2d00a240 	.word	0x2d00a240
    1094:	2d00a2a0 	.word	0x2d00a2a0
    1098:	2d00a2c0 	.word	0x2d00a2c0
    109c:	02dc6c00 	.word	0x02dc6c00
    10a0:	016e3600 	.word	0x016e3600
    10a4:	02625a00 	.word	0x02625a00
    10a8:	00e4e1c0 	.word	0x00e4e1c0
    10ac:	01312d00 	.word	0x01312d00

000010b0 <set_mux>:
    10b0:	e59f3004 	ldr	r3, [pc, #4]	; 10bc <set_mux+0xc>
    10b4:	e5830000 	str	r0, [r3]
    10b8:	e12fff1e 	bx	lr
    10bc:	2d009000 	.word	0x2d009000

000010c0 <get_mux>:
    10c0:	e59f3004 	ldr	r3, [pc, #4]	; 10cc <get_mux+0xc>
    10c4:	e5930000 	ldr	r0, [r3]
    10c8:	e12fff1e 	bx	lr
    10cc:	2d009000 	.word	0x2d009000

000010d0 <efuse_inject>:
    10d0:	e92d4010 	push	{r4, lr}
    10d4:	e24dd030 	sub	sp, sp, #48	; 0x30
    10d8:	e59f109c 	ldr	r1, [pc, #156]	; 117c <efuse_inject+0xac>
    10dc:	e3a02020 	mov	r2, #32	; 0x20
    10e0:	e1a0000d 	mov	r0, sp
    10e4:	eb000098 	bl	134c <memcpy>
    10e8:	e3a01000 	mov	r1, #0	; 0x0
    10ec:	e3a02010 	mov	r2, #16	; 0x10
    10f0:	e28d0020 	add	r0, sp, #32	; 0x20
    10f4:	eb00008c 	bl	132c <memset>
    10f8:	e3a0302e 	mov	r3, #46	; 0x2e
    10fc:	e5cd3020 	strb	r3, [sp, #32]
    1100:	e59f1078 	ldr	r1, [pc, #120]	; 1180 <efuse_inject+0xb0>
    1104:	e3a03016 	mov	r3, #22	; 0x16
    1108:	e5cd3021 	strb	r3, [sp, #33]
    110c:	e1a0400d 	mov	r4, sp
    1110:	e3a02000 	mov	r2, #0	; 0x0
    1114:	e7d43002 	ldrb	r3, [r4, r2]
    1118:	e2822001 	add	r2, r2, #1	; 0x1
    111c:	e3520020 	cmp	r2, #32	; 0x20
    1120:	e4813004 	str	r3, [r1], #4
    1124:	1afffffa 	bne	1114 <efuse_inject+0x44>
    1128:	e59f1054 	ldr	r1, [pc, #84]	; 1184 <efuse_inject+0xb4>
    112c:	e3a02000 	mov	r2, #0	; 0x0
    1130:	e28d0020 	add	r0, sp, #32	; 0x20
    1134:	e7d03002 	ldrb	r3, [r0, r2]
    1138:	e2822001 	add	r2, r2, #1	; 0x1
    113c:	e3520010 	cmp	r2, #16	; 0x10
    1140:	e4813004 	str	r3, [r1], #4
    1144:	1afffffa 	bne	1134 <efuse_inject+0x64>
    1148:	e59f3030 	ldr	r3, [pc, #48]	; 1180 <efuse_inject+0xb0>
    114c:	e3a02018 	mov	r2, #24	; 0x18
    1150:	e5832100 	str	r2, [r3, #256]
    1154:	e3a02001 	mov	r2, #1	; 0x1
    1158:	e2433a01 	sub	r3, r3, #4096	; 0x1000
    115c:	e5832000 	str	r2, [r3]
    1160:	e3a04000 	mov	r4, #0	; 0x0
    1164:	e2433a03 	sub	r3, r3, #12288	; 0x3000
    1168:	e5834c34 	str	r4, [r3, #3124]
    116c:	ebfffe67 	bl	b10 <init_efuse>
    1170:	e1a00004 	mov	r0, r4
    1174:	e28dd030 	add	sp, sp, #48	; 0x30
    1178:	e8bd8010 	pop	{r4, pc}
    117c:	000117ec 	.word	0x000117ec
    1180:	2d00e000 	.word	0x2d00e000
    1184:	2d00e080 	.word	0x2d00e080

00001188 <strcpy>:
    1188:	e3a02000 	mov	r2, #0	; 0x0
    118c:	e7d13002 	ldrb	r3, [r1, r2]
    1190:	e3530000 	cmp	r3, #0	; 0x0
    1194:	e7c03002 	strb	r3, [r0, r2]
    1198:	e2822001 	add	r2, r2, #1	; 0x1
    119c:	1afffffa 	bne	118c <strcpy+0x4>
    11a0:	e12fff1e 	bx	lr

000011a4 <strncpy>:
    11a4:	e3a0c000 	mov	ip, #0	; 0x0
    11a8:	e3520000 	cmp	r2, #0	; 0x0
    11ac:	e2422001 	sub	r2, r2, #1	; 0x1
    11b0:	012fff1e 	bxeq	lr
    11b4:	e7d1300c 	ldrb	r3, [r1, ip]
    11b8:	e3530000 	cmp	r3, #0	; 0x0
    11bc:	e7c0300c 	strb	r3, [r0, ip]
    11c0:	e28cc001 	add	ip, ip, #1	; 0x1
    11c4:	1afffff7 	bne	11a8 <strncpy+0x4>
    11c8:	e12fff1e 	bx	lr

000011cc <strncat>:
    11cc:	e92d4030 	push	{r4, r5, lr}
    11d0:	e2525000 	subs	r5, r2, #0	; 0x0
    11d4:	e1a04001 	mov	r4, r1
    11d8:	11a0c000 	movne	ip, r0
    11dc:	1a000001 	bne	11e8 <strncat+0x1c>
    11e0:	e8bd8030 	pop	{r4, r5, pc}
    11e4:	e28cc001 	add	ip, ip, #1	; 0x1
    11e8:	e5dc3000 	ldrb	r3, [ip]
    11ec:	e3530000 	cmp	r3, #0	; 0x0
    11f0:	1afffffb 	bne	11e4 <strncat+0x18>
    11f4:	ea000004 	b	120c <strncat+0x40>
    11f8:	e1550002 	cmp	r5, r2
    11fc:	1a000004 	bne	1214 <strncat+0x48>
    1200:	e3a03000 	mov	r3, #0	; 0x0
    1204:	e5cc3000 	strb	r3, [ip]
    1208:	e8bd8030 	pop	{r4, r5, pc}
    120c:	e1a02003 	mov	r2, r3
    1210:	e1a0100c 	mov	r1, ip
    1214:	e7d43002 	ldrb	r3, [r4, r2]
    1218:	e28cc001 	add	ip, ip, #1	; 0x1
    121c:	e3530000 	cmp	r3, #0	; 0x0
    1220:	e7c13002 	strb	r3, [r1, r2]
    1224:	e2822001 	add	r2, r2, #1	; 0x1
    1228:	1afffff2 	bne	11f8 <strncat+0x2c>
    122c:	e8bd8030 	pop	{r4, r5, pc}

00001230 <strcmp>:
    1230:	e92d4010 	push	{r4, lr}
    1234:	e3a02000 	mov	r2, #0	; 0x0
    1238:	e1a04000 	mov	r4, r0
    123c:	e7d4c002 	ldrb	ip, [r4, r2]
    1240:	e7d13002 	ldrb	r3, [r1, r2]
    1244:	e2822001 	add	r2, r2, #1	; 0x1
    1248:	e063300c 	rsb	r3, r3, ip
    124c:	e6ef0073 	uxtb	r0, r3
    1250:	e3500000 	cmp	r0, #0	; 0x0
    1254:	1a000001 	bne	1260 <strcmp+0x30>
    1258:	e35c0000 	cmp	ip, #0	; 0x0
    125c:	1afffff6 	bne	123c <strcmp+0xc>
    1260:	e6af0070 	sxtb	r0, r0
    1264:	e8bd8010 	pop	{r4, pc}

00001268 <strncmp>:
    1268:	e92d4030 	push	{r4, r5, lr}
    126c:	e3a0c000 	mov	ip, #0	; 0x0
    1270:	e1a05000 	mov	r5, r0
    1274:	e1a04001 	mov	r4, r1
    1278:	ea000009 	b	12a4 <strncmp+0x3c>
    127c:	e7d5100c 	ldrb	r1, [r5, ip]
    1280:	e7d4300c 	ldrb	r3, [r4, ip]
    1284:	e2422001 	sub	r2, r2, #1	; 0x1
    1288:	e0633001 	rsb	r3, r3, r1
    128c:	e6ef0073 	uxtb	r0, r3
    1290:	e3500000 	cmp	r0, #0	; 0x0
    1294:	e28cc001 	add	ip, ip, #1	; 0x1
    1298:	1a000004 	bne	12b0 <strncmp+0x48>
    129c:	e3510000 	cmp	r1, #0	; 0x0
    12a0:	0a000002 	beq	12b0 <strncmp+0x48>
    12a4:	e3520000 	cmp	r2, #0	; 0x0
    12a8:	1afffff3 	bne	127c <strncmp+0x14>
    12ac:	e1a00002 	mov	r0, r2
    12b0:	e6af0070 	sxtb	r0, r0
    12b4:	e8bd8030 	pop	{r4, r5, pc}

000012b8 <strchr>:
    12b8:	e1a03000 	mov	r3, r0
    12bc:	e6ef1071 	uxtb	r1, r1
    12c0:	ea000002 	b	12d0 <strchr+0x18>
    12c4:	e3500000 	cmp	r0, #0	; 0x0
    12c8:	012fff1e 	bxeq	lr
    12cc:	e2833001 	add	r3, r3, #1	; 0x1
    12d0:	e5d30000 	ldrb	r0, [r3]
    12d4:	e1500001 	cmp	r0, r1
    12d8:	1afffff9 	bne	12c4 <strchr+0xc>
    12dc:	e1a00003 	mov	r0, r3
    12e0:	e12fff1e 	bx	lr

000012e4 <strlen>:
    12e4:	e1a02000 	mov	r2, r0
    12e8:	ea000000 	b	12f0 <strlen+0xc>
    12ec:	e2800001 	add	r0, r0, #1	; 0x1
    12f0:	e5d03000 	ldrb	r3, [r0]
    12f4:	e3530000 	cmp	r3, #0	; 0x0
    12f8:	1afffffb 	bne	12ec <strlen+0x8>
    12fc:	e0620000 	rsb	r0, r2, r0
    1300:	e12fff1e 	bx	lr

00001304 <strnlen>:
    1304:	e3a02000 	mov	r2, #0	; 0x0
    1308:	e1510002 	cmp	r1, r2
    130c:	e080c002 	add	ip, r0, r2
    1310:	0a000003 	beq	1324 <strnlen+0x20>
    1314:	e7d03002 	ldrb	r3, [r0, r2]
    1318:	e2822001 	add	r2, r2, #1	; 0x1
    131c:	e3530000 	cmp	r3, #0	; 0x0
    1320:	1afffff8 	bne	1308 <strnlen+0x4>
    1324:	e060000c 	rsb	r0, r0, ip
    1328:	e12fff1e 	bx	lr

0000132c <memset>:
    132c:	e3a03000 	mov	r3, #0	; 0x0
    1330:	ea000001 	b	133c <memset+0x10>
    1334:	e7c01003 	strb	r1, [r0, r3]
    1338:	e2833001 	add	r3, r3, #1	; 0x1
    133c:	e3520000 	cmp	r2, #0	; 0x0
    1340:	e2422001 	sub	r2, r2, #1	; 0x1
    1344:	1afffffa 	bne	1334 <memset+0x8>
    1348:	e12fff1e 	bx	lr

0000134c <memcpy>:
    134c:	e3a0c000 	mov	ip, #0	; 0x0
    1350:	ea000002 	b	1360 <memcpy+0x14>
    1354:	e7d1300c 	ldrb	r3, [r1, ip]
    1358:	e7c0300c 	strb	r3, [r0, ip]
    135c:	e28cc001 	add	ip, ip, #1	; 0x1
    1360:	e3520000 	cmp	r2, #0	; 0x0
    1364:	e2422001 	sub	r2, r2, #1	; 0x1
    1368:	1afffff9 	bne	1354 <memcpy+0x8>
    136c:	e12fff1e 	bx	lr

00001370 <memmove>:
    1370:	e1500001 	cmp	r0, r1
    1374:	e92d4010 	push	{r4, lr}
    1378:	08bd8010 	popeq	{r4, pc}
    137c:	93a0c000 	movls	ip, #0	; 0x0
    1380:	9a000003 	bls	1394 <memmove+0x24>
    1384:	ea000006 	b	13a4 <memmove+0x34>
    1388:	e7d1300c 	ldrb	r3, [r1, ip]
    138c:	e7c0300c 	strb	r3, [r0, ip]
    1390:	e28cc001 	add	ip, ip, #1	; 0x1
    1394:	e3520000 	cmp	r2, #0	; 0x0
    1398:	e2422001 	sub	r2, r2, #1	; 0x1
    139c:	1afffff9 	bne	1388 <memmove+0x18>
    13a0:	e8bd8010 	pop	{r4, pc}
    13a4:	e0814002 	add	r4, r1, r2
    13a8:	e3a0c000 	mov	ip, #0	; 0x0
    13ac:	e0801002 	add	r1, r0, r2
    13b0:	ea000001 	b	13bc <memmove+0x4c>
    13b4:	e7d4300c 	ldrb	r3, [r4, ip]
    13b8:	e7c1300c 	strb	r3, [r1, ip]
    13bc:	e3520000 	cmp	r2, #0	; 0x0
    13c0:	e24cc001 	sub	ip, ip, #1	; 0x1
    13c4:	e2422001 	sub	r2, r2, #1	; 0x1
    13c8:	1afffff9 	bne	13b4 <memmove+0x44>
    13cc:	e8bd8010 	pop	{r4, pc}

000013d0 <memcmp>:
    13d0:	e92d4030 	push	{r4, r5, lr}
    13d4:	e3a0c000 	mov	ip, #0	; 0x0
    13d8:	e1a04001 	mov	r4, r1
    13dc:	e1a05000 	mov	r5, r0
    13e0:	e1a01002 	mov	r1, r2
    13e4:	ea000005 	b	1400 <memcmp+0x30>
    13e8:	e7d5200c 	ldrb	r2, [r5, ip]
    13ec:	e7d4300c 	ldrb	r3, [r4, ip]
    13f0:	e28cc001 	add	ip, ip, #1	; 0x1
    13f4:	e0520003 	subs	r0, r2, r3
    13f8:	18bd8030 	popne	{r4, r5, pc}
    13fc:	e2411001 	sub	r1, r1, #1	; 0x1
    1400:	e3510000 	cmp	r1, #0	; 0x0
    1404:	1afffff7 	bne	13e8 <memcmp+0x18>
    1408:	e1a00001 	mov	r0, r1
    140c:	e8bd8030 	pop	{r4, r5, pc}

00001410 <so_m_isused>:
    1410:	e5903004 	ldr	r3, [r0, #4]
    1414:	e3130103 	tst	r3, #-1073741824	; 0xc0000000
    1418:	03a00000 	moveq	r0, #0	; 0x0
    141c:	13a00001 	movne	r0, #1	; 0x1
    1420:	e12fff1e 	bx	lr

00001424 <so_m_set_used>:
    1424:	e5903004 	ldr	r3, [r0, #4]
    1428:	e3833101 	orr	r3, r3, #1073741824	; 0x40000000
    142c:	e5803004 	str	r3, [r0, #4]
    1430:	e12fff1e 	bx	lr

00001434 <so_m_unset_used>:
    1434:	e5903004 	ldr	r3, [r0, #4]
    1438:	e3c33103 	bic	r3, r3, #-1073741824	; 0xc0000000
    143c:	e5803004 	str	r3, [r0, #4]
    1440:	e12fff1e 	bx	lr

00001444 <so_m_get_size>:
    1444:	e5900004 	ldr	r0, [r0, #4]
    1448:	e3c00103 	bic	r0, r0, #-1073741824	; 0xc0000000
    144c:	e12fff1e 	bx	lr

00001450 <so_m_set_size>:
    1450:	e5903004 	ldr	r3, [r0, #4]
    1454:	e3c11103 	bic	r1, r1, #-1073741824	; 0xc0000000
    1458:	e2033103 	and	r3, r3, #-1073741824	; 0xc0000000
    145c:	e1811003 	orr	r1, r1, r3
    1460:	e5801004 	str	r1, [r0, #4]
    1464:	e12fff1e 	bx	lr

00001468 <so_m_alloc>:
    1468:	e59f3048 	ldr	r3, [pc, #72]	; 14b8 <so_m_alloc+0x50>
    146c:	e3a02000 	mov	r2, #0	; 0x0
    1470:	e593c000 	ldr	ip, [r3]
    1474:	e5931008 	ldr	r1, [r3, #8]
    1478:	ea000007 	b	149c <so_m_alloc+0x34>
    147c:	e5903004 	ldr	r3, [r0, #4]
    1480:	e3530000 	cmp	r3, #0	; 0x0
    1484:	1a000004 	bne	149c <so_m_alloc+0x34>
    1488:	e59f2028 	ldr	r2, [pc, #40]	; 14b8 <so_m_alloc+0x50>
    148c:	e5923004 	ldr	r3, [r2, #4]
    1490:	e2433001 	sub	r3, r3, #1	; 0x1
    1494:	e5823004 	str	r3, [r2, #4]
    1498:	e12fff1e 	bx	lr
    149c:	e152000c 	cmp	r2, ip
    14a0:	e1a00001 	mov	r0, r1
    14a4:	e2822001 	add	r2, r2, #1	; 0x1
    14a8:	e2811010 	add	r1, r1, #16	; 0x10
    14ac:	3afffff2 	bcc	147c <so_m_alloc+0x14>
    14b0:	e3a00000 	mov	r0, #0	; 0x0
    14b4:	e12fff1e 	bx	lr
    14b8:	0800d7ac 	.word	0x0800d7ac

000014bc <so_m_remove>:
    14bc:	e3a03000 	mov	r3, #0	; 0x0
    14c0:	e59f2014 	ldr	r2, [pc, #20]	; 14dc <so_m_remove+0x20>
    14c4:	e5803000 	str	r3, [r0]
    14c8:	e5803004 	str	r3, [r0, #4]
    14cc:	e5923004 	ldr	r3, [r2, #4]
    14d0:	e2833001 	add	r3, r3, #1	; 0x1
    14d4:	e5823004 	str	r3, [r2, #4]
    14d8:	e12fff1e 	bx	lr
    14dc:	0800d7ac 	.word	0x0800d7ac

000014e0 <malloc>:
    14e0:	e3500000 	cmp	r0, #0	; 0x0
    14e4:	e92d4070 	push	{r4, r5, r6, lr}
    14e8:	0a000047 	beq	160c <malloc+0x12c>
    14ec:	e59f1120 	ldr	r1, [pc, #288]	; 1614 <malloc+0x134>
    14f0:	e280301f 	add	r3, r0, #31	; 0x1f
    14f4:	e5b12014 	ldr	r2, [r1, #20]!
    14f8:	e3c3401f 	bic	r4, r3, #31	; 0x1f
    14fc:	e2425008 	sub	r5, r2, #8	; 0x8
    1500:	ea000009 	b	152c <malloc+0x4c>
    1504:	e5953004 	ldr	r3, [r5, #4]
    1508:	e2130103 	ands	r0, r3, #-1073741824	; 0xc0000000
    150c:	e3c32103 	bic	r2, r3, #-1073741824	; 0xc0000000
    1510:	1a000003 	bne	1524 <malloc+0x44>
    1514:	e1520004 	cmp	r2, r4
    1518:	3a000001 	bcc	1524 <malloc+0x44>
    151c:	9a000030 	bls	15e4 <malloc+0x104>
    1520:	ea000005 	b	153c <malloc+0x5c>
    1524:	e5953008 	ldr	r3, [r5, #8]
    1528:	e2435008 	sub	r5, r3, #8	; 0x8
    152c:	e2853008 	add	r3, r5, #8	; 0x8
    1530:	e1530001 	cmp	r3, r1
    1534:	1afffff2 	bne	1504 <malloc+0x24>
    1538:	ea000033 	b	160c <malloc+0x12c>
    153c:	e59f30d0 	ldr	r3, [pc, #208]	; 1614 <malloc+0x134>
    1540:	e1a01000 	mov	r1, r0
    1544:	e5932008 	ldr	r2, [r3, #8]
    1548:	e5930000 	ldr	r0, [r3]
    154c:	ea00000a 	b	157c <malloc+0x9c>
    1550:	e5923004 	ldr	r3, [r2, #4]
    1554:	e2822010 	add	r2, r2, #16	; 0x10
    1558:	e3530000 	cmp	r3, #0	; 0x0
    155c:	1a000006 	bne	157c <malloc+0x9c>
    1560:	e59f20ac 	ldr	r2, [pc, #172]	; 1614 <malloc+0x134>
    1564:	e3560000 	cmp	r6, #0	; 0x0
    1568:	e5923004 	ldr	r3, [r2, #4]
    156c:	e2433001 	sub	r3, r3, #1	; 0x1
    1570:	e5823004 	str	r3, [r2, #4]
    1574:	1a000005 	bne	1590 <malloc+0xb0>
    1578:	ea000023 	b	160c <malloc+0x12c>
    157c:	e1510000 	cmp	r1, r0
    1580:	e1a06002 	mov	r6, r2
    1584:	e2811001 	add	r1, r1, #1	; 0x1
    1588:	3afffff0 	bcc	1550 <malloc+0x70>
    158c:	ea00001e 	b	160c <malloc+0x12c>
    1590:	e5953004 	ldr	r3, [r5, #4]
    1594:	e5962004 	ldr	r2, [r6, #4]
    1598:	e0643003 	rsb	r3, r4, r3
    159c:	e2022103 	and	r2, r2, #-1073741824	; 0xc0000000
    15a0:	e3c33103 	bic	r3, r3, #-1073741824	; 0xc0000000
    15a4:	e1833002 	orr	r3, r3, r2
    15a8:	e5863004 	str	r3, [r6, #4]
    15ac:	e5951000 	ldr	r1, [r5]
    15b0:	e5950004 	ldr	r0, [r5, #4]
    15b4:	e1a0c005 	mov	ip, r5
    15b8:	e1a03006 	mov	r3, r6
    15bc:	e0841001 	add	r1, r4, r1
    15c0:	e3c42103 	bic	r2, r4, #-1073741824	; 0xc0000000
    15c4:	e2000103 	and	r0, r0, #-1073741824	; 0xc0000000
    15c8:	e5bc4008 	ldr	r4, [ip, #8]!
    15cc:	e4831008 	str	r1, [r3], #8
    15d0:	e1822000 	orr	r2, r2, r0
    15d4:	e5864008 	str	r4, [r6, #8]
    15d8:	e5843004 	str	r3, [r4, #4]
    15dc:	e985000c 	stmib	r5, {r2, r3}
    15e0:	e586c00c 	str	ip, [r6, #12]
    15e4:	e5953004 	ldr	r3, [r5, #4]
    15e8:	e59f1024 	ldr	r1, [pc, #36]	; 1614 <malloc+0x134>
    15ec:	e3833101 	orr	r3, r3, #1073741824	; 0x40000000
    15f0:	e5853004 	str	r3, [r5, #4]
    15f4:	e5912010 	ldr	r2, [r1, #16]
    15f8:	e3c33103 	bic	r3, r3, #-1073741824	; 0xc0000000
    15fc:	e0833002 	add	r3, r3, r2
    1600:	e5813010 	str	r3, [r1, #16]
    1604:	e5950000 	ldr	r0, [r5]
    1608:	e8bd8070 	pop	{r4, r5, r6, pc}
    160c:	e3a00000 	mov	r0, #0	; 0x0
    1610:	e8bd8070 	pop	{r4, r5, r6, pc}
    1614:	0800d7ac 	.word	0x0800d7ac

00001618 <__sOMERGe>:
    1618:	e5902004 	ldr	r2, [r0, #4]
    161c:	e92d4030 	push	{r4, r5, lr}
    1620:	e3120103 	tst	r2, #-1073741824	; 0xc0000000
    1624:	e1a05000 	mov	r5, r0
    1628:	e1a0c001 	mov	ip, r1
    162c:	18bd8030 	popne	{r4, r5, pc}
    1630:	e5913004 	ldr	r3, [r1, #4]
    1634:	e2134103 	ands	r4, r3, #-1073741824	; 0xc0000000
    1638:	18bd8030 	popne	{r4, r5, pc}
    163c:	e0823003 	add	r3, r2, r3
    1640:	e3c33103 	bic	r3, r3, #-1073741824	; 0xc0000000
    1644:	e59f0030 	ldr	r0, [pc, #48]	; 167c <__sOMERGe+0x64>
    1648:	e5853004 	str	r3, [r5, #4]
    164c:	e5814000 	str	r4, [r1]
    1650:	e5814004 	str	r4, [r1, #4]
    1654:	e5903004 	ldr	r3, [r0, #4]
    1658:	e591100c 	ldr	r1, [r1, #12]
    165c:	e59c2008 	ldr	r2, [ip, #8]
    1660:	e2833001 	add	r3, r3, #1	; 0x1
    1664:	e5812000 	str	r2, [r1]
    1668:	e5821004 	str	r1, [r2, #4]
    166c:	e5803004 	str	r3, [r0, #4]
    1670:	e58c4008 	str	r4, [ip, #8]
    1674:	e58c400c 	str	r4, [ip, #12]
    1678:	e8bd8030 	pop	{r4, r5, pc}
    167c:	0800d7ac 	.word	0x0800d7ac

00001680 <free>:
    1680:	e3500000 	cmp	r0, #0	; 0x0
    1684:	159f2090 	ldrne	r2, [pc, #144]	; 171c <free+0x9c>
    1688:	e92d4010 	push	{r4, lr}
    168c:	15b23014 	ldrne	r3, [r2, #20]!
    1690:	1a000004 	bne	16a8 <free+0x28>
    1694:	e8bd8010 	pop	{r4, pc}
    1698:	e5943000 	ldr	r3, [r4]
    169c:	e1500003 	cmp	r0, r3
    16a0:	0a000005 	beq	16bc <free+0x3c>
    16a4:	e5943008 	ldr	r3, [r4, #8]
    16a8:	e2434008 	sub	r4, r3, #8	; 0x8
    16ac:	e2843008 	add	r3, r4, #8	; 0x8
    16b0:	e1530002 	cmp	r3, r2
    16b4:	1afffff7 	bne	1698 <free+0x18>
    16b8:	e8bd8010 	pop	{r4, pc}
    16bc:	e5943004 	ldr	r3, [r4, #4]
    16c0:	e3130103 	tst	r3, #-1073741824	; 0xc0000000
    16c4:	08bd8010 	popeq	{r4, pc}
    16c8:	e3c33103 	bic	r3, r3, #-1073741824	; 0xc0000000
    16cc:	e59f1048 	ldr	r1, [pc, #72]	; 171c <free+0x9c>
    16d0:	e5843004 	str	r3, [r4, #4]
    16d4:	e5912010 	ldr	r2, [r1, #16]
    16d8:	e5940008 	ldr	r0, [r4, #8]
    16dc:	e0632002 	rsb	r2, r3, r2
    16e0:	e59f3038 	ldr	r3, [pc, #56]	; 1720 <free+0xa0>
    16e4:	e5812010 	str	r2, [r1, #16]
    16e8:	e1500003 	cmp	r0, r3
    16ec:	0a000002 	beq	16fc <free+0x7c>
    16f0:	e2401008 	sub	r1, r0, #8	; 0x8
    16f4:	e1a00004 	mov	r0, r4
    16f8:	ebffffc6 	bl	1618 <__sOMERGe>
    16fc:	e594000c 	ldr	r0, [r4, #12]
    1700:	e59f3018 	ldr	r3, [pc, #24]	; 1720 <free+0xa0>
    1704:	e1500003 	cmp	r0, r3
    1708:	08bd8010 	popeq	{r4, pc}
    170c:	e2400008 	sub	r0, r0, #8	; 0x8
    1710:	e1a01004 	mov	r1, r4
    1714:	e8bd4010 	pop	{r4, lr}
    1718:	eaffffbe 	b	1618 <__sOMERGe>
    171c:	0800d7ac 	.word	0x0800d7ac
    1720:	0800d7c0 	.word	0x0800d7c0

00001724 <__sOINFo>:
    1724:	e92d40f0 	push	{r4, r5, r6, r7, lr}
    1728:	e59f50a8 	ldr	r5, [pc, #168]	; 17d8 <__sOINFo+0xb4>
    172c:	e24dd004 	sub	sp, sp, #4	; 0x4
    1730:	e59f60a4 	ldr	r6, [pc, #164]	; 17dc <__sOINFo+0xb8>
    1734:	e8950006 	ldm	r5, {r1, r2}
    1738:	e59f00a0 	ldr	r0, [pc, #160]	; 17e0 <__sOINFo+0xbc>
    173c:	e1a0e00f 	mov	lr, pc
    1740:	e596f000 	ldr	pc, [r6]
    1744:	e2853008 	add	r3, r5, #8	; 0x8
    1748:	e8930098 	ldm	r3, {r3, r4, r7}
    174c:	e2444b01 	sub	r4, r4, #1024	; 0x400
    1750:	e0634004 	rsb	r4, r3, r4
    1754:	e3a00064 	mov	r0, #100	; 0x64
    1758:	e1a01004 	mov	r1, r4
    175c:	e0000790 	mul	r0, r0, r7
    1760:	eb003a68 	bl	10108 <__aeabi_uidiv>
    1764:	e1a01004 	mov	r1, r4
    1768:	e1a03000 	mov	r3, r0
    176c:	e1a02007 	mov	r2, r7
    1770:	e59f006c 	ldr	r0, [pc, #108]	; 17e4 <__sOINFo+0xc0>
    1774:	e1a0e00f 	mov	lr, pc
    1778:	e596f000 	ldr	pc, [r6]
    177c:	e59f0064 	ldr	r0, [pc, #100]	; 17e8 <__sOINFo+0xc4>
    1780:	e1a0e00f 	mov	lr, pc
    1784:	e596f000 	ldr	pc, [r6]
    1788:	e59f005c 	ldr	r0, [pc, #92]	; 17ec <__sOINFo+0xc8>
    178c:	e1a0e00f 	mov	lr, pc
    1790:	e596f000 	ldr	pc, [r6]
    1794:	e5b53014 	ldr	r3, [r5, #20]!
    1798:	ea000007 	b	17bc <__sOINFo+0x98>
    179c:	e8940006 	ldm	r4, {r1, r2}
    17a0:	e3120103 	tst	r2, #-1073741824	; 0xc0000000
    17a4:	03a03000 	moveq	r3, #0	; 0x0
    17a8:	13a03001 	movne	r3, #1	; 0x1
    17ac:	e3c22103 	bic	r2, r2, #-1073741824	; 0xc0000000
    17b0:	e1a0e00f 	mov	lr, pc
    17b4:	e596f000 	ldr	pc, [r6]
    17b8:	e5943008 	ldr	r3, [r4, #8]
    17bc:	e2434008 	sub	r4, r3, #8	; 0x8
    17c0:	e2843008 	add	r3, r4, #8	; 0x8
    17c4:	e1530005 	cmp	r3, r5
    17c8:	e59f0020 	ldr	r0, [pc, #32]	; 17f0 <__sOINFo+0xcc>
    17cc:	1afffff2 	bne	179c <__sOINFo+0x78>
    17d0:	e28dd004 	add	sp, sp, #4	; 0x4
    17d4:	e8bd80f0 	pop	{r4, r5, r6, r7, pc}
    17d8:	0800d7ac 	.word	0x0800d7ac
    17dc:	0800d76c 	.word	0x0800d76c
    17e0:	00011b7f 	.word	0x00011b7f
    17e4:	00011b99 	.word	0x00011b99
    17e8:	00011bbe 	.word	0x00011bbe
    17ec:	00011a6c 	.word	0x00011a6c
    17f0:	00011bcf 	.word	0x00011bcf

000017f4 <init_malloc>:
    17f4:	e59f20e4 	ldr	r2, [pc, #228]	; 18e0 <init_malloc+0xec>
    17f8:	e59f30e4 	ldr	r3, [pc, #228]	; 18e4 <init_malloc+0xf0>
    17fc:	e3c2001f 	bic	r0, r2, #31	; 0x1f
    1800:	e3c3301f 	bic	r3, r3, #31	; 0x1f
    1804:	e0602003 	rsb	r2, r0, r3
    1808:	e92d4010 	push	{r4, lr}
    180c:	e59f40d4 	ldr	r4, [pc, #212]	; 18e8 <init_malloc+0xf4>
    1810:	e3520b01 	cmp	r2, #1024	; 0x400
    1814:	e5840008 	str	r0, [r4, #8]
    1818:	e584300c 	str	r3, [r4, #12]
    181c:	93e00000 	mvnls	r0, #0	; 0x0
    1820:	98bd8010 	popls	{r4, pc}
    1824:	e284c014 	add	ip, r4, #20	; 0x14
    1828:	e3a03040 	mov	r3, #64	; 0x40
    182c:	e3a01000 	mov	r1, #0	; 0x0
    1830:	e3a02b01 	mov	r2, #1024	; 0x400
    1834:	e584c018 	str	ip, [r4, #24]
    1838:	e584c014 	str	ip, [r4, #20]
    183c:	e5843004 	str	r3, [r4, #4]
    1840:	e5843000 	str	r3, [r4]
    1844:	ebfffeb8 	bl	132c <memset>
    1848:	e5940008 	ldr	r0, [r4, #8]
    184c:	e594c000 	ldr	ip, [r4]
    1850:	e1a01000 	mov	r1, r0
    1854:	e3a02000 	mov	r2, #0	; 0x0
    1858:	ea000006 	b	1878 <init_malloc+0x84>
    185c:	e59e3004 	ldr	r3, [lr, #4]
    1860:	e3530000 	cmp	r3, #0	; 0x0
    1864:	059f207c 	ldreq	r2, [pc, #124]	; 18e8 <init_malloc+0xf4>
    1868:	05923004 	ldreq	r3, [r2, #4]
    186c:	02433001 	subeq	r3, r3, #1	; 0x1
    1870:	05823004 	streq	r3, [r2, #4]
    1874:	0a000005 	beq	1890 <init_malloc+0x9c>
    1878:	e152000c 	cmp	r2, ip
    187c:	e1a0e001 	mov	lr, r1
    1880:	e2822001 	add	r2, r2, #1	; 0x1
    1884:	e2811010 	add	r1, r1, #16	; 0x10
    1888:	3afffff3 	bcc	185c <init_malloc+0x68>
    188c:	e3a0e000 	mov	lr, #0	; 0x0
    1890:	e59fc050 	ldr	ip, [pc, #80]	; 18e8 <init_malloc+0xf4>
    1894:	e59e2004 	ldr	r2, [lr, #4]
    1898:	e59c300c 	ldr	r3, [ip, #12]
    189c:	e1a0100e 	mov	r1, lr
    18a0:	e2433b01 	sub	r3, r3, #1024	; 0x400
    18a4:	e0603003 	rsb	r3, r0, r3
    18a8:	e59c4018 	ldr	r4, [ip, #24]
    18ac:	e2022103 	and	r2, r2, #-1073741824	; 0xc0000000
    18b0:	e2800b01 	add	r0, r0, #1024	; 0x400
    18b4:	e3c33103 	bic	r3, r3, #-1073741824	; 0xc0000000
    18b8:	e4810008 	str	r0, [r1], #8
    18bc:	e1833002 	orr	r3, r3, r2
    18c0:	e28c2014 	add	r2, ip, #20	; 0x14
    18c4:	e58e2008 	str	r2, [lr, #8]
    18c8:	e58c1018 	str	r1, [ip, #24]
    18cc:	e5841000 	str	r1, [r4]
    18d0:	e58e3004 	str	r3, [lr, #4]
    18d4:	e58e400c 	str	r4, [lr, #12]
    18d8:	e3a00000 	mov	r0, #0	; 0x0
    18dc:	e8bd8010 	pop	{r4, pc}
    18e0:	0800f01f 	.word	0x0800f01f
    18e4:	0801a000 	.word	0x0801a000
    18e8:	0800d7ac 	.word	0x0800d7ac

000018ec <isi_check_header>:
    18ec:	e92d4070 	push	{r4, r5, r6, lr}
    18f0:	e5902000 	ldr	r2, [r0]
    18f4:	e59f3088 	ldr	r3, [pc, #136]	; 1984 <isi_check_header+0x98>
    18f8:	e1a05000 	mov	r5, r0
    18fc:	e1520003 	cmp	r2, r3
    1900:	e24dd008 	sub	sp, sp, #8	; 0x8
    1904:	13e0001e 	mvnne	r0, #30	; 0x1e
    1908:	1a00001b 	bne	197c <isi_check_header+0x90>
    190c:	e3a06000 	mov	r6, #0	; 0x0
    1910:	e595401c 	ldr	r4, [r5, #28]
    1914:	e3a01c02 	mov	r1, #512	; 0x200
    1918:	e585601c 	str	r6, [r5, #28]
    191c:	e1a00006 	mov	r0, r6
    1920:	eb000f63 	bl	56b4 <hash_init>
    1924:	e3a01c02 	mov	r1, #512	; 0x200
    1928:	e1a00005 	mov	r0, r5
    192c:	eb000f3b 	bl	5620 <hash_data>
    1930:	e28d0004 	add	r0, sp, #4	; 0x4
    1934:	eb000f1d 	bl	55b0 <hash_value>
    1938:	e585401c 	str	r4, [r5, #28]
    193c:	e59d3004 	ldr	r3, [sp, #4]
    1940:	e1540003 	cmp	r4, r3
    1944:	13e0001f 	mvnne	r0, #31	; 0x1f
    1948:	1a00000b 	bne	197c <isi_check_header+0x90>
    194c:	e5951004 	ldr	r1, [r5, #4]
    1950:	e59f4030 	ldr	r4, [pc, #48]	; 1988 <isi_check_header+0x9c>
    1954:	e3c114ff 	bic	r1, r1, #-16777216	; 0xff000000
    1958:	e59f002c 	ldr	r0, [pc, #44]	; 198c <isi_check_header+0xa0>
    195c:	e1a0e00f 	mov	lr, pc
    1960:	e594f000 	ldr	pc, [r4]
    1964:	e5d51007 	ldrb	r1, [r5, #7]
    1968:	e59f0020 	ldr	r0, [pc, #32]	; 1990 <isi_check_header+0xa4>
    196c:	e201100f 	and	r1, r1, #15	; 0xf
    1970:	e1a0e00f 	mov	lr, pc
    1974:	e594f000 	ldr	pc, [r4]
    1978:	e1a00006 	mov	r0, r6
    197c:	e28dd008 	add	sp, sp, #8	; 0x8
    1980:	e8bd8070 	pop	{r4, r5, r6, pc}
    1984:	6973692b 	.word	0x6973692b
    1988:	0800d76c 	.word	0x0800d76c
    198c:	00011bf7 	.word	0x00011bf7
    1990:	00011c05 	.word	0x00011c05

00001994 <isi_check_data_separate>:
    1994:	e92d4070 	push	{r4, r5, r6, lr}
    1998:	e1a05000 	mov	r5, r0
    199c:	e5d00007 	ldrb	r0, [r0, #7]
    19a0:	e24dd028 	sub	sp, sp, #40	; 0x28
    19a4:	e1a04001 	mov	r4, r1
    19a8:	e200000f 	and	r0, r0, #15	; 0xf
    19ac:	e595100c 	ldr	r1, [r5, #12]
    19b0:	eb000f3f 	bl	56b4 <hash_init>
    19b4:	e28d6008 	add	r6, sp, #8	; 0x8
    19b8:	e595100c 	ldr	r1, [r5, #12]
    19bc:	e1a00004 	mov	r0, r4
    19c0:	eb000f16 	bl	5620 <hash_data>
    19c4:	e1a00006 	mov	r0, r6
    19c8:	eb000ef8 	bl	55b0 <hash_value>
    19cc:	eb000ef0 	bl	5594 <hash_len>
    19d0:	e2854020 	add	r4, r5, #32	; 0x20
    19d4:	e1a02000 	mov	r2, r0
    19d8:	e1a01004 	mov	r1, r4
    19dc:	e1a00006 	mov	r0, r6
    19e0:	ebfffe7a 	bl	13d0 <memcmp>
    19e4:	e3500000 	cmp	r0, #0	; 0x0
    19e8:	0a000014 	beq	1a40 <isi_check_data_separate+0xac>
    19ec:	e595100c 	ldr	r1, [r5, #12]
    19f0:	e59f3050 	ldr	r3, [pc, #80]	; 1a48 <isi_check_data_separate+0xb4>
    19f4:	e59f0050 	ldr	r0, [pc, #80]	; 1a4c <isi_check_data_separate+0xb8>
    19f8:	e1a0e00f 	mov	lr, pc
    19fc:	e593f000 	ldr	pc, [r3]
    1a00:	eb000ee3 	bl	5594 <hash_len>
    1a04:	e1a01004 	mov	r1, r4
    1a08:	e1a03000 	mov	r3, r0
    1a0c:	e3a02001 	mov	r2, #1	; 0x1
    1a10:	e1a00004 	mov	r0, r4
    1a14:	e3a04020 	mov	r4, #32	; 0x20
    1a18:	e58d4000 	str	r4, [sp]
    1a1c:	eb002d1d 	bl	ce98 <print_buffer>
    1a20:	eb000edb 	bl	5594 <hash_len>
    1a24:	e1a01006 	mov	r1, r6
    1a28:	e1a03000 	mov	r3, r0
    1a2c:	e3a02001 	mov	r2, #1	; 0x1
    1a30:	e1a00006 	mov	r0, r6
    1a34:	e58d4000 	str	r4, [sp]
    1a38:	eb002d16 	bl	ce98 <print_buffer>
    1a3c:	e3e00020 	mvn	r0, #32	; 0x20
    1a40:	e28dd028 	add	sp, sp, #40	; 0x28
    1a44:	e8bd8070 	pop	{r4, r5, r6, pc}
    1a48:	0800d76c 	.word	0x0800d76c
    1a4c:	00011c18 	.word	0x00011c18

00001a50 <isi_check_data>:
    1a50:	e2801c02 	add	r1, r0, #512	; 0x200
    1a54:	eaffffce 	b	1994 <isi_check_data_separate>

00001a58 <isi_check>:
    1a58:	e92d4010 	push	{r4, lr}
    1a5c:	e1a04000 	mov	r4, r0
    1a60:	ebffffa1 	bl	18ec <isi_check_header>
    1a64:	e3500000 	cmp	r0, #0	; 0x0
    1a68:	18bd8010 	popne	{r4, pc}
    1a6c:	e1a00004 	mov	r0, r4
    1a70:	e8bd4010 	pop	{r4, lr}
    1a74:	eafffff5 	b	1a50 <isi_check_data>

00001a78 <load_serial_ymodem>:
    1a78:	e92d41f0 	push	{r4, r5, r6, r7, r8, lr}
    1a7c:	e24dde41 	sub	sp, sp, #1040	; 0x410
    1a80:	e28d4b01 	add	r4, sp, #1024	; 0x400
    1a84:	e284400c 	add	r4, r4, #12	; 0xc
    1a88:	e3a03002 	mov	r3, #2	; 0x2
    1a8c:	e1a07000 	mov	r7, r0
    1a90:	e1a01004 	mov	r1, r4
    1a94:	e28d0b01 	add	r0, sp, #1024	; 0x400
    1a98:	e58d3404 	str	r3, [sp, #1028]
    1a9c:	eb00391f 	bl	ff20 <xyzModem_stream_open>
    1aa0:	e3500000 	cmp	r0, #0	; 0x0
    1aa4:	1a000012 	bne	1af4 <load_serial_ymodem+0x7c>
    1aa8:	e1a08004 	mov	r8, r4
    1aac:	e1a05000 	mov	r5, r0
    1ab0:	e1a04000 	mov	r4, r0
    1ab4:	e1a0600d 	mov	r6, sp
    1ab8:	ea000001 	b	1ac4 <load_serial_ymodem+0x4c>
    1abc:	e085500c 	add	r5, r5, ip
    1ac0:	ebfffe21 	bl	134c <memcpy>
    1ac4:	e3a01b01 	mov	r1, #1024	; 0x400
    1ac8:	e1a02008 	mov	r2, r8
    1acc:	e1a0000d 	mov	r0, sp
    1ad0:	eb00387e 	bl	fcd0 <xyzModem_stream_read>
    1ad4:	e0843007 	add	r3, r4, r7
    1ad8:	e250c000 	subs	ip, r0, #0	; 0x0
    1adc:	e1a0100d 	mov	r1, sp
    1ae0:	e1a0200c 	mov	r2, ip
    1ae4:	e1a00003 	mov	r0, r3
    1ae8:	e084400c 	add	r4, r4, ip
    1aec:	cafffff2 	bgt	1abc <load_serial_ymodem+0x44>
    1af0:	ea000007 	b	1b14 <load_serial_ymodem+0x9c>
    1af4:	e59f3054 	ldr	r3, [pc, #84]	; 1b50 <load_serial_ymodem+0xd8>
    1af8:	e59d040c 	ldr	r0, [sp, #1036]
    1afc:	e5934000 	ldr	r4, [r3]
    1b00:	eb0034f9 	bl	eeec <xyzModem_error>
    1b04:	e1a01000 	mov	r1, r0
    1b08:	e59f0044 	ldr	r0, [pc, #68]	; 1b54 <load_serial_ymodem+0xdc>
    1b0c:	e12fff34 	blx	r4
    1b10:	e3a05000 	mov	r5, #0	; 0x0
    1b14:	e28d0b01 	add	r0, sp, #1024	; 0x400
    1b18:	e280000c 	add	r0, r0, #12	; 0xc
    1b1c:	eb0034da 	bl	ee8c <xyzModem_stream_close>
    1b20:	e3a00000 	mov	r0, #0	; 0x0
    1b24:	e59f102c 	ldr	r1, [pc, #44]	; 1b58 <load_serial_ymodem+0xe0>
    1b28:	eb003788 	bl	f950 <xyzModem_stream_terminate>
    1b2c:	e1a01005 	mov	r1, r5
    1b30:	e59f0024 	ldr	r0, [pc, #36]	; 1b5c <load_serial_ymodem+0xe4>
    1b34:	e1a02005 	mov	r2, r5
    1b38:	e59f3010 	ldr	r3, [pc, #16]	; 1b50 <load_serial_ymodem+0xd8>
    1b3c:	e1a0e00f 	mov	lr, pc
    1b40:	e593f000 	ldr	pc, [r3]
    1b44:	e1a00007 	mov	r0, r7
    1b48:	e28dde41 	add	sp, sp, #1040	; 0x410
    1b4c:	e8bd81f0 	pop	{r4, r5, r6, r7, r8, pc}
    1b50:	0800d76c 	.word	0x0800d76c
    1b54:	00011d14 	.word	0x00011d14
    1b58:	00001b60 	.word	0x00001b60
    1b5c:	00011c3c 	.word	0x00011c3c

00001b60 <getcxmodem>:
    1b60:	e52de004 	push	{lr}		; (str lr, [sp, #-4]!)
    1b64:	e24dd004 	sub	sp, sp, #4	; 0x4
    1b68:	eb003179 	bl	e154 <tstc>
    1b6c:	e3500000 	cmp	r0, #0	; 0x0
    1b70:	1a000002 	bne	1b80 <getcxmodem+0x20>
    1b74:	e3e00000 	mvn	r0, #0	; 0x0
    1b78:	e28dd004 	add	sp, sp, #4	; 0x4
    1b7c:	e8bd8000 	pop	{pc}
    1b80:	e28dd004 	add	sp, sp, #4	; 0x4
    1b84:	e49de004 	pop	{lr}		; (ldr lr, [sp], #4)
    1b88:	ea003172 	b	e158 <getc>

00001b8c <do_load_serial_bin>:
    1b8c:	e92d40f0 	push	{r4, r5, r6, r7, lr}
    1b90:	e3520001 	cmp	r2, #1	; 0x1
    1b94:	e24dd00c 	sub	sp, sp, #12	; 0xc
    1b98:	e1a06002 	mov	r6, r2
    1b9c:	e1a07000 	mov	r7, r0
    1ba0:	e1a05003 	mov	r5, r3
    1ba4:	ca000006 	bgt	1bc4 <do_load_serial_bin+0x38>
    1ba8:	e59f0120 	ldr	r0, [pc, #288]	; 1cd0 <do_load_serial_bin+0x144>
    1bac:	e3a06000 	mov	r6, #0	; 0x0
    1bb0:	e59f311c 	ldr	r3, [pc, #284]	; 1cd4 <do_load_serial_bin+0x148>
    1bb4:	e1a0e00f 	mov	lr, pc
    1bb8:	e593f000 	ldr	pc, [r3]
    1bbc:	e1a04006 	mov	r4, r6
    1bc0:	ea00000c 	b	1bf8 <do_load_serial_bin+0x6c>
    1bc4:	e5930004 	ldr	r0, [r3, #4]
    1bc8:	e3a01000 	mov	r1, #0	; 0x0
    1bcc:	e3a02010 	mov	r2, #16	; 0x10
    1bd0:	eb002d48 	bl	d0f8 <simple_strtoul>
    1bd4:	e3560003 	cmp	r6, #3	; 0x3
    1bd8:	e1a04000 	mov	r4, r0
    1bdc:	13a06000 	movne	r6, #0	; 0x0
    1be0:	1a000004 	bne	1bf8 <do_load_serial_bin+0x6c>
    1be4:	e5950008 	ldr	r0, [r5, #8]
    1be8:	e3a01000 	mov	r1, #0	; 0x0
    1bec:	e3a02010 	mov	r2, #16	; 0x10
    1bf0:	eb002d40 	bl	d0f8 <simple_strtoul>
    1bf4:	e1a06000 	mov	r6, r0
    1bf8:	e5950000 	ldr	r0, [r5]
    1bfc:	e59f10d4 	ldr	r1, [pc, #212]	; 1cd8 <do_load_serial_bin+0x14c>
    1c00:	ebfffd8a 	bl	1230 <strcmp>
    1c04:	e3500000 	cmp	r0, #0	; 0x0
    1c08:	1a000007 	bne	1c2c <do_load_serial_bin+0xa0>
    1c0c:	e1a01004 	mov	r1, r4
    1c10:	e59f00c4 	ldr	r0, [pc, #196]	; 1cdc <do_load_serial_bin+0x150>
    1c14:	e59f30b8 	ldr	r3, [pc, #184]	; 1cd4 <do_load_serial_bin+0x148>
    1c18:	e1a0e00f 	mov	lr, pc
    1c1c:	e593f000 	ldr	pc, [r3]
    1c20:	e1a00004 	mov	r0, r4
    1c24:	ebffff93 	bl	1a78 <load_serial_ymodem>
    1c28:	ea000025 	b	1cc4 <do_load_serial_bin+0x138>
    1c2c:	e5950000 	ldr	r0, [r5]
    1c30:	e59f10a8 	ldr	r1, [pc, #168]	; 1ce0 <do_load_serial_bin+0x154>
    1c34:	ebfffd7d 	bl	1230 <strcmp>
    1c38:	e3500000 	cmp	r0, #0	; 0x0
    1c3c:	e59f5090 	ldr	r5, [pc, #144]	; 1cd4 <do_load_serial_bin+0x148>
    1c40:	1a00001b 	bne	1cb4 <do_load_serial_bin+0x128>
    1c44:	e1a02006 	mov	r2, r6
    1c48:	e59f0094 	ldr	r0, [pc, #148]	; 1ce4 <do_load_serial_bin+0x158>
    1c4c:	e1a01004 	mov	r1, r4
    1c50:	e1a0e00f 	mov	lr, pc
    1c54:	e595f000 	ldr	pc, [r5]
    1c58:	e1a00004 	mov	r0, r4
    1c5c:	e1a01006 	mov	r1, r6
    1c60:	eb00369d 	bl	f6dc <control_send>
    1c64:	e3500000 	cmp	r0, #0	; 0x0
    1c68:	aa000005 	bge	1c84 <do_load_serial_bin+0xf8>
    1c6c:	e59d0004 	ldr	r0, [sp, #4]
    1c70:	e5954000 	ldr	r4, [r5]
    1c74:	eb00349c 	bl	eeec <xyzModem_error>
    1c78:	e1a01000 	mov	r1, r0
    1c7c:	e59f0064 	ldr	r0, [pc, #100]	; 1ce8 <do_load_serial_bin+0x15c>
    1c80:	e12fff34 	blx	r4
    1c84:	e28d0004 	add	r0, sp, #4	; 0x4
    1c88:	eb00347f 	bl	ee8c <xyzModem_stream_close>
    1c8c:	e3a00000 	mov	r0, #0	; 0x0
    1c90:	e59f1054 	ldr	r1, [pc, #84]	; 1cec <do_load_serial_bin+0x160>
    1c94:	eb00372d 	bl	f950 <xyzModem_stream_terminate>
    1c98:	e1a01006 	mov	r1, r6
    1c9c:	e59f004c 	ldr	r0, [pc, #76]	; 1cf0 <do_load_serial_bin+0x164>
    1ca0:	e1a02006 	mov	r2, r6
    1ca4:	e59f3028 	ldr	r3, [pc, #40]	; 1cd4 <do_load_serial_bin+0x148>
    1ca8:	e1a0e00f 	mov	lr, pc
    1cac:	e593f000 	ldr	pc, [r3]
    1cb0:	ea000003 	b	1cc4 <do_load_serial_bin+0x138>
    1cb4:	e5971014 	ldr	r1, [r7, #20]
    1cb8:	e59f0034 	ldr	r0, [pc, #52]	; 1cf4 <do_load_serial_bin+0x168>
    1cbc:	e1a0e00f 	mov	lr, pc
    1cc0:	e595f000 	ldr	pc, [r5]
    1cc4:	e3a00000 	mov	r0, #0	; 0x0
    1cc8:	e28dd00c 	add	sp, sp, #12	; 0xc
    1ccc:	e8bd80f0 	pop	{r4, r5, r6, r7, pc}
    1cd0:	00011c64 	.word	0x00011c64
    1cd4:	0800d76c 	.word	0x0800d76c
    1cd8:	00011c7e 	.word	0x00011c7e
    1cdc:	00011c81 	.word	0x00011c81
    1ce0:	00011cc4 	.word	0x00011cc4
    1ce4:	00011cc7 	.word	0x00011cc7
    1ce8:	00011d14 	.word	0x00011d14
    1cec:	00001b60 	.word	0x00001b60
    1cf0:	00011c3c 	.word	0x00011c3c
    1cf4:	00011d13 	.word	0x00011d13

00001cf8 <do_mem_cp>:
    1cf8:	e3520004 	cmp	r2, #4	; 0x4
    1cfc:	e92d4070 	push	{r4, r5, r6, lr}
    1d00:	e1a04003 	mov	r4, r3
    1d04:	0a000002 	beq	1d14 <do_mem_cp+0x1c>
    1d08:	eb0003ad 	bl	2bc4 <cmd_usage>
    1d0c:	e3a00001 	mov	r0, #1	; 0x1
    1d10:	e8bd8070 	pop	{r4, r5, r6, pc}
    1d14:	e5930004 	ldr	r0, [r3, #4]
    1d18:	e3a01000 	mov	r1, #0	; 0x0
    1d1c:	e3a02010 	mov	r2, #16	; 0x10
    1d20:	eb002cf4 	bl	d0f8 <simple_strtoul>
    1d24:	e3a01000 	mov	r1, #0	; 0x0
    1d28:	e3a02010 	mov	r2, #16	; 0x10
    1d2c:	e1a06000 	mov	r6, r0
    1d30:	e5940008 	ldr	r0, [r4, #8]
    1d34:	eb002cef 	bl	d0f8 <simple_strtoul>
    1d38:	e3a01000 	mov	r1, #0	; 0x0
    1d3c:	e1a05000 	mov	r5, r0
    1d40:	e3a02010 	mov	r2, #16	; 0x10
    1d44:	e594000c 	ldr	r0, [r4, #12]
    1d48:	eb002cea 	bl	d0f8 <simple_strtoul>
    1d4c:	e2800003 	add	r0, r0, #3	; 0x3
    1d50:	e1b00120 	lsrs	r0, r0, #2
    1d54:	1a000002 	bne	1d64 <do_mem_cp+0x6c>
    1d58:	ea000006 	b	1d78 <do_mem_cp+0x80>
    1d5c:	e5163004 	ldr	r3, [r6, #-4]
    1d60:	e5053004 	str	r3, [r5, #-4]
    1d64:	e3500000 	cmp	r0, #0	; 0x0
    1d68:	e2866004 	add	r6, r6, #4	; 0x4
    1d6c:	e2400001 	sub	r0, r0, #1	; 0x1
    1d70:	e2855004 	add	r5, r5, #4	; 0x4
    1d74:	1afffff8 	bne	1d5c <do_mem_cp+0x64>
    1d78:	e3a00000 	mov	r0, #0	; 0x0
    1d7c:	e8bd8070 	pop	{r4, r5, r6, pc}

00001d80 <do_mem_cmp>:
    1d80:	e92d40f0 	push	{r4, r5, r6, r7, lr}
    1d84:	e3520004 	cmp	r2, #4	; 0x4
    1d88:	e24dd00c 	sub	sp, sp, #12	; 0xc
    1d8c:	e1a04003 	mov	r4, r3
    1d90:	0a000002 	beq	1da0 <do_mem_cmp+0x20>
    1d94:	eb00038a 	bl	2bc4 <cmd_usage>
    1d98:	e3a04001 	mov	r4, #1	; 0x1
    1d9c:	ea000029 	b	1e48 <do_mem_cmp+0xc8>
    1da0:	e5930004 	ldr	r0, [r3, #4]
    1da4:	e3a01000 	mov	r1, #0	; 0x0
    1da8:	e3a02010 	mov	r2, #16	; 0x10
    1dac:	eb002cd1 	bl	d0f8 <simple_strtoul>
    1db0:	e3a01000 	mov	r1, #0	; 0x0
    1db4:	e3a02010 	mov	r2, #16	; 0x10
    1db8:	e1a07000 	mov	r7, r0
    1dbc:	e5940008 	ldr	r0, [r4, #8]
    1dc0:	eb002ccc 	bl	d0f8 <simple_strtoul>
    1dc4:	e3a01000 	mov	r1, #0	; 0x0
    1dc8:	e1a06000 	mov	r6, r0
    1dcc:	e3a02010 	mov	r2, #16	; 0x10
    1dd0:	e594000c 	ldr	r0, [r4, #12]
    1dd4:	eb002cc7 	bl	d0f8 <simple_strtoul>
    1dd8:	e2800003 	add	r0, r0, #3	; 0x3
    1ddc:	e1a00120 	lsr	r0, r0, #2
    1de0:	e3a05000 	mov	r5, #0	; 0x0
    1de4:	ea00000f 	b	1e28 <do_mem_cmp+0xa8>
    1de8:	e5972000 	ldr	r2, [r7]
    1dec:	e5963000 	ldr	r3, [r6]
    1df0:	e1520003 	cmp	r2, r3
    1df4:	0a000008 	beq	1e1c <do_mem_cmp+0x9c>
    1df8:	e58d3000 	str	r3, [sp]
    1dfc:	e1a01007 	mov	r1, r7
    1e00:	e1a03006 	mov	r3, r6
    1e04:	e59f0048 	ldr	r0, [pc, #72]	; 1e54 <do_mem_cmp+0xd4>
    1e08:	e59fc048 	ldr	ip, [pc, #72]	; 1e58 <do_mem_cmp+0xd8>
    1e0c:	e1a0e00f 	mov	lr, pc
    1e10:	e59cf000 	ldr	pc, [ip]
    1e14:	e3a04001 	mov	r4, #1	; 0x1
    1e18:	ea000005 	b	1e34 <do_mem_cmp+0xb4>
    1e1c:	e2855001 	add	r5, r5, #1	; 0x1
    1e20:	e2877004 	add	r7, r7, #4	; 0x4
    1e24:	e2866004 	add	r6, r6, #4	; 0x4
    1e28:	e1500005 	cmp	r0, r5
    1e2c:	1affffed 	bne	1de8 <do_mem_cmp+0x68>
    1e30:	e3a04000 	mov	r4, #0	; 0x0
    1e34:	e1a01005 	mov	r1, r5
    1e38:	e59f001c 	ldr	r0, [pc, #28]	; 1e5c <do_mem_cmp+0xdc>
    1e3c:	e59f3014 	ldr	r3, [pc, #20]	; 1e58 <do_mem_cmp+0xd8>
    1e40:	e1a0e00f 	mov	lr, pc
    1e44:	e593f000 	ldr	pc, [r3]
    1e48:	e1a00004 	mov	r0, r4
    1e4c:	e28dd00c 	add	sp, sp, #12	; 0xc
    1e50:	e8bd80f0 	pop	{r4, r5, r6, r7, pc}
    1e54:	00011e19 	.word	0x00011e19
    1e58:	0800d76c 	.word	0x0800d76c
    1e5c:	00011e51 	.word	0x00011e51

00001e60 <do_mem_mw>:
    1e60:	e92d40f0 	push	{r4, r5, r6, r7, lr}
    1e64:	e1a06002 	mov	r6, r2
    1e68:	e2422003 	sub	r2, r2, #3	; 0x3
    1e6c:	e3520001 	cmp	r2, #1	; 0x1
    1e70:	e24dd004 	sub	sp, sp, #4	; 0x4
    1e74:	e1a04003 	mov	r4, r3
    1e78:	9a000002 	bls	1e88 <do_mem_mw+0x28>
    1e7c:	eb000350 	bl	2bc4 <cmd_usage>
    1e80:	e3a00001 	mov	r0, #1	; 0x1
    1e84:	ea000016 	b	1ee4 <do_mem_mw+0x84>
    1e88:	e3a01000 	mov	r1, #0	; 0x0
    1e8c:	e3a02010 	mov	r2, #16	; 0x10
    1e90:	e5930004 	ldr	r0, [r3, #4]
    1e94:	eb002c97 	bl	d0f8 <simple_strtoul>
    1e98:	e3a01000 	mov	r1, #0	; 0x0
    1e9c:	e1a05000 	mov	r5, r0
    1ea0:	e3a02010 	mov	r2, #16	; 0x10
    1ea4:	e5940008 	ldr	r0, [r4, #8]
    1ea8:	eb002c92 	bl	d0f8 <simple_strtoul>
    1eac:	e3560004 	cmp	r6, #4	; 0x4
    1eb0:	e1a07000 	mov	r7, r0
    1eb4:	13a00001 	movne	r0, #1	; 0x1
    1eb8:	1a000006 	bne	1ed8 <do_mem_mw+0x78>
    1ebc:	e594000c 	ldr	r0, [r4, #12]
    1ec0:	e3a01000 	mov	r1, #0	; 0x0
    1ec4:	e3a02010 	mov	r2, #16	; 0x10
    1ec8:	eb002c8a 	bl	d0f8 <simple_strtoul>
    1ecc:	ea000001 	b	1ed8 <do_mem_mw+0x78>
    1ed0:	e5057004 	str	r7, [r5, #-4]
    1ed4:	e2400001 	sub	r0, r0, #1	; 0x1
    1ed8:	e3500000 	cmp	r0, #0	; 0x0
    1edc:	e2855004 	add	r5, r5, #4	; 0x4
    1ee0:	1afffffa 	bne	1ed0 <do_mem_mw+0x70>
    1ee4:	e28dd004 	add	sp, sp, #4	; 0x4
    1ee8:	e8bd80f0 	pop	{r4, r5, r6, r7, pc}

00001eec <do_mem_md>:
    1eec:	e92d4070 	push	{r4, r5, r6, lr}
    1ef0:	e3520001 	cmp	r2, #1	; 0x1
    1ef4:	e24dd008 	sub	sp, sp, #8	; 0x8
    1ef8:	e1a04002 	mov	r4, r2
    1efc:	e1a05003 	mov	r5, r3
    1f00:	ca000002 	bgt	1f10 <do_mem_md+0x24>
    1f04:	eb00032e 	bl	2bc4 <cmd_usage>
    1f08:	e3a00001 	mov	r0, #1	; 0x1
    1f0c:	ea000014 	b	1f64 <do_mem_md+0x78>
    1f10:	e5930004 	ldr	r0, [r3, #4]
    1f14:	e3a01000 	mov	r1, #0	; 0x0
    1f18:	e3a02010 	mov	r2, #16	; 0x10
    1f1c:	eb002c75 	bl	d0f8 <simple_strtoul>
    1f20:	e3540002 	cmp	r4, #2	; 0x2
    1f24:	e1a06000 	mov	r6, r0
    1f28:	03a030a0 	moveq	r3, #160	; 0xa0
    1f2c:	0a000004 	beq	1f44 <do_mem_md+0x58>
    1f30:	e5950008 	ldr	r0, [r5, #8]
    1f34:	e3a01000 	mov	r1, #0	; 0x0
    1f38:	e3a02010 	mov	r2, #16	; 0x10
    1f3c:	eb002c6d 	bl	d0f8 <simple_strtoul>
    1f40:	e1a03000 	mov	r3, r0
    1f44:	e3a0c004 	mov	ip, #4	; 0x4
    1f48:	e1a00006 	mov	r0, r6
    1f4c:	e1a0200c 	mov	r2, ip
    1f50:	e1a03123 	lsr	r3, r3, #2
    1f54:	e1a01006 	mov	r1, r6
    1f58:	e58dc000 	str	ip, [sp]
    1f5c:	eb002bcd 	bl	ce98 <print_buffer>
    1f60:	e3a00000 	mov	r0, #0	; 0x0
    1f64:	e28dd008 	add	sp, sp, #8	; 0x8
    1f68:	e8bd8070 	pop	{r4, r5, r6, pc}

00001f6c <do_sc>:
    1f6c:	e92d40f0 	push	{r4, r5, r6, r7, lr}
    1f70:	e3520002 	cmp	r2, #2	; 0x2
    1f74:	e24ddf47 	sub	sp, sp, #284	; 0x11c
    1f78:	0a000002 	beq	1f88 <do_sc+0x1c>
    1f7c:	eb000310 	bl	2bc4 <cmd_usage>
    1f80:	e3a00001 	mov	r0, #1	; 0x1
    1f84:	ea000060 	b	210c <do_sc+0x1a0>
    1f88:	e5930004 	ldr	r0, [r3, #4]
    1f8c:	e3a01000 	mov	r1, #0	; 0x0
    1f90:	e3a02010 	mov	r2, #16	; 0x10
    1f94:	eb002c57 	bl	d0f8 <simple_strtoul>
    1f98:	e28d4f41 	add	r4, sp, #260	; 0x104
    1f9c:	e2844002 	add	r4, r4, #2	; 0x2
    1fa0:	e59f116c 	ldr	r1, [pc, #364]	; 2114 <do_sc+0x1a8>
    1fa4:	e1a06000 	mov	r6, r0
    1fa8:	e3a02012 	mov	r2, #18	; 0x12
    1fac:	e1a00004 	mov	r0, r4
    1fb0:	ebfffce5 	bl	134c <memcpy>
    1fb4:	e3a01000 	mov	r1, #0	; 0x0
    1fb8:	ea000004 	b	1fd0 <do_sc+0x64>
    1fbc:	e7d12006 	ldrb	r2, [r1, r6]
    1fc0:	e7d43001 	ldrb	r3, [r4, r1]
    1fc4:	e2811001 	add	r1, r1, #1	; 0x1
    1fc8:	e1520003 	cmp	r2, r3
    1fcc:	1a000014 	bne	2024 <do_sc+0xb8>
    1fd0:	e3510012 	cmp	r1, #18	; 0x12
    1fd4:	e0815006 	add	r5, r1, r6
    1fd8:	1afffff7 	bne	1fbc <do_sc+0x50>
    1fdc:	e2851eff 	add	r1, r5, #4080	; 0xff0
    1fe0:	e281100f 	add	r1, r1, #15	; 0xf
    1fe4:	e1a02005 	mov	r2, r5
    1fe8:	e5d23000 	ldrb	r3, [r2]
    1fec:	e353000a 	cmp	r3, #10	; 0xa
    1ff0:	1a000005 	bne	200c <do_sc+0xa0>
    1ff4:	e5d23001 	ldrb	r3, [r2, #1]
    1ff8:	e353005d 	cmp	r3, #93	; 0x5d
    1ffc:	1a000002 	bne	200c <do_sc+0xa0>
    2000:	e5d23002 	ldrb	r3, [r2, #2]
    2004:	e353005d 	cmp	r3, #93	; 0x5d
    2008:	0a000003 	beq	201c <do_sc+0xb0>
    200c:	e1520001 	cmp	r2, r1
    2010:	e2822001 	add	r2, r2, #1	; 0x1
    2014:	1afffff3 	bne	1fe8 <do_sc+0x7c>
    2018:	ea000001 	b	2024 <do_sc+0xb8>
    201c:	e3550000 	cmp	r5, #0	; 0x0
    2020:	1a000006 	bne	2040 <do_sc+0xd4>
    2024:	e59f00ec 	ldr	r0, [pc, #236]	; 2118 <do_sc+0x1ac>
    2028:	e1a01006 	mov	r1, r6
    202c:	e59f30e8 	ldr	r3, [pc, #232]	; 211c <do_sc+0x1b0>
    2030:	e1a0e00f 	mov	lr, pc
    2034:	e593f000 	ldr	pc, [r3]
    2038:	e3e00000 	mvn	r0, #0	; 0x0
    203c:	ea000032 	b	210c <do_sc+0x1a0>
    2040:	e59f40d4 	ldr	r4, [pc, #212]	; 211c <do_sc+0x1b0>
    2044:	e1a01006 	mov	r1, r6
    2048:	e59f00d0 	ldr	r0, [pc, #208]	; 2120 <do_sc+0x1b4>
    204c:	e28d6008 	add	r6, sp, #8	; 0x8
    2050:	e1a0e00f 	mov	lr, pc
    2054:	e594f000 	ldr	pc, [r4]
    2058:	e2466002 	sub	r6, r6, #2	; 0x2
    205c:	e1a07004 	mov	r7, r4
    2060:	ea000000 	b	2068 <do_sc+0xfc>
    2064:	e2855001 	add	r5, r5, #1	; 0x1
    2068:	e5d53000 	ldrb	r3, [r5]
    206c:	e353002d 	cmp	r3, #45	; 0x2d
    2070:	1353000a 	cmpne	r3, #10	; 0xa
    2074:	0afffffa 	beq	2064 <do_sc+0xf8>
    2078:	e353005b 	cmp	r3, #91	; 0x5b
    207c:	0afffff8 	beq	2064 <do_sc+0xf8>
    2080:	e353005d 	cmp	r3, #93	; 0x5d
    2084:	0a000001 	beq	2090 <do_sc+0x124>
    2088:	e1a02006 	mov	r2, r6
    208c:	ea000005 	b	20a8 <do_sc+0x13c>
    2090:	e5d53001 	ldrb	r3, [r5, #1]
    2094:	e353005d 	cmp	r3, #93	; 0x5d
    2098:	1afffffa 	bne	2088 <do_sc+0x11c>
    209c:	ea00000c 	b	20d4 <do_sc+0x168>
    20a0:	e5423001 	strb	r3, [r2, #-1]
    20a4:	e2855001 	add	r5, r5, #1	; 0x1
    20a8:	e5d53000 	ldrb	r3, [r5]
    20ac:	e1a01002 	mov	r1, r2
    20b0:	e353000a 	cmp	r3, #10	; 0xa
    20b4:	1353005d 	cmpne	r3, #93	; 0x5d
    20b8:	03a04000 	moveq	r4, #0	; 0x0
    20bc:	13a04001 	movne	r4, #1	; 0x1
    20c0:	e2822001 	add	r2, r2, #1	; 0x1
    20c4:	1afffff5 	bne	20a0 <do_sc+0x134>
    20c8:	e3550000 	cmp	r5, #0	; 0x0
    20cc:	e5c14000 	strb	r4, [r1]
    20d0:	1a000005 	bne	20ec <do_sc+0x180>
    20d4:	e59f0048 	ldr	r0, [pc, #72]	; 2124 <do_sc+0x1b8>
    20d8:	e59f303c 	ldr	r3, [pc, #60]	; 211c <do_sc+0x1b0>
    20dc:	e1a0e00f 	mov	lr, pc
    20e0:	e593f000 	ldr	pc, [r3]
    20e4:	e3a00000 	mov	r0, #0	; 0x0
    20e8:	ea000007 	b	210c <do_sc+0x1a0>
    20ec:	e1a01006 	mov	r1, r6
    20f0:	e59f0030 	ldr	r0, [pc, #48]	; 2128 <do_sc+0x1bc>
    20f4:	e1a0e00f 	mov	lr, pc
    20f8:	e597f000 	ldr	pc, [r7]
    20fc:	e1a00006 	mov	r0, r6
    2100:	e1a01004 	mov	r1, r4
    2104:	eb00304f 	bl	e248 <run_command>
    2108:	eaffffd6 	b	2068 <do_sc+0xfc>
    210c:	e28ddf47 	add	sp, sp, #284	; 0x11c
    2110:	e8bd80f0 	pop	{r4, r5, r6, r7, pc}
    2114:	0001180c 	.word	0x0001180c
    2118:	00011f1b 	.word	0x00011f1b
    211c:	0800d76c 	.word	0x0800d76c
    2120:	00011f38 	.word	0x00011f38
    2124:	00011f51 	.word	0x00011f51
    2128:	00011f5e 	.word	0x00011f5e

0000212c <do_ls>:
    212c:	e52de004 	push	{lr}		; (str lr, [sp, #-4]!)
    2130:	e59f001c 	ldr	r0, [pc, #28]	; 2154 <do_ls+0x28>
    2134:	e24dd004 	sub	sp, sp, #4	; 0x4
    2138:	e59f1018 	ldr	r1, [pc, #24]	; 2158 <do_ls+0x2c>
    213c:	e59f3018 	ldr	r3, [pc, #24]	; 215c <do_ls+0x30>
    2140:	e1a0e00f 	mov	lr, pc
    2144:	e593f000 	ldr	pc, [r3]
    2148:	e3a00000 	mov	r0, #0	; 0x0
    214c:	e28dd004 	add	sp, sp, #4	; 0x4
    2150:	e8bd8000 	pop	{pc}
    2154:	00011d14 	.word	0x00011d14
    2158:	0800d10c 	.word	0x0800d10c
    215c:	0800d76c 	.word	0x0800d76c

00002160 <do_linkpc>:
    2160:	e52de004 	push	{lr}		; (str lr, [sp, #-4]!)
    2164:	e24dd004 	sub	sp, sp, #4	; 0x4
    2168:	eb002964 	bl	c700 <linkpc_loop>
    216c:	e3a00000 	mov	r0, #0	; 0x0
    2170:	e28dd004 	add	sp, sp, #4	; 0x4
    2174:	e8bd8000 	pop	{pc}

00002178 <do_pads>:
    2178:	e3520002 	cmp	r2, #2	; 0x2
    217c:	e92d47f0 	push	{r4, r5, r6, r7, r8, r9, sl, lr}
    2180:	d59f0194 	ldrle	r0, [pc, #404]	; 231c <do_pads+0x1a4>
    2184:	e1a05002 	mov	r5, r2
    2188:	e1a06003 	mov	r6, r3
    218c:	da000015 	ble	21e8 <do_pads+0x70>
    2190:	e5930008 	ldr	r0, [r3, #8]
    2194:	e3a01000 	mov	r1, #0	; 0x0
    2198:	e3a0200a 	mov	r2, #10	; 0xa
    219c:	eb002bd5 	bl	d0f8 <simple_strtoul>
    21a0:	e3550003 	cmp	r5, #3	; 0x3
    21a4:	e1a04000 	mov	r4, r0
    21a8:	01a07000 	moveq	r7, r0
    21ac:	0a000004 	beq	21c4 <do_pads+0x4c>
    21b0:	e596000c 	ldr	r0, [r6, #12]
    21b4:	e3a01000 	mov	r1, #0	; 0x0
    21b8:	e3a0200a 	mov	r2, #10	; 0xa
    21bc:	eb002bcd 	bl	d0f8 <simple_strtoul>
    21c0:	e1a07000 	mov	r7, r0
    21c4:	e1943007 	orrs	r3, r4, r7
    21c8:	4a000005 	bmi	21e4 <do_pads+0x6c>
    21cc:	e1a05004 	mov	r5, r4
    21d0:	e2866004 	add	r6, r6, #4	; 0x4
    21d4:	e59f9144 	ldr	r9, [pc, #324]	; 2320 <do_pads+0x1a8>
    21d8:	e59f8144 	ldr	r8, [pc, #324]	; 2324 <do_pads+0x1ac>
    21dc:	e59fa144 	ldr	sl, [pc, #324]	; 2328 <do_pads+0x1b0>
    21e0:	ea000049 	b	230c <do_pads+0x194>
    21e4:	e59f0140 	ldr	r0, [pc, #320]	; 232c <do_pads+0x1b4>
    21e8:	e59f3134 	ldr	r3, [pc, #308]	; 2324 <do_pads+0x1ac>
    21ec:	e1a0e00f 	mov	lr, pc
    21f0:	e593f000 	ldr	pc, [r3]
    21f4:	ea000046 	b	2314 <do_pads+0x19c>
    21f8:	e5960000 	ldr	r0, [r6]
    21fc:	e59f111c 	ldr	r1, [pc, #284]	; 2320 <do_pads+0x1a8>
    2200:	e3a02002 	mov	r2, #2	; 0x2
    2204:	ebfffc17 	bl	1268 <strncmp>
    2208:	e3500000 	cmp	r0, #0	; 0x0
    220c:	1a00000b 	bne	2240 <do_pads+0xc8>
    2210:	e1a02000 	mov	r2, r0
    2214:	e3a01001 	mov	r1, #1	; 0x1
    2218:	e1a00005 	mov	r0, r5
    221c:	ebfffa58 	bl	b84 <pads_chmod>
    2220:	e1a00005 	mov	r0, r5
    2224:	e5984000 	ldr	r4, [r8]
    2228:	ebfffad1 	bl	d74 <pads_getpin>
    222c:	e1a01005 	mov	r1, r5
    2230:	e1a02000 	mov	r2, r0
    2234:	e59f00f4 	ldr	r0, [pc, #244]	; 2330 <do_pads+0x1b8>
    2238:	e12fff34 	blx	r4
    223c:	ea000031 	b	2308 <do_pads+0x190>
    2240:	e59f10ec 	ldr	r1, [pc, #236]	; 2334 <do_pads+0x1bc>
    2244:	e3a02004 	mov	r2, #4	; 0x4
    2248:	e5960000 	ldr	r0, [r6]
    224c:	ebfffc05 	bl	1268 <strncmp>
    2250:	e3500000 	cmp	r0, #0	; 0x0
    2254:	01a00005 	moveq	r0, r5
    2258:	03a01002 	moveq	r1, #2	; 0x2
    225c:	03a02001 	moveq	r2, #1	; 0x1
    2260:	0a000011 	beq	22ac <do_pads+0x134>
    2264:	e59f10cc 	ldr	r1, [pc, #204]	; 2338 <do_pads+0x1c0>
    2268:	e3a02003 	mov	r2, #3	; 0x3
    226c:	e5960000 	ldr	r0, [r6]
    2270:	ebfffbfc 	bl	1268 <strncmp>
    2274:	e3500000 	cmp	r0, #0	; 0x0
    2278:	01a02000 	moveq	r2, r0
    227c:	03a01002 	moveq	r1, #2	; 0x2
    2280:	01a00005 	moveq	r0, r5
    2284:	0a000008 	beq	22ac <do_pads+0x134>
    2288:	e5960000 	ldr	r0, [r6]
    228c:	e59f10a8 	ldr	r1, [pc, #168]	; 233c <do_pads+0x1c4>
    2290:	e3a02004 	mov	r2, #4	; 0x4
    2294:	ebfffbf3 	bl	1268 <strncmp>
    2298:	e3500000 	cmp	r0, #0	; 0x0
    229c:	1a000004 	bne	22b4 <do_pads+0x13c>
    22a0:	e1a01000 	mov	r1, r0
    22a4:	e1a02001 	mov	r2, r1
    22a8:	e1a00005 	mov	r0, r5
    22ac:	ebfffa34 	bl	b84 <pads_chmod>
    22b0:	ea000014 	b	2308 <do_pads+0x190>
    22b4:	e5960000 	ldr	r0, [r6]
    22b8:	e59f1080 	ldr	r1, [pc, #128]	; 2340 <do_pads+0x1c8>
    22bc:	e3a02002 	mov	r2, #2	; 0x2
    22c0:	ebfffbe8 	bl	1268 <strncmp>
    22c4:	e3500000 	cmp	r0, #0	; 0x0
    22c8:	1a00000c 	bne	2300 <do_pads+0x188>
    22cc:	e1a00005 	mov	r0, r5
    22d0:	ebfffa15 	bl	b2c <pads_states>
    22d4:	e3500000 	cmp	r0, #0	; 0x0
    22d8:	e5983000 	ldr	r3, [r8]
    22dc:	059f2060 	ldreq	r2, [pc, #96]	; 2344 <do_pads+0x1cc>
    22e0:	0a000002 	beq	22f0 <do_pads+0x178>
    22e4:	e3500001 	cmp	r0, #1	; 0x1
    22e8:	01a02009 	moveq	r2, r9
    22ec:	11a0200a 	movne	r2, sl
    22f0:	e59f0050 	ldr	r0, [pc, #80]	; 2348 <do_pads+0x1d0>
    22f4:	e1a01005 	mov	r1, r5
    22f8:	e12fff33 	blx	r3
    22fc:	ea000001 	b	2308 <do_pads+0x190>
    2300:	e59f0044 	ldr	r0, [pc, #68]	; 234c <do_pads+0x1d4>
    2304:	eaffffb7 	b	21e8 <do_pads+0x70>
    2308:	e2855001 	add	r5, r5, #1	; 0x1
    230c:	e1550007 	cmp	r5, r7
    2310:	daffffb8 	ble	21f8 <do_pads+0x80>
    2314:	e3a00000 	mov	r0, #0	; 0x0
    2318:	e8bd87f0 	pop	{r4, r5, r6, r7, r8, r9, sl, pc}
    231c:	00011f82 	.word	0x00011f82
    2320:	00011fbf 	.word	0x00011fbf
    2324:	0800d76c 	.word	0x0800d76c
    2328:	00014338 	.word	0x00014338
    232c:	00011f9a 	.word	0x00011f9a
    2330:	00011fc2 	.word	0x00011fc2
    2334:	00011fd6 	.word	0x00011fd6
    2338:	00011fdb 	.word	0x00011fdb
    233c:	00011fdf 	.word	0x00011fdf
    2340:	00011fe4 	.word	0x00011fe4
    2344:	00011fe7 	.word	0x00011fe7
    2348:	00011ff0 	.word	0x00011ff0
    234c:	00012005 	.word	0x00012005

00002350 <do_mux>:
    2350:	e52de004 	push	{lr}		; (str lr, [sp, #-4]!)
    2354:	e3520001 	cmp	r2, #1	; 0x1
    2358:	e24dd004 	sub	sp, sp, #4	; 0x4
    235c:	da000005 	ble	2378 <do_mux+0x28>
    2360:	e5930004 	ldr	r0, [r3, #4]
    2364:	e3a01000 	mov	r1, #0	; 0x0
    2368:	e3a0200a 	mov	r2, #10	; 0xa
    236c:	eb002b61 	bl	d0f8 <simple_strtoul>
    2370:	e6ff0070 	uxth	r0, r0
    2374:	ebfffb4d 	bl	10b0 <set_mux>
    2378:	e59f301c 	ldr	r3, [pc, #28]	; 239c <do_mux+0x4c>
    237c:	e59f001c 	ldr	r0, [pc, #28]	; 23a0 <do_mux+0x50>
    2380:	e5931000 	ldr	r1, [r3]
    2384:	e59f3018 	ldr	r3, [pc, #24]	; 23a4 <do_mux+0x54>
    2388:	e1a0e00f 	mov	lr, pc
    238c:	e593f000 	ldr	pc, [r3]
    2390:	e3a00000 	mov	r0, #0	; 0x0
    2394:	e28dd004 	add	sp, sp, #4	; 0x4
    2398:	e8bd8000 	pop	{pc}
    239c:	2d009000 	.word	0x2d009000
    23a0:	0001201e 	.word	0x0001201e
    23a4:	0800d76c 	.word	0x0800d76c

000023a8 <do_mac>:
    23a8:	e59f3020 	ldr	r3, [pc, #32]	; 23d0 <do_mac+0x28>
    23ac:	e92d4010 	push	{r4, lr}
    23b0:	e5934000 	ldr	r4, [r3]
    23b4:	ebfff96a 	bl	964 <efuse_mac>
    23b8:	e1a02000 	mov	r2, r0
    23bc:	e1a03001 	mov	r3, r1
    23c0:	e59f000c 	ldr	r0, [pc, #12]	; 23d4 <do_mac+0x2c>
    23c4:	e12fff34 	blx	r4
    23c8:	e3a00000 	mov	r0, #0	; 0x0
    23cc:	e8bd8010 	pop	{r4, pc}
    23d0:	0800d76c 	.word	0x0800d76c
    23d4:	00012030 	.word	0x00012030

000023d8 <do_boot>:
    23d8:	e52de004 	push	{lr}		; (str lr, [sp, #-4]!)
    23dc:	e3a00000 	mov	r0, #0	; 0x0
    23e0:	e24dd004 	sub	sp, sp, #4	; 0x4
    23e4:	ebfff7ff 	bl	3e8 <try_boot>
    23e8:	e3a00000 	mov	r0, #0	; 0x0
    23ec:	e28dd004 	add	sp, sp, #4	; 0x4
    23f0:	e8bd8000 	pop	{pc}

000023f4 <do_efuse>:
    23f4:	e52de004 	push	{lr}		; (str lr, [sp, #-4]!)
    23f8:	e3520001 	cmp	r2, #1	; 0x1
    23fc:	e24dd004 	sub	sp, sp, #4	; 0x4
    2400:	da000006 	ble	2420 <do_efuse+0x2c>
    2404:	e5930004 	ldr	r0, [r3, #4]
    2408:	e59f1024 	ldr	r1, [pc, #36]	; 2434 <do_efuse+0x40>
    240c:	e3a02002 	mov	r2, #2	; 0x2
    2410:	ebfffb94 	bl	1268 <strncmp>
    2414:	e3500000 	cmp	r0, #0	; 0x0
    2418:	02800001 	addeq	r0, r0, #1	; 0x1
    241c:	0a000000 	beq	2424 <do_efuse+0x30>
    2420:	e3a00000 	mov	r0, #0	; 0x0
    2424:	ebfff951 	bl	970 <efuse_info>
    2428:	e3a00000 	mov	r0, #0	; 0x0
    242c:	e28dd004 	add	sp, sp, #4	; 0x4
    2430:	e8bd8000 	pop	{pc}
    2434:	00012048 	.word	0x00012048

00002438 <do_pi>:
    2438:	e92d4030 	push	{r4, r5, lr}
    243c:	e3520001 	cmp	r2, #1	; 0x1
    2440:	e24dd004 	sub	sp, sp, #4	; 0x4
    2444:	e1a04002 	mov	r4, r2
    2448:	e1a05003 	mov	r5, r3
    244c:	da000015 	ble	24a8 <do_pi+0x70>
    2450:	e59f10ac 	ldr	r1, [pc, #172]	; 2504 <do_pi+0xcc>
    2454:	e5930004 	ldr	r0, [r3, #4]
    2458:	e3a02004 	mov	r2, #4	; 0x4
    245c:	ebfffb81 	bl	1268 <strncmp>
    2460:	e2501000 	subs	r1, r0, #0	; 0x0
    2464:	1a00000d 	bne	24a0 <do_pi+0x68>
    2468:	e3540002 	cmp	r4, #2	; 0x2
    246c:	01a04001 	moveq	r4, r1
    2470:	0a000003 	beq	2484 <do_pi+0x4c>
    2474:	e5950008 	ldr	r0, [r5, #8]
    2478:	e3a02010 	mov	r2, #16	; 0x10
    247c:	eb002b1d 	bl	d0f8 <simple_strtoul>
    2480:	e1a04000 	mov	r4, r0
    2484:	e59f007c 	ldr	r0, [pc, #124]	; 2508 <do_pi+0xd0>
    2488:	e1a01004 	mov	r1, r4
    248c:	e59f3078 	ldr	r3, [pc, #120]	; 250c <do_pi+0xd4>
    2490:	e1a0e00f 	mov	lr, pc
    2494:	e593f000 	ldr	pc, [r3]
    2498:	e1a00004 	mov	r0, r4
    249c:	eb001097 	bl	6700 <burn>
    24a0:	e3a04000 	mov	r4, #0	; 0x0
    24a4:	ea000013 	b	24f8 <do_pi+0xc0>
    24a8:	e3a00441 	mov	r0, #1090519040	; 0x41000000
    24ac:	eb002ea5 	bl	df48 <ius_check_header>
    24b0:	e2504000 	subs	r4, r0, #0	; 0x0
    24b4:	159f0054 	ldrne	r0, [pc, #84]	; 2510 <do_pi+0xd8>
    24b8:	1a000005 	bne	24d4 <do_pi+0x9c>
    24bc:	e3a0000d 	mov	r0, #13	; 0xd
    24c0:	e3a01001 	mov	r1, #1	; 0x1
    24c4:	eb000afb 	bl	50b8 <vs_assign_by_id>
    24c8:	e2504000 	subs	r4, r0, #0	; 0x0
    24cc:	0a000005 	beq	24e8 <do_pi+0xb0>
    24d0:	e59f003c 	ldr	r0, [pc, #60]	; 2514 <do_pi+0xdc>
    24d4:	e1a01004 	mov	r1, r4
    24d8:	e59f302c 	ldr	r3, [pc, #44]	; 250c <do_pi+0xd4>
    24dc:	e1a0e00f 	mov	lr, pc
    24e0:	e593f000 	ldr	pc, [r3]
    24e4:	ea000003 	b	24f8 <do_pi+0xc0>
    24e8:	e3a00441 	mov	r0, #1090519040	; 0x41000000
    24ec:	e3a0100d 	mov	r1, #13	; 0xd
    24f0:	e1a02004 	mov	r2, r4
    24f4:	eb001008 	bl	651c <burn_images>
    24f8:	e1a00004 	mov	r0, r4
    24fc:	e28dd004 	add	sp, sp, #4	; 0x4
    2500:	e8bd8030 	pop	{r4, r5, pc}
    2504:	0001204b 	.word	0x0001204b
    2508:	00012050 	.word	0x00012050
    250c:	0800d76c 	.word	0x0800d76c
    2510:	0001207a 	.word	0x0001207a
    2514:	0001209a 	.word	0x0001209a

00002518 <do_spbyte>:
    2518:	e52de004 	push	{lr}		; (str lr, [sp, #-4]!)
    251c:	e5930004 	ldr	r0, [r3, #4]
    2520:	e24dd004 	sub	sp, sp, #4	; 0x4
    2524:	e3a01000 	mov	r1, #0	; 0x0
    2528:	e3a0200a 	mov	r2, #10	; 0xa
    252c:	eb002af1 	bl	d0f8 <simple_strtoul>
    2530:	eb001b38 	bl	9218 <spi_set_bytes>
    2534:	e3a00000 	mov	r0, #0	; 0x0
    2538:	e28dd004 	add	sp, sp, #4	; 0x4
    253c:	e8bd8000 	pop	{pc}

00002540 <do_cfg>:
    2540:	e52de004 	push	{lr}		; (str lr, [sp, #-4]!)
    2544:	e5930004 	ldr	r0, [r3, #4]
    2548:	e24dd004 	sub	sp, sp, #4	; 0x4
    254c:	e3a01000 	mov	r1, #0	; 0x0
    2550:	e3a02010 	mov	r2, #16	; 0x10
    2554:	eb002ae7 	bl	d0f8 <simple_strtoul>
    2558:	eb000f2a 	bl	6208 <cdbg_config_isi>
    255c:	e3a00000 	mov	r0, #0	; 0x0
    2560:	e28dd004 	add	sp, sp, #4	; 0x4
    2564:	e8bd8000 	pop	{pc}

00002568 <do_sleep>:
    2568:	e52de004 	push	{lr}		; (str lr, [sp, #-4]!)
    256c:	e3a01000 	mov	r1, #0	; 0x0
    2570:	e24dd004 	sub	sp, sp, #4	; 0x4
    2574:	e3a0200a 	mov	r2, #10	; 0xa
    2578:	e5930004 	ldr	r0, [r3, #4]
    257c:	eb002add 	bl	d0f8 <simple_strtoul>
    2580:	e59f3020 	ldr	r3, [pc, #32]	; 25a8 <do_sleep+0x40>
    2584:	e0000093 	mul	r0, r3, r0
    2588:	eb0018b2 	bl	8858 <udelay>
    258c:	e59f0018 	ldr	r0, [pc, #24]	; 25ac <do_sleep+0x44>
    2590:	e59f3018 	ldr	r3, [pc, #24]	; 25b0 <do_sleep+0x48>
    2594:	e1a0e00f 	mov	lr, pc
    2598:	e593f000 	ldr	pc, [r3]
    259c:	e3a00000 	mov	r0, #0	; 0x0
    25a0:	e28dd004 	add	sp, sp, #4	; 0x4
    25a4:	e8bd8000 	pop	{pc}
    25a8:	000f4240 	.word	0x000f4240
    25ac:	000120b5 	.word	0x000120b5
    25b0:	0800d76c 	.word	0x0800d76c

000025b4 <do_go>:
    25b4:	e52de004 	push	{lr}		; (str lr, [sp, #-4]!)
    25b8:	e5930004 	ldr	r0, [r3, #4]
    25bc:	e24dd004 	sub	sp, sp, #4	; 0x4
    25c0:	e3a02010 	mov	r2, #16	; 0x10
    25c4:	e3a01000 	mov	r1, #0	; 0x0
    25c8:	eb002aca 	bl	d0f8 <simple_strtoul>
    25cc:	e3a01000 	mov	r1, #0	; 0x0
    25d0:	eb000e97 	bl	6034 <cdbg_jump>
    25d4:	e3a00000 	mov	r0, #0	; 0x0
    25d8:	e28dd004 	add	sp, sp, #4	; 0x4
    25dc:	e8bd8000 	pop	{pc}

000025e0 <do_ml>:
    25e0:	e52de004 	push	{lr}		; (str lr, [sp, #-4]!)
    25e4:	e24dd004 	sub	sp, sp, #4	; 0x4
    25e8:	ebfffc4d 	bl	1724 <__sOINFo>
    25ec:	e3a00000 	mov	r0, #0	; 0x0
    25f0:	e28dd004 	add	sp, sp, #4	; 0x4
    25f4:	e8bd8000 	pop	{pc}

000025f8 <do_bp>:
    25f8:	e92d4030 	push	{r4, r5, lr}
    25fc:	e3520001 	cmp	r2, #1	; 0x1
    2600:	e24dd004 	sub	sp, sp, #4	; 0x4
    2604:	da000005 	ble	2620 <do_bp+0x28>
    2608:	e5930004 	ldr	r0, [r3, #4]
    260c:	e3a01000 	mov	r1, #0	; 0x0
    2610:	e3a02010 	mov	r2, #16	; 0x10
    2614:	eb002ab7 	bl	d0f8 <simple_strtoul>
    2618:	e6ff0070 	uxth	r0, r0
    261c:	ebfff7d6 	bl	57c <set_xom>
    2620:	e59f5034 	ldr	r5, [pc, #52]	; 265c <do_bp+0x64>
    2624:	e3a00001 	mov	r0, #1	; 0x1
    2628:	e5954000 	ldr	r4, [r5]
    262c:	ebfff7ce 	bl	56c <get_xom>
    2630:	e1a01000 	mov	r1, r0
    2634:	e59f0024 	ldr	r0, [pc, #36]	; 2660 <do_bp+0x68>
    2638:	e12fff34 	blx	r4
    263c:	e5954000 	ldr	r4, [r5]
    2640:	ebfff7d4 	bl	598 <boot_info>
    2644:	e1a01000 	mov	r1, r0
    2648:	e59f0014 	ldr	r0, [pc, #20]	; 2664 <do_bp+0x6c>
    264c:	e12fff34 	blx	r4
    2650:	e3a00000 	mov	r0, #0	; 0x0
    2654:	e28dd004 	add	sp, sp, #4	; 0x4
    2658:	e8bd8030 	pop	{r4, r5, pc}
    265c:	0800d76c 	.word	0x0800d76c
    2660:	000120c0 	.word	0x000120c0
    2664:	000120d6 	.word	0x000120d6

00002668 <do_reset>:
    2668:	e52de004 	push	{lr}		; (str lr, [sp, #-4]!)
    266c:	e24dd004 	sub	sp, sp, #4	; 0x4
    2670:	ebfff86a 	bl	820 <system_reset>
    2674:	e3a00000 	mov	r0, #0	; 0x0
    2678:	e28dd004 	add	sp, sp, #4	; 0x4
    267c:	e8bd8000 	pop	{pc}

00002680 <output_debug>:
    2680:	e24dd010 	sub	sp, sp, #16	; 0x10
    2684:	e52de004 	push	{lr}		; (str lr, [sp, #-4]!)
    2688:	e24dd004 	sub	sp, sp, #4	; 0x4
    268c:	e28dc008 	add	ip, sp, #8	; 0x8
    2690:	e3700002 	cmn	r0, #2	; 0x2
    2694:	e88c000f 	stm	ip, {r0, r1, r2, r3}
    2698:	e1a01000 	mov	r1, r0
    269c:	0a000012 	beq	26ec <output_debug+0x6c>
    26a0:	e3700001 	cmn	r0, #1	; 0x1
    26a4:	0a000008 	beq	26cc <output_debug+0x4c>
    26a8:	e3700003 	cmn	r0, #3	; 0x3
    26ac:	1a000010 	bne	26f4 <output_debug+0x74>
    26b0:	e59f30a4 	ldr	r3, [pc, #164]	; 275c <output_debug+0xdc>
    26b4:	e59f00a4 	ldr	r0, [pc, #164]	; 2760 <output_debug+0xe0>
    26b8:	e5931000 	ldr	r1, [r3]
    26bc:	e59f30a0 	ldr	r3, [pc, #160]	; 2764 <output_debug+0xe4>
    26c0:	e1a0e00f 	mov	lr, pc
    26c4:	e593f000 	ldr	pc, [r3]
    26c8:	ea00001e 	b	2748 <output_debug+0xc8>
    26cc:	e59f3088 	ldr	r3, [pc, #136]	; 275c <output_debug+0xdc>
    26d0:	e59f0090 	ldr	r0, [pc, #144]	; 2768 <output_debug+0xe8>
    26d4:	e5932000 	ldr	r2, [r3]
    26d8:	e28d1010 	add	r1, sp, #16	; 0x10
    26dc:	e59f3080 	ldr	r3, [pc, #128]	; 2764 <output_debug+0xe4>
    26e0:	e1a0e00f 	mov	lr, pc
    26e4:	e593f000 	ldr	pc, [r3]
    26e8:	ea000016 	b	2748 <output_debug+0xc8>
    26ec:	e59f0078 	ldr	r0, [pc, #120]	; 276c <output_debug+0xec>
    26f0:	ea000003 	b	2704 <output_debug+0x84>
    26f4:	e59d300c 	ldr	r3, [sp, #12]
    26f8:	e3530001 	cmp	r3, #1	; 0x1
    26fc:	1a000004 	bne	2714 <output_debug+0x94>
    2700:	e59f0068 	ldr	r0, [pc, #104]	; 2770 <output_debug+0xf0>
    2704:	e59f3058 	ldr	r3, [pc, #88]	; 2764 <output_debug+0xe4>
    2708:	e1a0e00f 	mov	lr, pc
    270c:	e593f000 	ldr	pc, [r3]
    2710:	ea00000c 	b	2748 <output_debug+0xc8>
    2714:	e3530002 	cmp	r3, #2	; 0x2
    2718:	e59fc044 	ldr	ip, [pc, #68]	; 2764 <output_debug+0xe4>
    271c:	1a000003 	bne	2730 <output_debug+0xb0>
    2720:	e59f004c 	ldr	r0, [pc, #76]	; 2774 <output_debug+0xf4>
    2724:	e1a0e00f 	mov	lr, pc
    2728:	e59cf000 	ldr	pc, [ip]
    272c:	ea000005 	b	2748 <output_debug+0xc8>
    2730:	e59f3024 	ldr	r3, [pc, #36]	; 275c <output_debug+0xdc>
    2734:	e59f003c 	ldr	r0, [pc, #60]	; 2778 <output_debug+0xf8>
    2738:	e5933000 	ldr	r3, [r3]
    273c:	e28d2010 	add	r2, sp, #16	; 0x10
    2740:	e1a0e00f 	mov	lr, pc
    2744:	e59cf000 	ldr	pc, [ip]
    2748:	e3a00000 	mov	r0, #0	; 0x0
    274c:	e28dd004 	add	sp, sp, #4	; 0x4
    2750:	e49de004 	pop	{lr}		; (ldr lr, [sp], #4)
    2754:	e28dd010 	add	sp, sp, #16	; 0x10
    2758:	e12fff1e 	bx	lr
    275c:	0800d1b4 	.word	0x0800d1b4
    2760:	0001225e 	.word	0x0001225e
    2764:	0800d76c 	.word	0x0800d76c
    2768:	00012286 	.word	0x00012286
    276c:	00012295 	.word	0x00012295
    2770:	000122af 	.word	0x000122af
    2774:	000122ba 	.word	0x000122ba
    2778:	000122c8 	.word	0x000122c8

0000277c <do_vs>:
    277c:	e92d4ff0 	push	{r4, r5, r6, r7, r8, r9, sl, fp, lr}
    2780:	e3520006 	cmp	r2, #6	; 0x6
    2784:	e24dd024 	sub	sp, sp, #36	; 0x24
    2788:	e1a06000 	mov	r6, r0
    278c:	e1a04003 	mov	r4, r3
    2790:	1a000005 	bne	27ac <do_vs+0x30>
    2794:	e5930014 	ldr	r0, [r3, #20]
    2798:	e3a01000 	mov	r1, #0	; 0x0
    279c:	e282200a 	add	r2, r2, #10	; 0xa
    27a0:	eb002a54 	bl	d0f8 <simple_strtoul>
    27a4:	e1a05000 	mov	r5, r0
    27a8:	ea00008f 	b	29ec <do_vs+0x270>
    27ac:	e2423001 	sub	r3, r2, #1	; 0x1
    27b0:	e3530005 	cmp	r3, #5	; 0x5
    27b4:	979ff103 	ldrls	pc, [pc, r3, lsl #2]
    27b8:	ea0000c4 	b	2ad0 <do_vs+0x354>
    27bc:	00002ad0 	.word	0x00002ad0
    27c0:	000027d4 	.word	0x000027d4
    27c4:	000028cc 	.word	0x000028cc
    27c8:	0000293c 	.word	0x0000293c
    27cc:	000029e8 	.word	0x000029e8
    27d0:	000029e8 	.word	0x000029e8
    27d4:	e5940004 	ldr	r0, [r4, #4]
    27d8:	e59f1310 	ldr	r1, [pc, #784]	; 2af0 <do_vs+0x374>
    27dc:	ebfffa93 	bl	1230 <strcmp>
    27e0:	e2505000 	subs	r5, r0, #0	; 0x0
    27e4:	1a000025 	bne	2880 <do_vs+0x104>
    27e8:	e59f4304 	ldr	r4, [pc, #772]	; 2af4 <do_vs+0x378>
    27ec:	e59f0304 	ldr	r0, [pc, #772]	; 2af8 <do_vs+0x37c>
    27f0:	e1a0e00f 	mov	lr, pc
    27f4:	e594f000 	ldr	pc, [r4]
    27f8:	e3a0802c 	mov	r8, #44	; 0x2c
    27fc:	e59f72f8 	ldr	r7, [pc, #760]	; 2afc <do_vs+0x380>
    2800:	ea000003 	b	2814 <do_vs+0x98>
    2804:	e0227598 	mla	r2, r8, r5, r7
    2808:	e1a0e00f 	mov	lr, pc
    280c:	e594f000 	ldr	pc, [r4]
    2810:	e2855001 	add	r5, r5, #1	; 0x1
    2814:	eb000951 	bl	4d60 <vs_device_count>
    2818:	e1550000 	cmp	r5, r0
    281c:	e1a01005 	mov	r1, r5
    2820:	e59f02d8 	ldr	r0, [pc, #728]	; 2b00 <do_vs+0x384>
    2824:	e59f62c8 	ldr	r6, [pc, #712]	; 2af4 <do_vs+0x378>
    2828:	bafffff5 	blt	2804 <do_vs+0x88>
    282c:	e59f02d0 	ldr	r0, [pc, #720]	; 2b04 <do_vs+0x388>
    2830:	e1a0e00f 	mov	lr, pc
    2834:	e596f000 	ldr	pc, [r6]
    2838:	eb00084e 	bl	4978 <vs_is_assigned>
    283c:	e2504000 	subs	r4, r0, #0	; 0x0
    2840:	0a000009 	beq	286c <do_vs+0xf0>
    2844:	e59f32bc 	ldr	r3, [pc, #700]	; 2b08 <do_vs+0x38c>
    2848:	e5965000 	ldr	r5, [r6]
    284c:	e5934000 	ldr	r4, [r3]
    2850:	e1a00004 	mov	r0, r4
    2854:	eb0008c2 	bl	4b64 <vs_align>
    2858:	e1a01004 	mov	r1, r4
    285c:	e1a02000 	mov	r2, r0
    2860:	e59f02a4 	ldr	r0, [pc, #676]	; 2b0c <do_vs+0x390>
    2864:	e12fff35 	blx	r5
    2868:	ea00009d 	b	2ae4 <do_vs+0x368>
    286c:	e59f029c 	ldr	r0, [pc, #668]	; 2b10 <do_vs+0x394>
    2870:	e1a0e00f 	mov	lr, pc
    2874:	e596f000 	ldr	pc, [r6]
    2878:	e1a00004 	mov	r0, r4
    287c:	ea000099 	b	2ae8 <do_vs+0x36c>
    2880:	e5940004 	ldr	r0, [r4, #4]
    2884:	e59f1288 	ldr	r1, [pc, #648]	; 2b14 <do_vs+0x398>
    2888:	ebfffa68 	bl	1230 <strcmp>
    288c:	e2505000 	subs	r5, r0, #0	; 0x0
    2890:	1a000087 	bne	2ab4 <do_vs+0x338>
    2894:	eb0009f8 	bl	507c <vs_reset>
    2898:	e28d4020 	add	r4, sp, #32	; 0x20
    289c:	e5240018 	str	r0, [r4, #-24]!
    28a0:	e59f126c 	ldr	r1, [pc, #620]	; 2b14 <do_vs+0x398>
    28a4:	e2840008 	add	r0, r4, #8	; 0x8
    28a8:	ebfffa36 	bl	1188 <strcpy>
    28ac:	e3a03001 	mov	r3, #1	; 0x1
    28b0:	e58d300c 	str	r3, [sp, #12]
    28b4:	e28d3018 	add	r3, sp, #24	; 0x18
    28b8:	e8930003 	ldm	r3, {r0, r1}
    28bc:	e88d0003 	stm	sp, {r0, r1}
    28c0:	e894000f 	ldm	r4, {r0, r1, r2, r3}
    28c4:	ebffff6d 	bl	2680 <output_debug>
    28c8:	ea000019 	b	2934 <do_vs+0x1b8>
    28cc:	e5940004 	ldr	r0, [r4, #4]
    28d0:	e59f1240 	ldr	r1, [pc, #576]	; 2b18 <do_vs+0x39c>
    28d4:	ebfffa55 	bl	1230 <strcmp>
    28d8:	e2505000 	subs	r5, r0, #0	; 0x0
    28dc:	1a000074 	bne	2ab4 <do_vs+0x338>
    28e0:	e5940008 	ldr	r0, [r4, #8]
    28e4:	e3a01001 	mov	r1, #1	; 0x1
    28e8:	eb000a10 	bl	5130 <vs_assign_by_name>
    28ec:	e2507000 	subs	r7, r0, #0	; 0x0
    28f0:	e59f61fc 	ldr	r6, [pc, #508]	; 2af4 <do_vs+0x378>
    28f4:	1a00000b 	bne	2928 <do_vs+0x1ac>
    28f8:	e5943008 	ldr	r3, [r4, #8]
    28fc:	e59f2218 	ldr	r2, [pc, #536]	; 2b1c <do_vs+0x3a0>
    2900:	e1a00003 	mov	r0, r3
    2904:	e5823000 	str	r3, [r2]
    2908:	eb000916 	bl	4d68 <vs_device_id>
    290c:	e59f31f4 	ldr	r3, [pc, #500]	; 2b08 <do_vs+0x38c>
    2910:	e5830000 	str	r0, [r3]
    2914:	e59f0204 	ldr	r0, [pc, #516]	; 2b20 <do_vs+0x3a4>
    2918:	e1a0e00f 	mov	lr, pc
    291c:	e596f000 	ldr	pc, [r6]
    2920:	e1a00007 	mov	r0, r7
    2924:	ea00006f 	b	2ae8 <do_vs+0x36c>
    2928:	e59f01f4 	ldr	r0, [pc, #500]	; 2b24 <do_vs+0x3a8>
    292c:	e1a0e00f 	mov	lr, pc
    2930:	e596f000 	ldr	pc, [r6]
    2934:	e1a00005 	mov	r0, r5
    2938:	ea00006a 	b	2ae8 <do_vs+0x36c>
    293c:	e3a02010 	mov	r2, #16	; 0x10
    2940:	e5940008 	ldr	r0, [r4, #8]
    2944:	e3a01000 	mov	r1, #0	; 0x0
    2948:	eb002a42 	bl	d258 <simple_strtoull>
    294c:	e3a02010 	mov	r2, #16	; 0x10
    2950:	e1a07000 	mov	r7, r0
    2954:	e1a08001 	mov	r8, r1
    2958:	e594000c 	ldr	r0, [r4, #12]
    295c:	e3a01000 	mov	r1, #0	; 0x0
    2960:	eb002a3c 	bl	d258 <simple_strtoull>
    2964:	e59f11bc 	ldr	r1, [pc, #444]	; 2b28 <do_vs+0x3ac>
    2968:	e1a05000 	mov	r5, r0
    296c:	e28d0010 	add	r0, sp, #16	; 0x10
    2970:	ebfffa04 	bl	1188 <strcpy>
    2974:	e3a03002 	mov	r3, #2	; 0x2
    2978:	e5940004 	ldr	r0, [r4, #4]
    297c:	e59f11a4 	ldr	r1, [pc, #420]	; 2b28 <do_vs+0x3ac>
    2980:	e58d300c 	str	r3, [sp, #12]
    2984:	ebfffa29 	bl	1230 <strcmp>
    2988:	e3500000 	cmp	r0, #0	; 0x0
    298c:	1a000004 	bne	29a4 <do_vs+0x228>
    2990:	e1a00007 	mov	r0, r7
    2994:	e1a01008 	mov	r1, r8
    2998:	e1a02005 	mov	r2, r5
    299c:	eb000834 	bl	4a74 <vs_erase>
    29a0:	ea000008 	b	29c8 <do_vs+0x24c>
    29a4:	e5940004 	ldr	r0, [r4, #4]
    29a8:	e59f117c 	ldr	r1, [pc, #380]	; 2b2c <do_vs+0x3b0>
    29ac:	ebfffa1f 	bl	1230 <strcmp>
    29b0:	e3500000 	cmp	r0, #0	; 0x0
    29b4:	1a00003e 	bne	2ab4 <do_vs+0x338>
    29b8:	e1a00007 	mov	r0, r7
    29bc:	e1a01008 	mov	r1, r8
    29c0:	e1a02005 	mov	r2, r5
    29c4:	eb000848 	bl	4aec <vs_scrub>
    29c8:	e58d0008 	str	r0, [sp, #8]
    29cc:	e28d2018 	add	r2, sp, #24	; 0x18
    29d0:	e8920003 	ldm	r2, {r0, r1}
    29d4:	e88d0003 	stm	sp, {r0, r1}
    29d8:	e28d3008 	add	r3, sp, #8	; 0x8
    29dc:	e893000f 	ldm	r3, {r0, r1, r2, r3}
    29e0:	ebffff26 	bl	2680 <output_debug>
    29e4:	ea00003e 	b	2ae4 <do_vs+0x368>
    29e8:	e3a05000 	mov	r5, #0	; 0x0
    29ec:	e3a01000 	mov	r1, #0	; 0x0
    29f0:	e3a02010 	mov	r2, #16	; 0x10
    29f4:	e5940008 	ldr	r0, [r4, #8]
    29f8:	eb0029be 	bl	d0f8 <simple_strtoul>
    29fc:	e3a02010 	mov	r2, #16	; 0x10
    2a00:	e1a09000 	mov	r9, r0
    2a04:	e3a01000 	mov	r1, #0	; 0x0
    2a08:	e594000c 	ldr	r0, [r4, #12]
    2a0c:	eb002a11 	bl	d258 <simple_strtoull>
    2a10:	e3a02010 	mov	r2, #16	; 0x10
    2a14:	e1a08000 	mov	r8, r0
    2a18:	e1a0a001 	mov	sl, r1
    2a1c:	e5940010 	ldr	r0, [r4, #16]
    2a20:	e3a01000 	mov	r1, #0	; 0x0
    2a24:	e08db002 	add	fp, sp, r2
    2a28:	eb002a0a 	bl	d258 <simple_strtoull>
    2a2c:	e3a03000 	mov	r3, #0	; 0x0
    2a30:	e59f10f8 	ldr	r1, [pc, #248]	; 2b30 <do_vs+0x3b4>
    2a34:	e1a07000 	mov	r7, r0
    2a38:	e1a0000b 	mov	r0, fp
    2a3c:	e58d300c 	str	r3, [sp, #12]
    2a40:	ebfff9d0 	bl	1188 <strcpy>
    2a44:	e5940004 	ldr	r0, [r4, #4]
    2a48:	e59f10e4 	ldr	r1, [pc, #228]	; 2b34 <do_vs+0x3b8>
    2a4c:	ebfff9f7 	bl	1230 <strcmp>
    2a50:	e3500000 	cmp	r0, #0	; 0x0
    2a54:	1a000006 	bne	2a74 <do_vs+0x2f8>
    2a58:	e1a00009 	mov	r0, r9
    2a5c:	e1a02008 	mov	r2, r8
    2a60:	e1a0300a 	mov	r3, sl
    2a64:	e58d7000 	str	r7, [sp]
    2a68:	e58d5004 	str	r5, [sp, #4]
    2a6c:	eb0007ea 	bl	4a1c <vs_write>
    2a70:	eaffffd4 	b	29c8 <do_vs+0x24c>
    2a74:	e5940004 	ldr	r0, [r4, #4]
    2a78:	e59f10b8 	ldr	r1, [pc, #184]	; 2b38 <do_vs+0x3bc>
    2a7c:	ebfff9eb 	bl	1230 <strcmp>
    2a80:	e3500000 	cmp	r0, #0	; 0x0
    2a84:	1a00000a 	bne	2ab4 <do_vs+0x338>
    2a88:	e1a00009 	mov	r0, r9
    2a8c:	e1a02008 	mov	r2, r8
    2a90:	e1a0300a 	mov	r3, sl
    2a94:	e58d7000 	str	r7, [sp]
    2a98:	e58d5004 	str	r5, [sp, #4]
    2a9c:	eb0008de 	bl	4e1c <vs_read>
    2aa0:	e59f1094 	ldr	r1, [pc, #148]	; 2b3c <do_vs+0x3c0>
    2aa4:	e58d0008 	str	r0, [sp, #8]
    2aa8:	e1a0000b 	mov	r0, fp
    2aac:	ebfff9b5 	bl	1188 <strcpy>
    2ab0:	eaffffc5 	b	29cc <do_vs+0x250>
    2ab4:	e59f0084 	ldr	r0, [pc, #132]	; 2b40 <do_vs+0x3c4>
    2ab8:	e5961014 	ldr	r1, [r6, #20]
    2abc:	e59f3030 	ldr	r3, [pc, #48]	; 2af4 <do_vs+0x378>
    2ac0:	e1a0e00f 	mov	lr, pc
    2ac4:	e593f000 	ldr	pc, [r3]
    2ac8:	e3e00000 	mvn	r0, #0	; 0x0
    2acc:	ea000005 	b	2ae8 <do_vs+0x36c>
    2ad0:	e5901014 	ldr	r1, [r0, #20]
    2ad4:	e59f3018 	ldr	r3, [pc, #24]	; 2af4 <do_vs+0x378>
    2ad8:	e59f0060 	ldr	r0, [pc, #96]	; 2b40 <do_vs+0x3c4>
    2adc:	e1a0e00f 	mov	lr, pc
    2ae0:	e593f000 	ldr	pc, [r3]
    2ae4:	e3a00000 	mov	r0, #0	; 0x0
    2ae8:	e28dd024 	add	sp, sp, #36	; 0x24
    2aec:	e8bd8ff0 	pop	{r4, r5, r6, r7, r8, r9, sl, fp, pc}
    2af0:	00012105 	.word	0x00012105
    2af4:	0800d76c 	.word	0x0800d76c
    2af8:	000122df 	.word	0x000122df
    2afc:	00010eec 	.word	0x00010eec
    2b00:	000122ed 	.word	0x000122ed
    2b04:	000122f5 	.word	0x000122f5
    2b08:	0800d1b4 	.word	0x0800d1b4
    2b0c:	00012307 	.word	0x00012307
    2b10:	00012311 	.word	0x00012311
    2b14:	000120f3 	.word	0x000120f3
    2b18:	0001410c 	.word	0x0001410c
    2b1c:	0800d1b8 	.word	0x0800d1b8
    2b20:	00012324 	.word	0x00012324
    2b24:	00012330 	.word	0x00012330
    2b28:	0001235d 	.word	0x0001235d
    2b2c:	00012363 	.word	0x00012363
    2b30:	00012369 	.word	0x00012369
    2b34:	00012372 	.word	0x00012372
    2b38:	00012378 	.word	0x00012378
    2b3c:	0001237d 	.word	0x0001237d
    2b40:	00011d13 	.word	0x00011d13

00002b44 <cmd_get_data_size>:
    2b44:	e92d4030 	push	{r4, r5, lr}
    2b48:	e24dd004 	sub	sp, sp, #4	; 0x4
    2b4c:	e1a04001 	mov	r4, r1
    2b50:	e1a05000 	mov	r5, r0
    2b54:	ebfff9e2 	bl	12e4 <strlen>
    2b58:	e3500002 	cmp	r0, #2	; 0x2
    2b5c:	da000015 	ble	2bb8 <cmd_get_data_size+0x74>
    2b60:	e0850000 	add	r0, r5, r0
    2b64:	e5503002 	ldrb	r3, [r0, #-2]
    2b68:	e353002e 	cmp	r3, #46	; 0x2e
    2b6c:	1a000011 	bne	2bb8 <cmd_get_data_size+0x74>
    2b70:	e5500001 	ldrb	r0, [r0, #-1]
    2b74:	e350006c 	cmp	r0, #108	; 0x6c
    2b78:	03a04004 	moveq	r4, #4	; 0x4
    2b7c:	0a00000d 	beq	2bb8 <cmd_get_data_size+0x74>
    2b80:	8a000002 	bhi	2b90 <cmd_get_data_size+0x4c>
    2b84:	e3500062 	cmp	r0, #98	; 0x62
    2b88:	1a000009 	bne	2bb4 <cmd_get_data_size+0x70>
    2b8c:	ea000006 	b	2bac <cmd_get_data_size+0x68>
    2b90:	e3500073 	cmp	r0, #115	; 0x73
    2b94:	03e04001 	mvneq	r4, #1	; 0x1
    2b98:	0a000006 	beq	2bb8 <cmd_get_data_size+0x74>
    2b9c:	e3500077 	cmp	r0, #119	; 0x77
    2ba0:	03a04002 	moveq	r4, #2	; 0x2
    2ba4:	1a000002 	bne	2bb4 <cmd_get_data_size+0x70>
    2ba8:	ea000002 	b	2bb8 <cmd_get_data_size+0x74>
    2bac:	e3a04001 	mov	r4, #1	; 0x1
    2bb0:	ea000000 	b	2bb8 <cmd_get_data_size+0x74>
    2bb4:	e3e04000 	mvn	r4, #0	; 0x0
    2bb8:	e1a00004 	mov	r0, r4
    2bbc:	e28dd004 	add	sp, sp, #4	; 0x4
    2bc0:	e8bd8030 	pop	{r4, r5, pc}

00002bc4 <cmd_usage>:
    2bc4:	e92d4030 	push	{r4, r5, lr}
    2bc8:	e1a04000 	mov	r4, r0
    2bcc:	e24dd004 	sub	sp, sp, #4	; 0x4
    2bd0:	e59f5054 	ldr	r5, [pc, #84]	; 2c2c <cmd_usage+0x68>
    2bd4:	e59f0054 	ldr	r0, [pc, #84]	; 2c30 <cmd_usage+0x6c>
    2bd8:	e5941000 	ldr	r1, [r4]
    2bdc:	e5942010 	ldr	r2, [r4, #16]
    2be0:	e1a0e00f 	mov	lr, pc
    2be4:	e595f000 	ldr	pc, [r5]
    2be8:	e59f0044 	ldr	r0, [pc, #68]	; 2c34 <cmd_usage+0x70>
    2bec:	e5941000 	ldr	r1, [r4]
    2bf0:	e1a0e00f 	mov	lr, pc
    2bf4:	e595f000 	ldr	pc, [r5]
    2bf8:	e5940014 	ldr	r0, [r4, #20]
    2bfc:	e3500000 	cmp	r0, #0	; 0x0
    2c00:	1a000003 	bne	2c14 <cmd_usage+0x50>
    2c04:	e59f002c 	ldr	r0, [pc, #44]	; 2c38 <cmd_usage+0x74>
    2c08:	eb002d28 	bl	e0b0 <puts>
    2c0c:	e3a00001 	mov	r0, #1	; 0x1
    2c10:	ea000003 	b	2c24 <cmd_usage+0x60>
    2c14:	eb002d25 	bl	e0b0 <puts>
    2c18:	e3a0000a 	mov	r0, #10	; 0xa
    2c1c:	eb002d4b 	bl	e150 <putc>
    2c20:	e3a00000 	mov	r0, #0	; 0x0
    2c24:	e28dd004 	add	sp, sp, #4	; 0x4
    2c28:	e8bd8030 	pop	{r4, r5, pc}
    2c2c:	0800d76c 	.word	0x0800d76c
    2c30:	00012472 	.word	0x00012472
    2c34:	0001247c 	.word	0x0001247c
    2c38:	00012487 	.word	0x00012487

00002c3c <find_cmd_tbl>:
    2c3c:	e92d45f0 	push	{r4, r5, r6, r7, r8, sl, lr}
    2c40:	e1a05001 	mov	r5, r1
    2c44:	e24dd004 	sub	sp, sp, #4	; 0x4
    2c48:	e3a0102e 	mov	r1, #46	; 0x2e
    2c4c:	e1a07000 	mov	r7, r0
    2c50:	e1a08002 	mov	r8, r2
    2c54:	ebfff997 	bl	12b8 <strchr>
    2c58:	e3500000 	cmp	r0, #0	; 0x0
    2c5c:	10676000 	rsbne	r6, r7, r0
    2c60:	1a000002 	bne	2c70 <find_cmd_tbl+0x34>
    2c64:	e1a00007 	mov	r0, r7
    2c68:	ebfff99d 	bl	12e4 <strlen>
    2c6c:	e1a06000 	mov	r6, r0
    2c70:	e3a03018 	mov	r3, #24	; 0x18
    2c74:	e02a5893 	mla	sl, r3, r8, r5
    2c78:	e1a04005 	mov	r4, r5
    2c7c:	e1a08005 	mov	r8, r5
    2c80:	e3a05000 	mov	r5, #0	; 0x0
    2c84:	ea00000a 	b	2cb4 <find_cmd_tbl+0x78>
    2c88:	e5941000 	ldr	r1, [r4]
    2c8c:	ebfff975 	bl	1268 <strncmp>
    2c90:	e3500000 	cmp	r0, #0	; 0x0
    2c94:	1a000005 	bne	2cb0 <find_cmd_tbl+0x74>
    2c98:	e5940000 	ldr	r0, [r4]
    2c9c:	ebfff990 	bl	12e4 <strlen>
    2ca0:	e1560000 	cmp	r6, r0
    2ca4:	0a000009 	beq	2cd0 <find_cmd_tbl+0x94>
    2ca8:	e2855001 	add	r5, r5, #1	; 0x1
    2cac:	e1a08004 	mov	r8, r4
    2cb0:	e2844018 	add	r4, r4, #24	; 0x18
    2cb4:	e154000a 	cmp	r4, sl
    2cb8:	e1a02006 	mov	r2, r6
    2cbc:	e1a00007 	mov	r0, r7
    2cc0:	1afffff0 	bne	2c88 <find_cmd_tbl+0x4c>
    2cc4:	e3550001 	cmp	r5, #1	; 0x1
    2cc8:	01a04008 	moveq	r4, r8
    2ccc:	13a04000 	movne	r4, #0	; 0x0
    2cd0:	e1a00004 	mov	r0, r4
    2cd4:	e28dd004 	add	sp, sp, #4	; 0x4
    2cd8:	e8bd85f0 	pop	{r4, r5, r6, r7, r8, sl, pc}

00002cdc <find_cmd>:
    2cdc:	e59f1014 	ldr	r1, [pc, #20]	; 2cf8 <find_cmd+0x1c>
    2ce0:	e59f2014 	ldr	r2, [pc, #20]	; 2cfc <find_cmd+0x20>
    2ce4:	e59f3014 	ldr	r3, [pc, #20]	; 2d00 <find_cmd+0x24>
    2ce8:	e0612002 	rsb	r2, r1, r2
    2cec:	e1a021c2 	asr	r2, r2, #3
    2cf0:	e0020293 	mul	r2, r3, r2
    2cf4:	eaffffd0 	b	2c3c <find_cmd_tbl>
    2cf8:	0001447c 	.word	0x0001447c
    2cfc:	0001474c 	.word	0x0001474c
    2d00:	aaaaaaab 	.word	0xaaaaaaab

00002d04 <_do_help>:
    2d04:	e1a0c00d 	mov	ip, sp
    2d08:	e92ddff0 	push	{r4, r5, r6, r7, r8, r9, sl, fp, ip, lr, pc}
    2d0c:	e24cb004 	sub	fp, ip, #4	; 0x4
    2d10:	e24dd004 	sub	sp, sp, #4	; 0x4
    2d14:	e59b8004 	ldr	r8, [fp, #4]
    2d18:	e1a07000 	mov	r7, r0
    2d1c:	e3580001 	cmp	r8, #1	; 0x1
    2d20:	e1a0a001 	mov	sl, r1
    2d24:	159b5008 	ldrne	r5, [fp, #8]
    2d28:	13a06001 	movne	r6, #1	; 0x1
    2d2c:	13a04000 	movne	r4, #0	; 0x0
    2d30:	159f9158 	ldrne	r9, [pc, #344]	; 2e90 <_do_help+0x18c>
    2d34:	1a00004e 	bne	2e74 <_do_help+0x170>
    2d38:	e1a03101 	lsl	r3, r1, #2
    2d3c:	e283300e 	add	r3, r3, #14	; 0xe
    2d40:	e3c33007 	bic	r3, r3, #7	; 0x7
    2d44:	e1a0900d 	mov	r9, sp
    2d48:	e063d00d 	rsb	sp, r3, sp
    2d4c:	e1a0800d 	mov	r8, sp
    2d50:	e3a03000 	mov	r3, #0	; 0x0
    2d54:	ea000002 	b	2d64 <_do_help+0x60>
    2d58:	e7880103 	str	r0, [r8, r3, lsl #2]
    2d5c:	e2800018 	add	r0, r0, #24	; 0x18
    2d60:	e2833001 	add	r3, r3, #1	; 0x1
    2d64:	e153000a 	cmp	r3, sl
    2d68:	bafffffa 	blt	2d58 <_do_help+0x54>
    2d6c:	e24a7001 	sub	r7, sl, #1	; 0x1
    2d70:	ea000015 	b	2dcc <_do_help+0xc8>
    2d74:	e5943000 	ldr	r3, [r4]
    2d78:	e5942004 	ldr	r2, [r4, #4]
    2d7c:	e5930000 	ldr	r0, [r3]
    2d80:	e5921000 	ldr	r1, [r2]
    2d84:	ebfff929 	bl	1230 <strcmp>
    2d88:	e3500000 	cmp	r0, #0	; 0x0
    2d8c:	c5942000 	ldrgt	r2, [r4]
    2d90:	c5943004 	ldrgt	r3, [r4, #4]
    2d94:	e2855001 	add	r5, r5, #1	; 0x1
    2d98:	c5843000 	strgt	r3, [r4]
    2d9c:	c5842004 	strgt	r2, [r4, #4]
    2da0:	c2866001 	addgt	r6, r6, #1	; 0x1
    2da4:	e1550007 	cmp	r5, r7
    2da8:	e2844004 	add	r4, r4, #4	; 0x4
    2dac:	bafffff0 	blt	2d74 <_do_help+0x70>
    2db0:	e3560000 	cmp	r6, #0	; 0x0
    2db4:	1a000003 	bne	2dc8 <_do_help+0xc4>
    2db8:	e3a05000 	mov	r5, #0	; 0x0
    2dbc:	e1a04005 	mov	r4, r5
    2dc0:	e59f70c8 	ldr	r7, [pc, #200]	; 2e90 <_do_help+0x18c>
    2dc4:	ea000016 	b	2e24 <_do_help+0x120>
    2dc8:	e2477001 	sub	r7, r7, #1	; 0x1
    2dcc:	e3570000 	cmp	r7, #0	; 0x0
    2dd0:	dafffff8 	ble	2db8 <_do_help+0xb4>
    2dd4:	e3a05000 	mov	r5, #0	; 0x0
    2dd8:	e1a04008 	mov	r4, r8
    2ddc:	e1a06005 	mov	r6, r5
    2de0:	eaffffe3 	b	2d74 <_do_help+0x70>
    2de4:	e7983004 	ldr	r3, [r8, r4]
    2de8:	e5936010 	ldr	r6, [r3, #16]
    2dec:	eb002cda 	bl	e15c <ctrlc>
    2df0:	e3500000 	cmp	r0, #0	; 0x0
    2df4:	e1a03006 	mov	r3, r6
    2df8:	e3a01008 	mov	r1, #8	; 0x8
    2dfc:	e59f0090 	ldr	r0, [pc, #144]	; 2e94 <_do_help+0x190>
    2e00:	13a04001 	movne	r4, #1	; 0x1
    2e04:	1a00000a 	bne	2e34 <_do_help+0x130>
    2e08:	e3560000 	cmp	r6, #0	; 0x0
    2e0c:	0a000003 	beq	2e20 <_do_help+0x11c>
    2e10:	e7982004 	ldr	r2, [r8, r4]
    2e14:	e5922000 	ldr	r2, [r2]
    2e18:	e1a0e00f 	mov	lr, pc
    2e1c:	e597f000 	ldr	pc, [r7]
    2e20:	e2844004 	add	r4, r4, #4	; 0x4
    2e24:	e155000a 	cmp	r5, sl
    2e28:	e2855001 	add	r5, r5, #1	; 0x1
    2e2c:	baffffec 	blt	2de4 <_do_help+0xe0>
    2e30:	e3a04000 	mov	r4, #0	; 0x0
    2e34:	e1a0d009 	mov	sp, r9
    2e38:	ea000011 	b	2e84 <_do_help+0x180>
    2e3c:	e5950004 	ldr	r0, [r5, #4]
    2e40:	ebffff7d 	bl	2c3c <find_cmd_tbl>
    2e44:	e3500000 	cmp	r0, #0	; 0x0
    2e48:	0a000002 	beq	2e58 <_do_help+0x154>
    2e4c:	ebffff5c 	bl	2bc4 <cmd_usage>
    2e50:	e1844000 	orr	r4, r4, r0
    2e54:	ea000004 	b	2e6c <_do_help+0x168>
    2e58:	e5951004 	ldr	r1, [r5, #4]
    2e5c:	e59f0034 	ldr	r0, [pc, #52]	; 2e98 <_do_help+0x194>
    2e60:	e1a0e00f 	mov	lr, pc
    2e64:	e599f000 	ldr	pc, [r9]
    2e68:	e3a04001 	mov	r4, #1	; 0x1
    2e6c:	e2866001 	add	r6, r6, #1	; 0x1
    2e70:	e2855004 	add	r5, r5, #4	; 0x4
    2e74:	e1560008 	cmp	r6, r8
    2e78:	e1a01007 	mov	r1, r7
    2e7c:	e1a0200a 	mov	r2, sl
    2e80:	baffffed 	blt	2e3c <_do_help+0x138>
    2e84:	e1a00004 	mov	r0, r4
    2e88:	e24bd028 	sub	sp, fp, #40	; 0x28
    2e8c:	e89daff0 	ldm	sp, {r4, r5, r6, r7, r8, r9, sl, fp, sp, pc}
    2e90:	0800d76c 	.word	0x0800d76c
    2e94:	000124a8 	.word	0x000124a8
    2e98:	000124b2 	.word	0x000124b2

00002e9c <do_help>:
    2e9c:	e92d4030 	push	{r4, r5, lr}
    2ea0:	e59fc038 	ldr	ip, [pc, #56]	; 2ee0 <do_help+0x44>
    2ea4:	e59fe038 	ldr	lr, [pc, #56]	; 2ee4 <do_help+0x48>
    2ea8:	e1a05001 	mov	r5, r1
    2eac:	e06ec00c 	rsb	ip, lr, ip
    2eb0:	e59f1030 	ldr	r1, [pc, #48]	; 2ee8 <do_help+0x4c>
    2eb4:	e24dd00c 	sub	sp, sp, #12	; 0xc
    2eb8:	e1a04000 	mov	r4, r0
    2ebc:	e1a0c1cc 	asr	ip, ip, #3
    2ec0:	e88d000c 	stm	sp, {r2, r3}
    2ec4:	e0010c91 	mul	r1, r1, ip
    2ec8:	e1a0000e 	mov	r0, lr
    2ecc:	e1a02004 	mov	r2, r4
    2ed0:	e1a03005 	mov	r3, r5
    2ed4:	ebffff8a 	bl	2d04 <_do_help>
    2ed8:	e28dd00c 	add	sp, sp, #12	; 0xc
    2edc:	e8bd8030 	pop	{r4, r5, pc}
    2ee0:	0001474c 	.word	0x0001474c
    2ee4:	0001447c 	.word	0x0001447c
    2ee8:	aaaaaaab 	.word	0xaaaaaaab

00002eec <tt_blk_trolling>:
    2eec:	e92d4ff0 	push	{r4, r5, r6, r7, r8, r9, sl, fp, lr}
    2ef0:	e3a01001 	mov	r1, #1	; 0x1
    2ef4:	e24dd02c 	sub	sp, sp, #44	; 0x2c
    2ef8:	e1a04002 	mov	r4, r2
    2efc:	e1a05003 	mov	r5, r3
    2f00:	e58d0010 	str	r0, [sp, #16]
    2f04:	e59da050 	ldr	sl, [sp, #80]
    2f08:	eb000888 	bl	5130 <vs_assign_by_name>
    2f0c:	e3500000 	cmp	r0, #0	; 0x0
    2f10:	0a000005 	beq	2f2c <tt_blk_trolling+0x40>
    2f14:	e59d1010 	ldr	r1, [sp, #16]
    2f18:	e59f03d4 	ldr	r0, [pc, #980]	; 32f4 <tt_blk_trolling+0x408>
    2f1c:	e59f33d4 	ldr	r3, [pc, #980]	; 32f8 <tt_blk_trolling+0x40c>
    2f20:	e1a0e00f 	mov	lr, pc
    2f24:	e593f000 	ldr	pc, [r3]
    2f28:	ea000026 	b	2fc8 <tt_blk_trolling+0xdc>
    2f2c:	e1940005 	orrs	r0, r4, r5
    2f30:	03a04502 	moveq	r4, #8388608	; 0x800000
    2f34:	03a06502 	moveq	r6, #8388608	; 0x800000
    2f38:	03a07000 	moveq	r7, #0	; 0x0
    2f3c:	0a00000b 	beq	2f70 <tt_blk_trolling+0x84>
    2f40:	e3550000 	cmp	r5, #0	; 0x0
    2f44:	1a000006 	bne	2f64 <tt_blk_trolling+0x78>
    2f48:	e3540502 	cmp	r4, #8388608	; 0x800000
    2f4c:	2a000004 	bcs	2f64 <tt_blk_trolling+0x78>
    2f50:	e3a0000e 	mov	r0, #14	; 0xe
    2f54:	eb000702 	bl	4b64 <vs_align>
    2f58:	e1a06004 	mov	r6, r4
    2f5c:	e1a07005 	mov	r7, r5
    2f60:	ea000002 	b	2f70 <tt_blk_trolling+0x84>
    2f64:	e1a06004 	mov	r6, r4
    2f68:	e1a07005 	mov	r7, r5
    2f6c:	e3a04502 	mov	r4, #8388608	; 0x800000
    2f70:	e3a0000e 	mov	r0, #14	; 0xe
    2f74:	eb0006fa 	bl	4b64 <vs_align>
    2f78:	e1a01000 	mov	r1, r0
    2f7c:	e1a00004 	mov	r0, r4
    2f80:	eb003460 	bl	10108 <__aeabi_uidiv>
    2f84:	e1a01000 	mov	r1, r0
    2f88:	e3a00000 	mov	r0, #0	; 0x0
    2f8c:	eb000514 	bl	43e4 <tt_rnd_get_int>
    2f90:	e1a04000 	mov	r4, r0
    2f94:	e3a0000e 	mov	r0, #14	; 0xe
    2f98:	eb0006f1 	bl	4b64 <vs_align>
    2f9c:	e0040094 	mul	r4, r4, r0
    2fa0:	e28d0024 	add	r0, sp, #36	; 0x24
    2fa4:	e1a01004 	mov	r1, r4
    2fa8:	e1a02004 	mov	r2, r4
    2fac:	eb000535 	bl	4488 <tt_rnd_get_data>
    2fb0:	e250b000 	subs	fp, r0, #0	; 0x0
    2fb4:	1a000005 	bne	2fd0 <tt_blk_trolling+0xe4>
    2fb8:	e59f033c 	ldr	r0, [pc, #828]	; 32fc <tt_blk_trolling+0x410>
    2fbc:	e59f3334 	ldr	r3, [pc, #820]	; 32f8 <tt_blk_trolling+0x40c>
    2fc0:	e1a0e00f 	mov	lr, pc
    2fc4:	e593f000 	ldr	pc, [r3]
    2fc8:	e3e00000 	mvn	r0, #0	; 0x0
    2fcc:	ea0000c6 	b	32ec <tt_blk_trolling+0x400>
    2fd0:	e59d3024 	ldr	r3, [sp, #36]
    2fd4:	e3a0000e 	mov	r0, #14	; 0xe
    2fd8:	e0564003 	subs	r4, r6, r3
    2fdc:	e0c75fc3 	sbc	r5, r7, r3, asr #31
    2fe0:	eb0006df 	bl	4b64 <vs_align>
    2fe4:	e3550000 	cmp	r5, #0	; 0x0
    2fe8:	e1cd41f8 	strd	r4, [sp, #24]
    2fec:	1a000005 	bne	3008 <tt_blk_trolling+0x11c>
    2ff0:	e1a01000 	mov	r1, r0
    2ff4:	e1a00004 	mov	r0, r4
    2ff8:	eb003442 	bl	10108 <__aeabi_uidiv>
    2ffc:	e58d501c 	str	r5, [sp, #28]
    3000:	e58d0018 	str	r0, [sp, #24]
    3004:	ea000002 	b	3014 <tt_blk_trolling+0x128>
    3008:	e1a01000 	mov	r1, r0
    300c:	e28d0018 	add	r0, sp, #24	; 0x18
    3010:	eb0027fb 	bl	d004 <__div64_32>
    3014:	e59d1018 	ldr	r1, [sp, #24]
    3018:	e3a00000 	mov	r0, #0	; 0x0
    301c:	eb0004f0 	bl	43e4 <tt_rnd_get_int>
    3020:	e1a04000 	mov	r4, r0
    3024:	e3a0000e 	mov	r0, #14	; 0xe
    3028:	eb0006cd 	bl	4b64 <vs_align>
    302c:	e0c98490 	smull	r8, r9, r0, r4
    3030:	e59d1010 	ldr	r1, [sp, #16]
    3034:	e1a0200b 	mov	r2, fp
    3038:	e59d3024 	ldr	r3, [sp, #36]
    303c:	e59f02bc 	ldr	r0, [pc, #700]	; 3300 <tt_blk_trolling+0x414>
    3040:	e88d0300 	stm	sp, {r8, r9}
    3044:	e59f42ac 	ldr	r4, [pc, #684]	; 32f8 <tt_blk_trolling+0x40c>
    3048:	e1a0e00f 	mov	lr, pc
    304c:	e594f000 	ldr	pc, [r4]
    3050:	e59d0010 	ldr	r0, [sp, #16]
    3054:	eb000743 	bl	4d68 <vs_device_id>
    3058:	eb00072e 	bl	4d18 <vs_device_erasable>
    305c:	e3500000 	cmp	r0, #0	; 0x0
    3060:	0a000006 	beq	3080 <tt_blk_trolling+0x194>
    3064:	e59f0298 	ldr	r0, [pc, #664]	; 3304 <tt_blk_trolling+0x418>
    3068:	e1a0e00f 	mov	lr, pc
    306c:	e594f000 	ldr	pc, [r4]
    3070:	e1a00008 	mov	r0, r8
    3074:	e1a01009 	mov	r1, r9
    3078:	e59d2024 	ldr	r2, [sp, #36]
    307c:	eb00067c 	bl	4a74 <vs_erase>
    3080:	e59f0280 	ldr	r0, [pc, #640]	; 3308 <tt_blk_trolling+0x41c>
    3084:	e59f326c 	ldr	r3, [pc, #620]	; 32f8 <tt_blk_trolling+0x40c>
    3088:	e1a0e00f 	mov	lr, pc
    308c:	e593f000 	ldr	pc, [r3]
    3090:	e35a0000 	cmp	sl, #0	; 0x0
    3094:	13a07000 	movne	r7, #0	; 0x0
    3098:	159d6024 	ldrne	r6, [sp, #36]
    309c:	1a00001c 	bne	3114 <tt_blk_trolling+0x228>
    30a0:	ea00001f 	b	3124 <tt_blk_trolling+0x238>
    30a4:	e3560902 	cmp	r6, #32768	; 0x8000
    30a8:	b1a01006 	movlt	r1, r6
    30ac:	a3a01902 	movge	r1, #32768	; 0x8000
    30b0:	e58d100c 	str	r1, [sp, #12]
    30b4:	e59d1024 	ldr	r1, [sp, #36]
    30b8:	e59d200c 	ldr	r2, [sp, #12]
    30bc:	e0661001 	rsb	r1, r6, r1
    30c0:	e08b1001 	add	r1, fp, r1
    30c4:	ebfff8a0 	bl	134c <memcpy>
    30c8:	e3a00000 	mov	r0, #0	; 0x0
    30cc:	eb001605 	bl	88e8 <get_timer>
    30d0:	e59d3024 	ldr	r3, [sp, #36]
    30d4:	e3a01000 	mov	r1, #0	; 0x0
    30d8:	e0663003 	rsb	r3, r6, r3
    30dc:	e0984003 	adds	r4, r8, r3
    30e0:	e0a95fc3 	adc	r5, r9, r3, asr #31
    30e4:	e1a03005 	mov	r3, r5
    30e8:	e59d500c 	ldr	r5, [sp, #12]
    30ec:	e58d0008 	str	r0, [sp, #8]
    30f0:	e1a02004 	mov	r2, r4
    30f4:	e1a0000a 	mov	r0, sl
    30f8:	e58d1004 	str	r1, [sp, #4]
    30fc:	e58d5000 	str	r5, [sp]
    3100:	eb000645 	bl	4a1c <vs_write>
    3104:	e59d0008 	ldr	r0, [sp, #8]
    3108:	eb0015f6 	bl	88e8 <get_timer>
    310c:	e0656006 	rsb	r6, r5, r6
    3110:	e0877000 	add	r7, r7, r0
    3114:	e3560000 	cmp	r6, #0	; 0x0
    3118:	e1a0000a 	mov	r0, sl
    311c:	1affffe0 	bne	30a4 <tt_blk_trolling+0x1b8>
    3120:	ea00000b 	b	3154 <tt_blk_trolling+0x268>
    3124:	e1a0000a 	mov	r0, sl
    3128:	eb0015ee 	bl	88e8 <get_timer>
    312c:	e59d1024 	ldr	r1, [sp, #36]
    3130:	e1a04000 	mov	r4, r0
    3134:	e1a02008 	mov	r2, r8
    3138:	e1a03009 	mov	r3, r9
    313c:	e1a0000b 	mov	r0, fp
    3140:	e88d0402 	stm	sp, {r1, sl}
    3144:	eb000634 	bl	4a1c <vs_write>
    3148:	e1a00004 	mov	r0, r4
    314c:	eb0015e5 	bl	88e8 <get_timer>
    3150:	e1a07000 	mov	r7, r0
    3154:	e59d0024 	ldr	r0, [sp, #36]
    3158:	e3a03ffa 	mov	r3, #1000	; 0x3e8
    315c:	e1a00540 	asr	r0, r0, #10
    3160:	e1a01007 	mov	r1, r7
    3164:	e0000093 	mul	r0, r3, r0
    3168:	eb0033e6 	bl	10108 <__aeabi_uidiv>
    316c:	e59f3184 	ldr	r3, [pc, #388]	; 32f8 <tt_blk_trolling+0x40c>
    3170:	e58d0014 	str	r0, [sp, #20]
    3174:	e59f0190 	ldr	r0, [pc, #400]	; 330c <tt_blk_trolling+0x420>
    3178:	e1a0e00f 	mov	lr, pc
    317c:	e593f000 	ldr	pc, [r3]
    3180:	e35a0000 	cmp	sl, #0	; 0x0
    3184:	13a07000 	movne	r7, #0	; 0x0
    3188:	159d6024 	ldrne	r6, [sp, #36]
    318c:	1a00001b 	bne	3200 <tt_blk_trolling+0x314>
    3190:	ea00001e 	b	3210 <tt_blk_trolling+0x324>
    3194:	eb0015d3 	bl	88e8 <get_timer>
    3198:	e59d3024 	ldr	r3, [sp, #36]
    319c:	e3560902 	cmp	r6, #32768	; 0x8000
    31a0:	b1a04006 	movlt	r4, r6
    31a4:	a3a04902 	movge	r4, #32768	; 0x8000
    31a8:	e0663003 	rsb	r3, r6, r3
    31ac:	e1a05000 	mov	r5, r0
    31b0:	e0980003 	adds	r0, r8, r3
    31b4:	e0a91fc3 	adc	r1, r9, r3, asr #31
    31b8:	e1a02000 	mov	r2, r0
    31bc:	e1a03001 	mov	r3, r1
    31c0:	e1a0000a 	mov	r0, sl
    31c4:	e3a01000 	mov	r1, #0	; 0x0
    31c8:	e58d1004 	str	r1, [sp, #4]
    31cc:	e58d4000 	str	r4, [sp]
    31d0:	eb000711 	bl	4e1c <vs_read>
    31d4:	e1a00005 	mov	r0, r5
    31d8:	eb0015c2 	bl	88e8 <get_timer>
    31dc:	e1a05000 	mov	r5, r0
    31e0:	e59d0024 	ldr	r0, [sp, #36]
    31e4:	e1a0100a 	mov	r1, sl
    31e8:	e0660000 	rsb	r0, r6, r0
    31ec:	e280044e 	add	r0, r0, #1308622848	; 0x4e000000
    31f0:	e1a02004 	mov	r2, r4
    31f4:	ebfff854 	bl	134c <memcpy>
    31f8:	e0877005 	add	r7, r7, r5
    31fc:	e0646006 	rsb	r6, r4, r6
    3200:	e3a00000 	mov	r0, #0	; 0x0
    3204:	e1560000 	cmp	r6, r0
    3208:	1affffe1 	bne	3194 <tt_blk_trolling+0x2a8>
    320c:	ea00000b 	b	3240 <tt_blk_trolling+0x354>
    3210:	e1a0000a 	mov	r0, sl
    3214:	eb0015b3 	bl	88e8 <get_timer>
    3218:	e59d1024 	ldr	r1, [sp, #36]
    321c:	e1a04000 	mov	r4, r0
    3220:	e1a02008 	mov	r2, r8
    3224:	e1a03009 	mov	r3, r9
    3228:	e3a0044e 	mov	r0, #1308622848	; 0x4e000000
    322c:	e88d0402 	stm	sp, {r1, sl}
    3230:	eb0006f9 	bl	4e1c <vs_read>
    3234:	e1a00004 	mov	r0, r4
    3238:	eb0015aa 	bl	88e8 <get_timer>
    323c:	e1a07000 	mov	r7, r0
    3240:	e59d0024 	ldr	r0, [sp, #36]
    3244:	e3a03ffa 	mov	r3, #1000	; 0x3e8
    3248:	e1a00540 	asr	r0, r0, #10
    324c:	e0000093 	mul	r0, r3, r0
    3250:	e1a01007 	mov	r1, r7
    3254:	eb0033ab 	bl	10108 <__aeabi_uidiv>
    3258:	e59f4098 	ldr	r4, [pc, #152]	; 32f8 <tt_blk_trolling+0x40c>
    325c:	e1a05000 	mov	r5, r0
    3260:	e59f00a8 	ldr	r0, [pc, #168]	; 3310 <tt_blk_trolling+0x424>
    3264:	e1a0e00f 	mov	lr, pc
    3268:	e594f000 	ldr	pc, [r4]
    326c:	e1a0000b 	mov	r0, fp
    3270:	e3a0144e 	mov	r1, #1308622848	; 0x4e000000
    3274:	e59d2024 	ldr	r2, [sp, #36]
    3278:	e3a0300c 	mov	r3, #12	; 0xc
    327c:	eb000404 	bl	4294 <tt_cmp_buffer>
    3280:	e3500000 	cmp	r0, #0	; 0x0
    3284:	0a000007 	beq	32a8 <tt_blk_trolling+0x3bc>
    3288:	e58d0000 	str	r0, [sp]
    328c:	e59d1010 	ldr	r1, [sp, #16]
    3290:	e59d2014 	ldr	r2, [sp, #20]
    3294:	e1a03005 	mov	r3, r5
    3298:	e59f0074 	ldr	r0, [pc, #116]	; 3314 <tt_blk_trolling+0x428>
    329c:	e1a0e00f 	mov	lr, pc
    32a0:	e594f000 	ldr	pc, [r4]
    32a4:	ea000005 	b	32c0 <tt_blk_trolling+0x3d4>
    32a8:	e59d1010 	ldr	r1, [sp, #16]
    32ac:	e59d2014 	ldr	r2, [sp, #20]
    32b0:	e1a03005 	mov	r3, r5
    32b4:	e59f005c 	ldr	r0, [pc, #92]	; 3318 <tt_blk_trolling+0x42c>
    32b8:	e1a0e00f 	mov	lr, pc
    32bc:	e594f000 	ldr	pc, [r4]
    32c0:	e59f0054 	ldr	r0, [pc, #84]	; 331c <tt_blk_trolling+0x430>
    32c4:	e59d1024 	ldr	r1, [sp, #36]
    32c8:	e890000c 	ldm	r0, {r2, r3}
    32cc:	e0922001 	adds	r2, r2, r1
    32d0:	e0a33fc1 	adc	r3, r3, r1, asr #31
    32d4:	e880000c 	stm	r0, {r2, r3}
    32d8:	e59f0040 	ldr	r0, [pc, #64]	; 3320 <tt_blk_trolling+0x434>
    32dc:	e59f3014 	ldr	r3, [pc, #20]	; 32f8 <tt_blk_trolling+0x40c>
    32e0:	e1a0e00f 	mov	lr, pc
    32e4:	e593f000 	ldr	pc, [r3]
    32e8:	e3a00000 	mov	r0, #0	; 0x0
    32ec:	e28dd02c 	add	sp, sp, #44	; 0x2c
    32f0:	e8bd8ff0 	pop	{r4, r5, r6, r7, r8, r9, sl, fp, pc}
    32f4:	00012659 	.word	0x00012659
    32f8:	0800d76c 	.word	0x0800d76c
    32fc:	00012677 	.word	0x00012677
    3300:	00012697 	.word	0x00012697
    3304:	00014001 	.word	0x00014001
    3308:	00011e99 	.word	0x00011e99
    330c:	00014388 	.word	0x00014388
    3310:	000126cb 	.word	0x000126cb
    3314:	000126ce 	.word	0x000126ce
    3318:	00012708 	.word	0x00012708
    331c:	0800d1c0 	.word	0x0800d1c0
    3320:	0001247a 	.word	0x0001247a

00003324 <do_tt_blk>:
    3324:	e92d4ff0 	push	{r4, r5, r6, r7, r8, r9, sl, fp, lr}
    3328:	e3520001 	cmp	r2, #1	; 0x1
    332c:	e24dd00c 	sub	sp, sp, #12	; 0xc
    3330:	e1a05002 	mov	r5, r2
    3334:	e1a07003 	mov	r7, r3
    3338:	ca000005 	bgt	3354 <do_tt_blk+0x30>
    333c:	e59f01bc 	ldr	r0, [pc, #444]	; 3500 <do_tt_blk+0x1dc>
    3340:	e59f31bc 	ldr	r3, [pc, #444]	; 3504 <do_tt_blk+0x1e0>
    3344:	e1a0e00f 	mov	lr, pc
    3348:	e593f000 	ldr	pc, [r3]
    334c:	e3e00000 	mvn	r0, #0	; 0x0
    3350:	ea000068 	b	34f8 <do_tt_blk+0x1d4>
    3354:	e3520002 	cmp	r2, #2	; 0x2
    3358:	03a04000 	moveq	r4, #0	; 0x0
    335c:	01a06004 	moveq	r6, r4
    3360:	0a000025 	beq	33fc <do_tt_blk+0xd8>
    3364:	e3a01000 	mov	r1, #0	; 0x0
    3368:	e3a0200a 	mov	r2, #10	; 0xa
    336c:	e5930008 	ldr	r0, [r3, #8]
    3370:	eb002760 	bl	d0f8 <simple_strtoul>
    3374:	e59f118c 	ldr	r1, [pc, #396]	; 3508 <do_tt_blk+0x1e4>
    3378:	e1a04000 	mov	r4, r0
    337c:	e3a02005 	mov	r2, #5	; 0x5
    3380:	e5970004 	ldr	r0, [r7, #4]
    3384:	ebfff7b7 	bl	1268 <strncmp>
    3388:	e3500000 	cmp	r0, #0	; 0x0
    338c:	059f0178 	ldreq	r0, [pc, #376]	; 350c <do_tt_blk+0x1e8>
    3390:	01a01004 	moveq	r1, r4
    3394:	059f3168 	ldreq	r3, [pc, #360]	; 3504 <do_tt_blk+0x1e0>
    3398:	0a000008 	beq	33c0 <do_tt_blk+0x9c>
    339c:	e59f116c 	ldr	r1, [pc, #364]	; 3510 <do_tt_blk+0x1ec>
    33a0:	e5970004 	ldr	r0, [r7, #4]
    33a4:	e3a02003 	mov	r2, #3	; 0x3
    33a8:	ebfff7ae 	bl	1268 <strncmp>
    33ac:	e3500000 	cmp	r0, #0	; 0x0
    33b0:	e59f314c 	ldr	r3, [pc, #332]	; 3504 <do_tt_blk+0x1e0>
    33b4:	059f0150 	ldreq	r0, [pc, #336]	; 350c <do_tt_blk+0x1e8>
    33b8:	159f0154 	ldrne	r0, [pc, #340]	; 3514 <do_tt_blk+0x1f0>
    33bc:	e1a01004 	mov	r1, r4
    33c0:	e1a0e00f 	mov	lr, pc
    33c4:	e593f000 	ldr	pc, [r3]
    33c8:	e3550003 	cmp	r5, #3	; 0x3
    33cc:	03a06000 	moveq	r6, #0	; 0x0
    33d0:	0a000009 	beq	33fc <do_tt_blk+0xd8>
    33d4:	e3a01000 	mov	r1, #0	; 0x0
    33d8:	e597000c 	ldr	r0, [r7, #12]
    33dc:	e3a02010 	mov	r2, #16	; 0x10
    33e0:	eb002744 	bl	d0f8 <simple_strtoul>
    33e4:	e1a06000 	mov	r6, r0
    33e8:	e1a01006 	mov	r1, r6
    33ec:	e59f0124 	ldr	r0, [pc, #292]	; 3518 <do_tt_blk+0x1f4>
    33f0:	e59f310c 	ldr	r3, [pc, #268]	; 3504 <do_tt_blk+0x1e0>
    33f4:	e1a0e00f 	mov	lr, pc
    33f8:	e593f000 	ldr	pc, [r3]
    33fc:	e3a00000 	mov	r0, #0	; 0x0
    3400:	eb001538 	bl	88e8 <get_timer>
    3404:	e59f1110 	ldr	r1, [pc, #272]	; 351c <do_tt_blk+0x1f8>
    3408:	e3a02000 	mov	r2, #0	; 0x0
    340c:	e3a03000 	mov	r3, #0	; 0x0
    3410:	e881000c 	stm	r1, {r2, r3}
    3414:	e1a09a04 	lsl	r9, r4, #20
    3418:	e2875004 	add	r5, r7, #4	; 0x4
    341c:	e1a08b24 	lsr	r8, r4, #22
    3420:	e1a07504 	lsl	r7, r4, #10
    3424:	e1a0a624 	lsr	sl, r4, #12
    3428:	e1a0b000 	mov	fp, r0
    342c:	e3a04000 	mov	r4, #0	; 0x0
    3430:	e59f30cc 	ldr	r3, [pc, #204]	; 3504 <do_tt_blk+0x1e0>
    3434:	e1a01004 	mov	r1, r4
    3438:	e59f00e0 	ldr	r0, [pc, #224]	; 3520 <do_tt_blk+0x1fc>
    343c:	e1a0e00f 	mov	lr, pc
    3440:	e593f000 	ldr	pc, [r3]
    3444:	e59f10bc 	ldr	r1, [pc, #188]	; 3508 <do_tt_blk+0x1e4>
    3448:	e3a02005 	mov	r2, #5	; 0x5
    344c:	e5950000 	ldr	r0, [r5]
    3450:	ebfff784 	bl	1268 <strncmp>
    3454:	e3500000 	cmp	r0, #0	; 0x0
    3458:	e3a02003 	mov	r2, #3	; 0x3
    345c:	e59f10ac 	ldr	r1, [pc, #172]	; 3510 <do_tt_blk+0x1ec>
    3460:	e1a03008 	mov	r3, r8
    3464:	05950000 	ldreq	r0, [r5]
    3468:	01a02007 	moveq	r2, r7
    346c:	0a000008 	beq	3494 <do_tt_blk+0x170>
    3470:	e5950000 	ldr	r0, [r5]
    3474:	ebfff77b 	bl	1268 <strncmp>
    3478:	e3500000 	cmp	r0, #0	; 0x0
    347c:	05950000 	ldreq	r0, [r5]
    3480:	15950000 	ldrne	r0, [r5]
    3484:	e1a02009 	mov	r2, r9
    3488:	e1a0300a 	mov	r3, sl
    348c:	01a02007 	moveq	r2, r7
    3490:	01a03008 	moveq	r3, r8
    3494:	e58d6000 	str	r6, [sp]
    3498:	ebfffe93 	bl	2eec <tt_blk_trolling>
    349c:	eb002b2c 	bl	e154 <tstc>
    34a0:	e3500000 	cmp	r0, #0	; 0x0
    34a4:	e2844001 	add	r4, r4, #1	; 0x1
    34a8:	0affffe0 	beq	3430 <do_tt_blk+0x10c>
    34ac:	eb002b29 	bl	e158 <getc>
    34b0:	e3500003 	cmp	r0, #3	; 0x3
    34b4:	1affffdd 	bne	3430 <do_tt_blk+0x10c>
    34b8:	e1a0000b 	mov	r0, fp
    34bc:	eb001509 	bl	88e8 <get_timer>
    34c0:	e59f3054 	ldr	r3, [pc, #84]	; 351c <do_tt_blk+0x1f8>
    34c4:	e30e1a60 	movw	r1, #60000	; 0xea60
    34c8:	e5934000 	ldr	r4, [r3]
    34cc:	e5933004 	ldr	r3, [r3, #4]
    34d0:	e1a04a24 	lsr	r4, r4, #20
    34d4:	e1844603 	orr	r4, r4, r3, lsl #12
    34d8:	eb00330a 	bl	10108 <__aeabi_uidiv>
    34dc:	e1a01004 	mov	r1, r4
    34e0:	e1a02000 	mov	r2, r0
    34e4:	e59f3018 	ldr	r3, [pc, #24]	; 3504 <do_tt_blk+0x1e0>
    34e8:	e59f0034 	ldr	r0, [pc, #52]	; 3524 <do_tt_blk+0x200>
    34ec:	e1a0e00f 	mov	lr, pc
    34f0:	e593f000 	ldr	pc, [r3]
    34f4:	e3a00000 	mov	r0, #0	; 0x0
    34f8:	e28dd00c 	add	sp, sp, #12	; 0xc
    34fc:	e8bd8ff0 	pop	{r4, r5, r6, r7, r8, r9, sl, fp, pc}
    3500:	00012735 	.word	0x00012735
    3504:	0800d76c 	.word	0x0800d76c
    3508:	00011b63 	.word	0x00011b63
    350c:	0001277c 	.word	0x0001277c
    3510:	0001213a 	.word	0x0001213a
    3514:	000127a0 	.word	0x000127a0
    3518:	000127c4 	.word	0x000127c4
    351c:	0800d1c0 	.word	0x0800d1c0
    3520:	000127e7 	.word	0x000127e7
    3524:	000127f1 	.word	0x000127f1

00003528 <__show_strbuf>:
    3528:	e92d40f0 	push	{r4, r5, r6, r7, lr}
    352c:	e59f4058 	ldr	r4, [pc, #88]	; 358c <__show_strbuf+0x64>
    3530:	e24dd004 	sub	sp, sp, #4	; 0x4
    3534:	e1a06001 	mov	r6, r1
    3538:	e1a01000 	mov	r1, r0
    353c:	e59f004c 	ldr	r0, [pc, #76]	; 3590 <__show_strbuf+0x68>
    3540:	e1a05002 	mov	r5, r2
    3544:	e1a07004 	mov	r7, r4
    3548:	e1a0e00f 	mov	lr, pc
    354c:	e594f000 	ldr	pc, [r4]
    3550:	e3a04000 	mov	r4, #0	; 0x0
    3554:	ea000003 	b	3568 <__show_strbuf+0x40>
    3558:	e7d61004 	ldrb	r1, [r6, r4]
    355c:	e1a0e00f 	mov	lr, pc
    3560:	e597f000 	ldr	pc, [r7]
    3564:	e2844001 	add	r4, r4, #1	; 0x1
    3568:	e1540005 	cmp	r4, r5
    356c:	e59f0020 	ldr	r0, [pc, #32]	; 3594 <__show_strbuf+0x6c>
    3570:	bafffff8 	blt	3558 <__show_strbuf+0x30>
    3574:	e59f001c 	ldr	r0, [pc, #28]	; 3598 <__show_strbuf+0x70>
    3578:	e59f300c 	ldr	r3, [pc, #12]	; 358c <__show_strbuf+0x64>
    357c:	e1a0e00f 	mov	lr, pc
    3580:	e593f000 	ldr	pc, [r3]
    3584:	e28dd004 	add	sp, sp, #4	; 0x4
    3588:	e8bd80f0 	pop	{r4, r5, r6, r7, pc}
    358c:	0800d76c 	.word	0x0800d76c
    3590:	0001283f 	.word	0x0001283f
    3594:	000141ba 	.word	0x000141ba
    3598:	0001247a 	.word	0x0001247a

0000359c <do_crypto_quick>:
    359c:	e92d47f0 	push	{r4, r5, r6, r7, r8, r9, sl, lr}
    35a0:	e24dd0f0 	sub	sp, sp, #240	; 0xf0
    35a4:	e28da0e0 	add	sl, sp, #224	; 0xe0
    35a8:	e3a04010 	mov	r4, #16	; 0x10
    35ac:	e28d70c0 	add	r7, sp, #192	; 0xc0
    35b0:	e1a02004 	mov	r2, r4
    35b4:	e3a09020 	mov	r9, #32	; 0x20
    35b8:	e59f11f0 	ldr	r1, [pc, #496]	; 37b0 <do_crypto_quick+0x214>
    35bc:	e1a0000a 	mov	r0, sl
    35c0:	e3a05040 	mov	r5, #64	; 0x40
    35c4:	e28d6080 	add	r6, sp, #128	; 0x80
    35c8:	ebfff75f 	bl	134c <memcpy>
    35cc:	e1a02009 	mov	r2, r9
    35d0:	e59f11dc 	ldr	r1, [pc, #476]	; 37b4 <do_crypto_quick+0x218>
    35d4:	e1a00007 	mov	r0, r7
    35d8:	ebfff75b 	bl	134c <memcpy>
    35dc:	e08d8005 	add	r8, sp, r5
    35e0:	e1a02005 	mov	r2, r5
    35e4:	e59f11cc 	ldr	r1, [pc, #460]	; 37b8 <do_crypto_quick+0x21c>
    35e8:	e1a00006 	mov	r0, r6
    35ec:	ebfff756 	bl	134c <memcpy>
    35f0:	e1a02005 	mov	r2, r5
    35f4:	e59f11c0 	ldr	r1, [pc, #448]	; 37bc <do_crypto_quick+0x220>
    35f8:	e1a00008 	mov	r0, r8
    35fc:	ebfff752 	bl	134c <memcpy>
    3600:	e1a02004 	mov	r2, r4
    3604:	e1a0100a 	mov	r1, sl
    3608:	e59f01b0 	ldr	r0, [pc, #432]	; 37c0 <do_crypto_quick+0x224>
    360c:	ebffffc5 	bl	3528 <__show_strbuf>
    3610:	e1a02009 	mov	r2, r9
    3614:	e1a01007 	mov	r1, r7
    3618:	e59f01a4 	ldr	r0, [pc, #420]	; 37c4 <do_crypto_quick+0x228>
    361c:	ebffffc1 	bl	3528 <__show_strbuf>
    3620:	e1a01006 	mov	r1, r6
    3624:	e1a02005 	mov	r2, r5
    3628:	e59f0198 	ldr	r0, [pc, #408]	; 37c8 <do_crypto_quick+0x22c>
    362c:	ebffffbd 	bl	3528 <__show_strbuf>
    3630:	e1a01008 	mov	r1, r8
    3634:	e1a02005 	mov	r2, r5
    3638:	e59f018c 	ldr	r0, [pc, #396]	; 37cc <do_crypto_quick+0x230>
    363c:	ebffffb9 	bl	3528 <__show_strbuf>
    3640:	e1a01007 	mov	r1, r7
    3644:	e1a0200a 	mov	r2, sl
    3648:	e3a00001 	mov	r0, #1	; 0x1
    364c:	eb0006fa 	bl	523c <ss_aes_init>
    3650:	e1a0100d 	mov	r1, sp
    3654:	e1a02005 	mov	r2, r5
    3658:	e1a00006 	mov	r0, r6
    365c:	eb0006e5 	bl	51f8 <ss_aes_data>
    3660:	e1a0100d 	mov	r1, sp
    3664:	e1a02005 	mov	r2, r5
    3668:	e59f0160 	ldr	r0, [pc, #352]	; 37d0 <do_crypto_quick+0x234>
    366c:	ebffffad 	bl	3528 <__show_strbuf>
    3670:	e1a01007 	mov	r1, r7
    3674:	e1a0200a 	mov	r2, sl
    3678:	e3a00000 	mov	r0, #0	; 0x0
    367c:	eb0006ee 	bl	523c <ss_aes_init>
    3680:	e59f714c 	ldr	r7, [pc, #332]	; 37d4 <do_crypto_quick+0x238>
    3684:	e1a0100d 	mov	r1, sp
    3688:	e1a02005 	mov	r2, r5
    368c:	e1a00008 	mov	r0, r8
    3690:	eb0006d8 	bl	51f8 <ss_aes_data>
    3694:	e1a0100d 	mov	r1, sp
    3698:	e1a02005 	mov	r2, r5
    369c:	e59f0134 	ldr	r0, [pc, #308]	; 37d8 <do_crypto_quick+0x23c>
    36a0:	ebffffa0 	bl	3528 <__show_strbuf>
    36a4:	e1a02007 	mov	r2, r7
    36a8:	e3a01000 	mov	r1, #0	; 0x0
    36ac:	e3a00001 	mov	r0, #1	; 0x1
    36b0:	eb0006e1 	bl	523c <ss_aes_init>
    36b4:	e1a0100d 	mov	r1, sp
    36b8:	e1a02005 	mov	r2, r5
    36bc:	e1a00006 	mov	r0, r6
    36c0:	eb0006cc 	bl	51f8 <ss_aes_data>
    36c4:	e1a0100d 	mov	r1, sp
    36c8:	e1a02005 	mov	r2, r5
    36cc:	e59f0108 	ldr	r0, [pc, #264]	; 37dc <do_crypto_quick+0x240>
    36d0:	ebffff94 	bl	3528 <__show_strbuf>
    36d4:	e3a00000 	mov	r0, #0	; 0x0
    36d8:	e1a02007 	mov	r2, r7
    36dc:	e1a01000 	mov	r1, r0
    36e0:	eb0006d5 	bl	523c <ss_aes_init>
    36e4:	e1a0100d 	mov	r1, sp
    36e8:	e1a02005 	mov	r2, r5
    36ec:	e1a0000d 	mov	r0, sp
    36f0:	eb0006c0 	bl	51f8 <ss_aes_data>
    36f4:	e1a02005 	mov	r2, r5
    36f8:	e1a0100d 	mov	r1, sp
    36fc:	e59f00dc 	ldr	r0, [pc, #220]	; 37e0 <do_crypto_quick+0x244>
    3700:	ebffff88 	bl	3528 <__show_strbuf>
    3704:	e1a01005 	mov	r1, r5
    3708:	e3a00001 	mov	r0, #1	; 0x1
    370c:	eb0007e8 	bl	56b4 <hash_init>
    3710:	e1a01005 	mov	r1, r5
    3714:	e1a00006 	mov	r0, r6
    3718:	eb0007c0 	bl	5620 <hash_data>
    371c:	e1a0000d 	mov	r0, sp
    3720:	eb0007a2 	bl	55b0 <hash_value>
    3724:	eb00079a 	bl	5594 <hash_len>
    3728:	e1a0100d 	mov	r1, sp
    372c:	e1a02000 	mov	r2, r0
    3730:	e59f00ac 	ldr	r0, [pc, #172]	; 37e4 <do_crypto_quick+0x248>
    3734:	ebffff7b 	bl	3528 <__show_strbuf>
    3738:	e1a01005 	mov	r1, r5
    373c:	e3a00002 	mov	r0, #2	; 0x2
    3740:	eb0007db 	bl	56b4 <hash_init>
    3744:	e1a01005 	mov	r1, r5
    3748:	e1a00006 	mov	r0, r6
    374c:	eb0007b3 	bl	5620 <hash_data>
    3750:	e1a0000d 	mov	r0, sp
    3754:	eb000795 	bl	55b0 <hash_value>
    3758:	eb00078d 	bl	5594 <hash_len>
    375c:	e1a0100d 	mov	r1, sp
    3760:	e1a02000 	mov	r2, r0
    3764:	e59f007c 	ldr	r0, [pc, #124]	; 37e8 <do_crypto_quick+0x24c>
    3768:	ebffff6e 	bl	3528 <__show_strbuf>
    376c:	e1a01005 	mov	r1, r5
    3770:	e3a00003 	mov	r0, #3	; 0x3
    3774:	eb0007ce 	bl	56b4 <hash_init>
    3778:	e1a01005 	mov	r1, r5
    377c:	e1a00006 	mov	r0, r6
    3780:	eb0007a6 	bl	5620 <hash_data>
    3784:	e1a0000d 	mov	r0, sp
    3788:	eb000788 	bl	55b0 <hash_value>
    378c:	eb000780 	bl	5594 <hash_len>
    3790:	e1a0100d 	mov	r1, sp
    3794:	e1a02000 	mov	r2, r0
    3798:	e59f004c 	ldr	r0, [pc, #76]	; 37ec <do_crypto_quick+0x250>
    379c:	ebffff61 	bl	3528 <__show_strbuf>
    37a0:	e1a0400d 	mov	r4, sp
    37a4:	e3a00000 	mov	r0, #0	; 0x0
    37a8:	e28dd0f0 	add	sp, sp, #240	; 0xf0
    37ac:	e8bd87f0 	pop	{r4, r5, r6, r7, r8, r9, sl, pc}
    37b0:	00010eb4 	.word	0x00010eb4
    37b4:	00010e94 	.word	0x00010e94
    37b8:	00010e54 	.word	0x00010e54
    37bc:	00010e14 	.word	0x00010e14
    37c0:	00012844 	.word	0x00012844
    37c4:	00012847 	.word	0x00012847
    37c8:	0001284b 	.word	0x0001284b
    37cc:	00012856 	.word	0x00012856
    37d0:	00012867 	.word	0x00012867
    37d4:	0800d10c 	.word	0x0800d10c
    37d8:	0001287a 	.word	0x0001287a
    37dc:	00012863 	.word	0x00012863
    37e0:	00012876 	.word	0x00012876
    37e4:	00012889 	.word	0x00012889
    37e8:	0001288d 	.word	0x0001288d
    37ec:	00012892 	.word	0x00012892

000037f0 <tt_crypto_hash>:
    37f0:	e92d47f0 	push	{r4, r5, r6, r7, r8, r9, sl, lr}
    37f4:	e3a0544e 	mov	r5, #1308622848	; 0x4e000000
    37f8:	e5951000 	ldr	r1, [r5]
    37fc:	e59f2220 	ldr	r2, [pc, #544]	; 3a24 <tt_crypto_hash+0x234>
    3800:	e24dd038 	sub	sp, sp, #56	; 0x38
    3804:	e59f321c 	ldr	r3, [pc, #540]	; 3a28 <tt_crypto_hash+0x238>
    3808:	e1510002 	cmp	r1, r2
    380c:	e28dc028 	add	ip, sp, #40	; 0x28
    3810:	e1a06000 	mov	r6, r0
    3814:	e893000f 	ldm	r3, {r0, r1, r2, r3}
    3818:	e88c000f 	stm	ip, {r0, r1, r2, r3}
    381c:	0a000006 	beq	383c <tt_crypto_hash+0x4c>
    3820:	e59f0204 	ldr	r0, [pc, #516]	; 3a2c <tt_crypto_hash+0x23c>
    3824:	e59f3204 	ldr	r3, [pc, #516]	; 3a30 <tt_crypto_hash+0x240>
    3828:	e1a0e00f 	mov	lr, pc
    382c:	e593f000 	ldr	pc, [r3]
    3830:	e59f01fc 	ldr	r0, [pc, #508]	; 3a34 <tt_crypto_hash+0x244>
    3834:	eb001407 	bl	8858 <udelay>
    3838:	ea000008 	b	3860 <tt_crypto_hash+0x70>
    383c:	e5951004 	ldr	r1, [r5, #4]
    3840:	e3a04000 	mov	r4, #0	; 0x0
    3844:	e3510003 	cmp	r1, #3	; 0x3
    3848:	e5854000 	str	r4, [r5]
    384c:	e59fc1dc 	ldr	ip, [pc, #476]	; 3a30 <tt_crypto_hash+0x240>
    3850:	9a000004 	bls	3868 <tt_crypto_hash+0x78>
    3854:	e59f01dc 	ldr	r0, [pc, #476]	; 3a38 <tt_crypto_hash+0x248>
    3858:	e1a0e00f 	mov	lr, pc
    385c:	e59cf000 	ldr	pc, [ip]
    3860:	e3e0c000 	mvn	ip, #0	; 0x0
    3864:	ea00006b 	b	3a18 <tt_crypto_hash+0x228>
    3868:	e28d2038 	add	r2, sp, #56	; 0x38
    386c:	e0823101 	add	r3, r2, r1, lsl #2
    3870:	e5131010 	ldr	r1, [r3, #-16]
    3874:	e5952008 	ldr	r2, [r5, #8]
    3878:	e59f01bc 	ldr	r0, [pc, #444]	; 3a3c <tt_crypto_hash+0x24c>
    387c:	e1a0e00f 	mov	lr, pc
    3880:	e59cf000 	ldr	pc, [ip]
    3884:	e9950003 	ldmib	r5, {r0, r1}
    3888:	eb000789 	bl	56b4 <hash_init>
    388c:	eb000740 	bl	5594 <hash_len>
    3890:	e1a03000 	mov	r3, r0
    3894:	e59f01a4 	ldr	r0, [pc, #420]	; 3a40 <tt_crypto_hash+0x250>
    3898:	e3a0c020 	mov	ip, #32	; 0x20
    389c:	e1a01000 	mov	r1, r0
    38a0:	e3a02001 	mov	r2, #1	; 0x1
    38a4:	e58dc000 	str	ip, [sp]
    38a8:	eb00257a 	bl	ce98 <print_buffer>
    38ac:	e3560000 	cmp	r6, #0	; 0x0
    38b0:	0a000022 	beq	3940 <tt_crypto_hash+0x150>
    38b4:	e1a09005 	mov	r9, r5
    38b8:	e1a0a004 	mov	sl, r4
    38bc:	e5955008 	ldr	r5, [r5, #8]
    38c0:	e2868901 	add	r8, r6, #16384	; 0x4000
    38c4:	ea000019 	b	3930 <tt_crypto_hash+0x140>
    38c8:	e5991008 	ldr	r1, [r9, #8]
    38cc:	e3550902 	cmp	r5, #32768	; 0x8000
    38d0:	b1a04005 	movlt	r4, r5
    38d4:	a3a04902 	movge	r4, #32768	; 0x8000
    38d8:	e0651001 	rsb	r1, r5, r1
    38dc:	e281144e 	add	r1, r1, #1308622848	; 0x4e000000
    38e0:	e2811030 	add	r1, r1, #48	; 0x30
    38e4:	e1a02004 	mov	r2, r4
    38e8:	ebfff697 	bl	134c <memcpy>
    38ec:	e3a00000 	mov	r0, #0	; 0x0
    38f0:	eb0013fc 	bl	88e8 <get_timer>
    38f4:	e3550901 	cmp	r5, #16384	; 0x4000
    38f8:	b1a01005 	movlt	r1, r5
    38fc:	a3a01901 	movge	r1, #16384	; 0x4000
    3900:	e1a07000 	mov	r7, r0
    3904:	e1a00006 	mov	r0, r6
    3908:	eb000744 	bl	5620 <hash_data>
    390c:	e3540902 	cmp	r4, #32768	; 0x8000
    3910:	e0645005 	rsb	r5, r4, r5
    3914:	1a000002 	bne	3924 <tt_crypto_hash+0x134>
    3918:	e3a01901 	mov	r1, #16384	; 0x4000
    391c:	e1a00008 	mov	r0, r8
    3920:	eb00073e 	bl	5620 <hash_data>
    3924:	e1a00007 	mov	r0, r7
    3928:	eb0013ee 	bl	88e8 <get_timer>
    392c:	e08aa000 	add	sl, sl, r0
    3930:	e3550000 	cmp	r5, #0	; 0x0
    3934:	e1a00006 	mov	r0, r6
    3938:	1affffe2 	bne	38c8 <tt_crypto_hash+0xd8>
    393c:	ea000008 	b	3964 <tt_crypto_hash+0x174>
    3940:	e1a00006 	mov	r0, r6
    3944:	eb0013e7 	bl	88e8 <get_timer>
    3948:	e5951008 	ldr	r1, [r5, #8]
    394c:	e1a04000 	mov	r4, r0
    3950:	e59f00ec 	ldr	r0, [pc, #236]	; 3a44 <tt_crypto_hash+0x254>
    3954:	eb000731 	bl	5620 <hash_data>
    3958:	e1a00004 	mov	r0, r4
    395c:	eb0013e1 	bl	88e8 <get_timer>
    3960:	e1a0a000 	mov	sl, r0
    3964:	e28d4008 	add	r4, sp, #8	; 0x8
    3968:	e3a0644e 	mov	r6, #1308622848	; 0x4e000000
    396c:	e1a00004 	mov	r0, r4
    3970:	eb00070e 	bl	55b0 <hash_value>
    3974:	e5965008 	ldr	r5, [r6, #8]
    3978:	eb000705 	bl	5594 <hash_len>
    397c:	e3a0c020 	mov	ip, #32	; 0x20
    3980:	e1a03000 	mov	r3, r0
    3984:	e1a01004 	mov	r1, r4
    3988:	e3a02001 	mov	r2, #1	; 0x1
    398c:	e1a00004 	mov	r0, r4
    3990:	e58dc000 	str	ip, [sp]
    3994:	eb00253f 	bl	ce98 <print_buffer>
    3998:	e5963004 	ldr	r3, [r6, #4]
    399c:	e28d1038 	add	r1, sp, #56	; 0x38
    39a0:	e0812103 	add	r2, r1, r3, lsl #2
    39a4:	e59f3084 	ldr	r3, [pc, #132]	; 3a30 <tt_crypto_hash+0x240>
    39a8:	e5127010 	ldr	r7, [r2, #-16]
    39ac:	e5938000 	ldr	r8, [r3]
    39b0:	eb0006f7 	bl	5594 <hash_len>
    39b4:	e1a01004 	mov	r1, r4
    39b8:	e1a02000 	mov	r2, r0
    39bc:	e59f007c 	ldr	r0, [pc, #124]	; 3a40 <tt_crypto_hash+0x250>
    39c0:	ebfff682 	bl	13d0 <memcmp>
    39c4:	e1a05525 	lsr	r5, r5, #10
    39c8:	e3500000 	cmp	r0, #0	; 0x0
    39cc:	e59f3074 	ldr	r3, [pc, #116]	; 3a48 <tt_crypto_hash+0x258>
    39d0:	e3a00ffa 	mov	r0, #1000	; 0x3e8
    39d4:	e1a0100a 	mov	r1, sl
    39d8:	e0000590 	mul	r0, r0, r5
    39dc:	e59f4068 	ldr	r4, [pc, #104]	; 3a4c <tt_crypto_hash+0x25c>
    39e0:	01a04003 	moveq	r4, r3
    39e4:	eb0031c7 	bl	10108 <__aeabi_uidiv>
    39e8:	e1a01007 	mov	r1, r7
    39ec:	e1a03000 	mov	r3, r0
    39f0:	e1a02004 	mov	r2, r4
    39f4:	e59f0054 	ldr	r0, [pc, #84]	; 3a50 <tt_crypto_hash+0x260>
    39f8:	e12fff38 	blx	r8
    39fc:	e59f1050 	ldr	r1, [pc, #80]	; 3a54 <tt_crypto_hash+0x264>
    3a00:	e5960008 	ldr	r0, [r6, #8]
    3a04:	e891000c 	ldm	r1, {r2, r3}
    3a08:	e0922000 	adds	r2, r2, r0
    3a0c:	e2a33000 	adc	r3, r3, #0	; 0x0
    3a10:	e881000c 	stm	r1, {r2, r3}
    3a14:	e3a0c000 	mov	ip, #0	; 0x0
    3a18:	e1a0000c 	mov	r0, ip
    3a1c:	e28dd038 	add	sp, sp, #56	; 0x38
    3a20:	e8bd87f0 	pop	{r4, r5, r6, r7, r8, r9, sl, pc}
    3a24:	99997777 	.word	0x99997777
    3a28:	00010ec4 	.word	0x00010ec4
    3a2c:	00012899 	.word	0x00012899
    3a30:	0800d76c 	.word	0x0800d76c
    3a34:	004c4b40 	.word	0x004c4b40
    3a38:	000128b8 	.word	0x000128b8
    3a3c:	000128d3 	.word	0x000128d3
    3a40:	4e000010 	.word	0x4e000010
    3a44:	4e000030 	.word	0x4e000030
    3a48:	000128ee 	.word	0x000128ee
    3a4c:	000128f3 	.word	0x000128f3
    3a50:	000128fa 	.word	0x000128fa
    3a54:	0800d1d0 	.word	0x0800d1d0

00003a58 <tt_crypto_aes>:
    3a58:	e92d4ff0 	push	{r4, r5, r6, r7, r8, r9, sl, fp, lr}
    3a5c:	e24dd014 	sub	sp, sp, #20	; 0x14
    3a60:	e1a06000 	mov	r6, r0
    3a64:	e3a01000 	mov	r1, #0	; 0x0
    3a68:	e28d000c 	add	r0, sp, #12	; 0xc
    3a6c:	e3a02502 	mov	r2, #8388608	; 0x800000
    3a70:	eb000284 	bl	4488 <tt_rnd_get_data>
    3a74:	e250b000 	subs	fp, r0, #0	; 0x0
    3a78:	e59f4340 	ldr	r4, [pc, #832]	; 3dc0 <tt_crypto_aes+0x368>
    3a7c:	059f0340 	ldreq	r0, [pc, #832]	; 3dc4 <tt_crypto_aes+0x36c>
    3a80:	0a00005c 	beq	3bf8 <tt_crypto_aes+0x1a0>
    3a84:	e59d200c 	ldr	r2, [sp, #12]
    3a88:	e1a0100b 	mov	r1, fp
    3a8c:	e3c2200f 	bic	r2, r2, #15	; 0xf
    3a90:	e1a03002 	mov	r3, r2
    3a94:	e58d200c 	str	r2, [sp, #12]
    3a98:	e59f0328 	ldr	r0, [pc, #808]	; 3dc8 <tt_crypto_aes+0x370>
    3a9c:	e1a02006 	mov	r2, r6
    3aa0:	e1a0e00f 	mov	lr, pc
    3aa4:	e594f000 	ldr	pc, [r4]
    3aa8:	e59f031c 	ldr	r0, [pc, #796]	; 3dcc <tt_crypto_aes+0x374>
    3aac:	e1a0e00f 	mov	lr, pc
    3ab0:	e594f000 	ldr	pc, [r4]
    3ab4:	e1a0100b 	mov	r1, fp
    3ab8:	e59d200c 	ldr	r2, [sp, #12]
    3abc:	e3a0044e 	mov	r0, #1308622848	; 0x4e000000
    3ac0:	ebfff621 	bl	134c <memcpy>
    3ac4:	e59f0304 	ldr	r0, [pc, #772]	; 3dd0 <tt_crypto_aes+0x378>
    3ac8:	e1a0e00f 	mov	lr, pc
    3acc:	e594f000 	ldr	pc, [r4]
    3ad0:	e3a01000 	mov	r1, #0	; 0x0
    3ad4:	e59f22f8 	ldr	r2, [pc, #760]	; 3dd4 <tt_crypto_aes+0x37c>
    3ad8:	e3a00001 	mov	r0, #1	; 0x1
    3adc:	eb0005d6 	bl	523c <ss_aes_init>
    3ae0:	e59f02f0 	ldr	r0, [pc, #752]	; 3dd8 <tt_crypto_aes+0x380>
    3ae4:	e1a0e00f 	mov	lr, pc
    3ae8:	e594f000 	ldr	pc, [r4]
    3aec:	e3560000 	cmp	r6, #0	; 0x0
    3af0:	159d500c 	ldrne	r5, [sp, #12]
    3af4:	13a0a000 	movne	sl, #0	; 0x0
    3af8:	12868901 	addne	r8, r6, #16384	; 0x4000
    3afc:	1a000022 	bne	3b8c <tt_crypto_aes+0x134>
    3b00:	ea000025 	b	3b9c <tt_crypto_aes+0x144>
    3b04:	e59d100c 	ldr	r1, [sp, #12]
    3b08:	e3550902 	cmp	r5, #32768	; 0x8000
    3b0c:	b1a07005 	movlt	r7, r5
    3b10:	a3a07902 	movge	r7, #32768	; 0x8000
    3b14:	e0651001 	rsb	r1, r5, r1
    3b18:	e281144e 	add	r1, r1, #1308622848	; 0x4e000000
    3b1c:	e1a02007 	mov	r2, r7
    3b20:	ebfff609 	bl	134c <memcpy>
    3b24:	e3a00000 	mov	r0, #0	; 0x0
    3b28:	eb00136e 	bl	88e8 <get_timer>
    3b2c:	e3550901 	cmp	r5, #16384	; 0x4000
    3b30:	b1a02005 	movlt	r2, r5
    3b34:	a3a02901 	movge	r2, #16384	; 0x4000
    3b38:	e1a04000 	mov	r4, r0
    3b3c:	e1a01006 	mov	r1, r6
    3b40:	e1a00006 	mov	r0, r6
    3b44:	eb0005ab 	bl	51f8 <ss_aes_data>
    3b48:	e3570902 	cmp	r7, #32768	; 0x8000
    3b4c:	1a000003 	bne	3b60 <tt_crypto_aes+0x108>
    3b50:	e1a01008 	mov	r1, r8
    3b54:	e3a02901 	mov	r2, #16384	; 0x4000
    3b58:	e1a00008 	mov	r0, r8
    3b5c:	eb0005a5 	bl	51f8 <ss_aes_data>
    3b60:	e1a00004 	mov	r0, r4
    3b64:	eb00135f 	bl	88e8 <get_timer>
    3b68:	e1a04000 	mov	r4, r0
    3b6c:	e59d000c 	ldr	r0, [sp, #12]
    3b70:	e1a01006 	mov	r1, r6
    3b74:	e0650000 	rsb	r0, r5, r0
    3b78:	e280044e 	add	r0, r0, #1308622848	; 0x4e000000
    3b7c:	e1a02007 	mov	r2, r7
    3b80:	ebfff5f1 	bl	134c <memcpy>
    3b84:	e08aa004 	add	sl, sl, r4
    3b88:	e0675005 	rsb	r5, r7, r5
    3b8c:	e3550000 	cmp	r5, #0	; 0x0
    3b90:	e1a00006 	mov	r0, r6
    3b94:	1affffda 	bne	3b04 <tt_crypto_aes+0xac>
    3b98:	ea000009 	b	3bc4 <tt_crypto_aes+0x16c>
    3b9c:	e1a00006 	mov	r0, r6
    3ba0:	eb001350 	bl	88e8 <get_timer>
    3ba4:	e1a04000 	mov	r4, r0
    3ba8:	e3a0044e 	mov	r0, #1308622848	; 0x4e000000
    3bac:	e1a01000 	mov	r1, r0
    3bb0:	e59d200c 	ldr	r2, [sp, #12]
    3bb4:	eb00058f 	bl	51f8 <ss_aes_data>
    3bb8:	e1a00004 	mov	r0, r4
    3bbc:	eb001349 	bl	88e8 <get_timer>
    3bc0:	e1a0a000 	mov	sl, r0
    3bc4:	e59d300c 	ldr	r3, [sp, #12]
    3bc8:	e3a0044e 	mov	r0, #1308622848	; 0x4e000000
    3bcc:	e1a0100b 	mov	r1, fp
    3bd0:	e3a02010 	mov	r2, #16	; 0x10
    3bd4:	e58d3004 	str	r3, [sp, #4]
    3bd8:	ebfff5fc 	bl	13d0 <memcmp>
    3bdc:	e3500000 	cmp	r0, #0	; 0x0
    3be0:	e59f41d8 	ldr	r4, [pc, #472]	; 3dc0 <tt_crypto_aes+0x368>
    3be4:	1a000007 	bne	3c08 <tt_crypto_aes+0x1b0>
    3be8:	e59f01ec 	ldr	r0, [pc, #492]	; 3ddc <tt_crypto_aes+0x384>
    3bec:	e1a0e00f 	mov	lr, pc
    3bf0:	e594f000 	ldr	pc, [r4]
    3bf4:	e59f01e4 	ldr	r0, [pc, #484]	; 3de0 <tt_crypto_aes+0x388>
    3bf8:	e1a0e00f 	mov	lr, pc
    3bfc:	e594f000 	ldr	pc, [r4]
    3c00:	e3e00000 	mvn	r0, #0	; 0x0
    3c04:	ea00006b 	b	3db8 <tt_crypto_aes+0x360>
    3c08:	e3a00000 	mov	r0, #0	; 0x0
    3c0c:	e1a01000 	mov	r1, r0
    3c10:	e59f21bc 	ldr	r2, [pc, #444]	; 3dd4 <tt_crypto_aes+0x37c>
    3c14:	eb000588 	bl	523c <ss_aes_init>
    3c18:	e59f01c4 	ldr	r0, [pc, #452]	; 3de4 <tt_crypto_aes+0x38c>
    3c1c:	e1a0e00f 	mov	lr, pc
    3c20:	e594f000 	ldr	pc, [r4]
    3c24:	e3560000 	cmp	r6, #0	; 0x0
    3c28:	159d500c 	ldrne	r5, [sp, #12]
    3c2c:	13a08000 	movne	r8, #0	; 0x0
    3c30:	12869901 	addne	r9, r6, #16384	; 0x4000
    3c34:	1a000022 	bne	3cc4 <tt_crypto_aes+0x26c>
    3c38:	ea000025 	b	3cd4 <tt_crypto_aes+0x27c>
    3c3c:	eb001329 	bl	88e8 <get_timer>
    3c40:	e59d100c 	ldr	r1, [sp, #12]
    3c44:	e3550902 	cmp	r5, #32768	; 0x8000
    3c48:	b1a07005 	movlt	r7, r5
    3c4c:	a3a07902 	movge	r7, #32768	; 0x8000
    3c50:	e0651001 	rsb	r1, r5, r1
    3c54:	e281144e 	add	r1, r1, #1308622848	; 0x4e000000
    3c58:	e1a02007 	mov	r2, r7
    3c5c:	e1a04000 	mov	r4, r0
    3c60:	e1a00006 	mov	r0, r6
    3c64:	ebfff5b8 	bl	134c <memcpy>
    3c68:	e3550901 	cmp	r5, #16384	; 0x4000
    3c6c:	b1a02005 	movlt	r2, r5
    3c70:	a3a02901 	movge	r2, #16384	; 0x4000
    3c74:	e1a00006 	mov	r0, r6
    3c78:	e1a01006 	mov	r1, r6
    3c7c:	eb00055d 	bl	51f8 <ss_aes_data>
    3c80:	e3570902 	cmp	r7, #32768	; 0x8000
    3c84:	1a000003 	bne	3c98 <tt_crypto_aes+0x240>
    3c88:	e1a01009 	mov	r1, r9
    3c8c:	e3a02901 	mov	r2, #16384	; 0x4000
    3c90:	e1a00009 	mov	r0, r9
    3c94:	eb000557 	bl	51f8 <ss_aes_data>
    3c98:	e1a00004 	mov	r0, r4
    3c9c:	eb001311 	bl	88e8 <get_timer>
    3ca0:	e1a04000 	mov	r4, r0
    3ca4:	e59d000c 	ldr	r0, [sp, #12]
    3ca8:	e1a01006 	mov	r1, r6
    3cac:	e0650000 	rsb	r0, r5, r0
    3cb0:	e280044e 	add	r0, r0, #1308622848	; 0x4e000000
    3cb4:	e1a02007 	mov	r2, r7
    3cb8:	ebfff5a3 	bl	134c <memcpy>
    3cbc:	e0888004 	add	r8, r8, r4
    3cc0:	e0675005 	rsb	r5, r7, r5
    3cc4:	e3a00000 	mov	r0, #0	; 0x0
    3cc8:	e1550000 	cmp	r5, r0
    3ccc:	1affffda 	bne	3c3c <tt_crypto_aes+0x1e4>
    3cd0:	ea000009 	b	3cfc <tt_crypto_aes+0x2a4>
    3cd4:	e1a00006 	mov	r0, r6
    3cd8:	eb001302 	bl	88e8 <get_timer>
    3cdc:	e1a04000 	mov	r4, r0
    3ce0:	e3a0044e 	mov	r0, #1308622848	; 0x4e000000
    3ce4:	e1a01000 	mov	r1, r0
    3ce8:	e59d200c 	ldr	r2, [sp, #12]
    3cec:	eb000541 	bl	51f8 <ss_aes_data>
    3cf0:	e1a00004 	mov	r0, r4
    3cf4:	eb0012fb 	bl	88e8 <get_timer>
    3cf8:	e1a08000 	mov	r8, r0
    3cfc:	e59d3004 	ldr	r3, [sp, #4]
    3d00:	e3a04ffa 	mov	r4, #1000	; 0x3e8
    3d04:	e1a00543 	asr	r0, r3, #10
    3d08:	e1a0100a 	mov	r1, sl
    3d0c:	e0000094 	mul	r0, r4, r0
    3d10:	eb00317e 	bl	10310 <__aeabi_idiv>
    3d14:	e1a06000 	mov	r6, r0
    3d18:	e59d000c 	ldr	r0, [sp, #12]
    3d1c:	e1a01008 	mov	r1, r8
    3d20:	e1a00540 	asr	r0, r0, #10
    3d24:	e0000094 	mul	r0, r4, r0
    3d28:	eb003178 	bl	10310 <__aeabi_idiv>
    3d2c:	e59f408c 	ldr	r4, [pc, #140]	; 3dc0 <tt_crypto_aes+0x368>
    3d30:	e1a05000 	mov	r5, r0
    3d34:	e59f00ac 	ldr	r0, [pc, #172]	; 3de8 <tt_crypto_aes+0x390>
    3d38:	e1a0e00f 	mov	lr, pc
    3d3c:	e594f000 	ldr	pc, [r4]
    3d40:	e1a0000b 	mov	r0, fp
    3d44:	e3a0144e 	mov	r1, #1308622848	; 0x4e000000
    3d48:	e59d200c 	ldr	r2, [sp, #12]
    3d4c:	e3a0300c 	mov	r3, #12	; 0xc
    3d50:	eb00014f 	bl	4294 <tt_cmp_buffer>
    3d54:	e3500000 	cmp	r0, #0	; 0x0
    3d58:	0a000006 	beq	3d78 <tt_crypto_aes+0x320>
    3d5c:	e1a03000 	mov	r3, r0
    3d60:	e1a01006 	mov	r1, r6
    3d64:	e1a02005 	mov	r2, r5
    3d68:	e59f007c 	ldr	r0, [pc, #124]	; 3dec <tt_crypto_aes+0x394>
    3d6c:	e1a0e00f 	mov	lr, pc
    3d70:	e594f000 	ldr	pc, [r4]
    3d74:	ea000004 	b	3d8c <tt_crypto_aes+0x334>
    3d78:	e1a01006 	mov	r1, r6
    3d7c:	e1a02005 	mov	r2, r5
    3d80:	e59f0068 	ldr	r0, [pc, #104]	; 3df0 <tt_crypto_aes+0x398>
    3d84:	e1a0e00f 	mov	lr, pc
    3d88:	e594f000 	ldr	pc, [r4]
    3d8c:	e59f0060 	ldr	r0, [pc, #96]	; 3df4 <tt_crypto_aes+0x39c>
    3d90:	e59d100c 	ldr	r1, [sp, #12]
    3d94:	e890000c 	ldm	r0, {r2, r3}
    3d98:	e0922001 	adds	r2, r2, r1
    3d9c:	e0a33fc1 	adc	r3, r3, r1, asr #31
    3da0:	e880000c 	stm	r0, {r2, r3}
    3da4:	e59f0030 	ldr	r0, [pc, #48]	; 3ddc <tt_crypto_aes+0x384>
    3da8:	e59f3010 	ldr	r3, [pc, #16]	; 3dc0 <tt_crypto_aes+0x368>
    3dac:	e1a0e00f 	mov	lr, pc
    3db0:	e593f000 	ldr	pc, [r3]
    3db4:	e3a00000 	mov	r0, #0	; 0x0
    3db8:	e28dd014 	add	sp, sp, #20	; 0x14
    3dbc:	e8bd8ff0 	pop	{r4, r5, r6, r7, r8, r9, sl, fp, pc}
    3dc0:	0800d76c 	.word	0x0800d76c
    3dc4:	0001291a 	.word	0x0001291a
    3dc8:	0001293d 	.word	0x0001293d
    3dcc:	00012385 	.word	0x00012385
    3dd0:	00013f66 	.word	0x00013f66
    3dd4:	0800d10c 	.word	0x0800d10c
    3dd8:	00014001 	.word	0x00014001
    3ddc:	0001247a 	.word	0x0001247a
    3de0:	00012969 	.word	0x00012969
    3de4:	0001322c 	.word	0x0001322c
    3de8:	000126cb 	.word	0x000126cb
    3dec:	0001298a 	.word	0x0001298a
    3df0:	000129c8 	.word	0x000129c8
    3df4:	0800d1c8 	.word	0x0800d1c8

00003df8 <do_tt_crypto>:
    3df8:	e92d45f0 	push	{r4, r5, r6, r7, r8, sl, lr}
    3dfc:	e3520001 	cmp	r2, #1	; 0x1
    3e00:	e24dd004 	sub	sp, sp, #4	; 0x4
    3e04:	d3a07000 	movle	r7, #0	; 0x0
    3e08:	da000009 	ble	3e34 <do_tt_crypto+0x3c>
    3e0c:	e5930004 	ldr	r0, [r3, #4]
    3e10:	e3a01000 	mov	r1, #0	; 0x0
    3e14:	e3a02010 	mov	r2, #16	; 0x10
    3e18:	eb0024b6 	bl	d0f8 <simple_strtoul>
    3e1c:	e1a07000 	mov	r7, r0
    3e20:	e1a01007 	mov	r1, r7
    3e24:	e59f0114 	ldr	r0, [pc, #276]	; 3f40 <do_tt_crypto+0x148>
    3e28:	e59f3114 	ldr	r3, [pc, #276]	; 3f44 <do_tt_crypto+0x14c>
    3e2c:	e1a0e00f 	mov	lr, pc
    3e30:	e593f000 	ldr	pc, [r3]
    3e34:	e3a00000 	mov	r0, #0	; 0x0
    3e38:	eb0012aa 	bl	88e8 <get_timer>
    3e3c:	e59f1104 	ldr	r1, [pc, #260]	; 3f48 <do_tt_crypto+0x150>
    3e40:	e3a02000 	mov	r2, #0	; 0x0
    3e44:	e3a03000 	mov	r3, #0	; 0x0
    3e48:	e881000c 	stm	r1, {r2, r3}
    3e4c:	e59f10f8 	ldr	r1, [pc, #248]	; 3f4c <do_tt_crypto+0x154>
    3e50:	e59fa0ec 	ldr	sl, [pc, #236]	; 3f44 <do_tt_crypto+0x14c>
    3e54:	e881000c 	stm	r1, {r2, r3}
    3e58:	e1a08000 	mov	r8, r0
    3e5c:	e3a06000 	mov	r6, #0	; 0x0
    3e60:	e3a01006 	mov	r1, #6	; 0x6
    3e64:	e3a00000 	mov	r0, #0	; 0x0
    3e68:	eb00015d 	bl	43e4 <tt_rnd_get_int>
    3e6c:	e3a01002 	mov	r1, #2	; 0x2
    3e70:	e1a04000 	mov	r4, r0
    3e74:	e3a00000 	mov	r0, #0	; 0x0
    3e78:	eb000159 	bl	43e4 <tt_rnd_get_int>
    3e7c:	e1a01006 	mov	r1, r6
    3e80:	e1a03000 	mov	r3, r0
    3e84:	e1a05000 	mov	r5, r0
    3e88:	e1a02004 	mov	r2, r4
    3e8c:	e59f00bc 	ldr	r0, [pc, #188]	; 3f50 <do_tt_crypto+0x158>
    3e90:	e1a0e00f 	mov	lr, pc
    3e94:	e59af000 	ldr	pc, [sl]
    3e98:	e3540003 	cmp	r4, #3	; 0x3
    3e9c:	9a000004 	bls	3eb4 <do_tt_crypto+0xbc>
    3ea0:	e3550000 	cmp	r5, #0	; 0x0
    3ea4:	11a00007 	movne	r0, r7
    3ea8:	03a00000 	moveq	r0, #0	; 0x0
    3eac:	ebfffee9 	bl	3a58 <tt_crypto_aes>
    3eb0:	ea000003 	b	3ec4 <do_tt_crypto+0xcc>
    3eb4:	e3550000 	cmp	r5, #0	; 0x0
    3eb8:	11a00007 	movne	r0, r7
    3ebc:	03a00000 	moveq	r0, #0	; 0x0
    3ec0:	ebfffe4a 	bl	37f0 <tt_crypto_hash>
    3ec4:	eb0028a2 	bl	e154 <tstc>
    3ec8:	e3500000 	cmp	r0, #0	; 0x0
    3ecc:	e2866001 	add	r6, r6, #1	; 0x1
    3ed0:	0affffe2 	beq	3e60 <do_tt_crypto+0x68>
    3ed4:	eb00289f 	bl	e158 <getc>
    3ed8:	e3500003 	cmp	r0, #3	; 0x3
    3edc:	1affffdf 	bne	3e60 <do_tt_crypto+0x68>
    3ee0:	e1a00008 	mov	r0, r8
    3ee4:	eb00127f 	bl	88e8 <get_timer>
    3ee8:	e59f305c 	ldr	r3, [pc, #92]	; 3f4c <do_tt_crypto+0x154>
    3eec:	e59f2054 	ldr	r2, [pc, #84]	; 3f48 <do_tt_crypto+0x150>
    3ef0:	e5934000 	ldr	r4, [r3]
    3ef4:	e5925000 	ldr	r5, [r2]
    3ef8:	e5933004 	ldr	r3, [r3, #4]
    3efc:	e5922004 	ldr	r2, [r2, #4]
    3f00:	e30e1a60 	movw	r1, #60000	; 0xea60
    3f04:	e1a04a24 	lsr	r4, r4, #20
    3f08:	e1a05a25 	lsr	r5, r5, #20
    3f0c:	e1844603 	orr	r4, r4, r3, lsl #12
    3f10:	e1855602 	orr	r5, r5, r2, lsl #12
    3f14:	eb00307b 	bl	10108 <__aeabi_uidiv>
    3f18:	e1a01004 	mov	r1, r4
    3f1c:	e1a03000 	mov	r3, r0
    3f20:	e1a02005 	mov	r2, r5
    3f24:	e59f0028 	ldr	r0, [pc, #40]	; 3f54 <do_tt_crypto+0x15c>
    3f28:	e59fc014 	ldr	ip, [pc, #20]	; 3f44 <do_tt_crypto+0x14c>
    3f2c:	e1a0e00f 	mov	lr, pc
    3f30:	e59cf000 	ldr	pc, [ip]
    3f34:	e3a00000 	mov	r0, #0	; 0x0
    3f38:	e28dd004 	add	sp, sp, #4	; 0x4
    3f3c:	e8bd85f0 	pop	{r4, r5, r6, r7, r8, sl, pc}
    3f40:	000129f9 	.word	0x000129f9
    3f44:	0800d76c 	.word	0x0800d76c
    3f48:	0800d1d0 	.word	0x0800d1d0
    3f4c:	0800d1c8 	.word	0x0800d1c8
    3f50:	00012a1f 	.word	0x00012a1f
    3f54:	00012a3e 	.word	0x00012a3e

00003f58 <tt_ff_trolling>:
    3f58:	e92d4ff0 	push	{r4, r5, r6, r7, r8, r9, sl, fp, lr}
    3f5c:	e3a01001 	mov	r1, #1	; 0x1
    3f60:	e24dd01c 	sub	sp, sp, #28	; 0x1c
    3f64:	e58d200c 	str	r2, [sp, #12]
    3f68:	e58d3008 	str	r3, [sp, #8]
    3f6c:	e1a05000 	mov	r5, r0
    3f70:	eb00046e 	bl	5130 <vs_assign_by_name>
    3f74:	e2506000 	subs	r6, r0, #0	; 0x0
    3f78:	0a000005 	beq	3f94 <tt_ff_trolling+0x3c>
    3f7c:	e1a01005 	mov	r1, r5
    3f80:	e59f0258 	ldr	r0, [pc, #600]	; 41e0 <tt_ff_trolling+0x288>
    3f84:	e59f3258 	ldr	r3, [pc, #600]	; 41e4 <tt_ff_trolling+0x28c>
    3f88:	e1a0e00f 	mov	lr, pc
    3f8c:	e593f000 	ldr	pc, [r3]
    3f90:	ea00000c 	b	3fc8 <tt_ff_trolling+0x70>
    3f94:	e3a0000e 	mov	r0, #14	; 0xe
    3f98:	eb0002f1 	bl	4b64 <vs_align>
    3f9c:	e1a01000 	mov	r1, r0
    3fa0:	e28d0018 	add	r0, sp, #24	; 0x18
    3fa4:	e5201004 	str	r1, [r0, #-4]!
    3fa8:	e1a02001 	mov	r2, r1
    3fac:	eb000135 	bl	4488 <tt_rnd_get_data>
    3fb0:	e250a000 	subs	sl, r0, #0	; 0x0
    3fb4:	e59f4228 	ldr	r4, [pc, #552]	; 41e4 <tt_ff_trolling+0x28c>
    3fb8:	1a000004 	bne	3fd0 <tt_ff_trolling+0x78>
    3fbc:	e59f0224 	ldr	r0, [pc, #548]	; 41e8 <tt_ff_trolling+0x290>
    3fc0:	e1a0e00f 	mov	lr, pc
    3fc4:	e594f000 	ldr	pc, [r4]
    3fc8:	e3e00000 	mvn	r0, #0	; 0x0
    3fcc:	ea000073 	b	41a0 <tt_ff_trolling+0x248>
    3fd0:	e59d2014 	ldr	r2, [sp, #20]
    3fd4:	e1a0100a 	mov	r1, sl
    3fd8:	e3a0044e 	mov	r0, #1308622848	; 0x4e000000
    3fdc:	ebfff4da 	bl	134c <memcpy>
    3fe0:	e3a01501 	mov	r1, #4194304	; 0x400000
    3fe4:	e59f0200 	ldr	r0, [pc, #512]	; 41ec <tt_ff_trolling+0x294>
    3fe8:	e1a0e00f 	mov	lr, pc
    3fec:	e594f000 	ldr	pc, [r4]
    3ff0:	e1a00005 	mov	r0, r5
    3ff4:	eb00035b 	bl	4d68 <vs_device_id>
    3ff8:	e3a04000 	mov	r4, #0	; 0x0
    3ffc:	e3a05000 	mov	r5, #0	; 0x0
    4000:	e1a0b006 	mov	fp, r6
    4004:	e3a08501 	mov	r8, #4194304	; 0x400000
    4008:	e3a09000 	mov	r9, #0	; 0x0
    400c:	e1a07000 	mov	r7, r0
    4010:	ea000021 	b	409c <tt_ff_trolling+0x144>
    4014:	eb00033f 	bl	4d18 <vs_device_erasable>
    4018:	e3500000 	cmp	r0, #0	; 0x0
    401c:	0a000003 	beq	4030 <tt_ff_trolling+0xd8>
    4020:	e1a00004 	mov	r0, r4
    4024:	e1a01005 	mov	r1, r5
    4028:	e3a02501 	mov	r2, #4194304	; 0x400000
    402c:	eb000290 	bl	4a74 <vs_erase>
    4030:	e3a0144e 	mov	r1, #1308622848	; 0x4e000000
    4034:	e5816000 	str	r6, [r1]
    4038:	e1a00001 	mov	r0, r1
    403c:	e59d1014 	ldr	r1, [sp, #20]
    4040:	e1a02004 	mov	r2, r4
    4044:	e1a03005 	mov	r3, r5
    4048:	e88d0802 	stm	sp, {r1, fp}
    404c:	eb000272 	bl	4a1c <vs_write>
    4050:	e3500000 	cmp	r0, #0	; 0x0
    4054:	aa000006 	bge	4074 <tt_ff_trolling+0x11c>
    4058:	e1a02004 	mov	r2, r4
    405c:	e1a03005 	mov	r3, r5
    4060:	e59f0188 	ldr	r0, [pc, #392]	; 41f0 <tt_ff_trolling+0x298>
    4064:	e59f1178 	ldr	r1, [pc, #376]	; 41e4 <tt_ff_trolling+0x28c>
    4068:	e1a0e00f 	mov	lr, pc
    406c:	e591f000 	ldr	pc, [r1]
    4070:	ea000012 	b	40c0 <tt_ff_trolling+0x168>
    4074:	e316001f 	tst	r6, #31	; 0x1f
    4078:	1a000004 	bne	4090 <tt_ff_trolling+0x138>
    407c:	e1a01106 	lsl	r1, r6, #2
    4080:	e59f016c 	ldr	r0, [pc, #364]	; 41f4 <tt_ff_trolling+0x29c>
    4084:	e59f3158 	ldr	r3, [pc, #344]	; 41e4 <tt_ff_trolling+0x28c>
    4088:	e1a0e00f 	mov	lr, pc
    408c:	e593f000 	ldr	pc, [r3]
    4090:	e0944008 	adds	r4, r4, r8
    4094:	e0a55009 	adc	r5, r5, r9
    4098:	e2866001 	add	r6, r6, #1	; 0x1
    409c:	e59d1008 	ldr	r1, [sp, #8]
    40a0:	e1a00007 	mov	r0, r7
    40a4:	e1510005 	cmp	r1, r5
    40a8:	8affffd9 	bhi	4014 <tt_ff_trolling+0xbc>
    40ac:	1a00003d 	bne	41a8 <tt_ff_trolling+0x250>
    40b0:	e59d300c 	ldr	r3, [sp, #12]
    40b4:	e1530004 	cmp	r3, r4
    40b8:	8affffd5 	bhi	4014 <tt_ff_trolling+0xbc>
    40bc:	ea000039 	b	41a8 <tt_ff_trolling+0x250>
    40c0:	e59f411c 	ldr	r4, [pc, #284]	; 41e4 <tt_ff_trolling+0x28c>
    40c4:	e59f012c 	ldr	r0, [pc, #300]	; 41f8 <tt_ff_trolling+0x2a0>
    40c8:	e3a01501 	mov	r1, #4194304	; 0x400000
    40cc:	e3a06000 	mov	r6, #0	; 0x0
    40d0:	e1a0e00f 	mov	lr, pc
    40d4:	e594f000 	ldr	pc, [r4]
    40d8:	e28a7004 	add	r7, sl, #4	; 0x4
    40dc:	e3a04000 	mov	r4, #0	; 0x0
    40e0:	e3a05000 	mov	r5, #0	; 0x0
    40e4:	e1a0b006 	mov	fp, r6
    40e8:	e3a0a44e 	mov	sl, #1308622848	; 0x4e000000
    40ec:	e3a08501 	mov	r8, #4194304	; 0x400000
    40f0:	e3a09000 	mov	r9, #0	; 0x0
    40f4:	ea00001e 	b	4174 <tt_ff_trolling+0x21c>
    40f8:	e59d1014 	ldr	r1, [sp, #20]
    40fc:	e88d0802 	stm	sp, {r1, fp}
    4100:	eb000345 	bl	4e1c <vs_read>
    4104:	e316001f 	tst	r6, #31	; 0x1f
    4108:	1a000004 	bne	4120 <tt_ff_trolling+0x1c8>
    410c:	e1a01106 	lsl	r1, r6, #2
    4110:	e59f00dc 	ldr	r0, [pc, #220]	; 41f4 <tt_ff_trolling+0x29c>
    4114:	e59f30c8 	ldr	r3, [pc, #200]	; 41e4 <tt_ff_trolling+0x28c>
    4118:	e1a0e00f 	mov	lr, pc
    411c:	e593f000 	ldr	pc, [r3]
    4120:	e59a2000 	ldr	r2, [sl]
    4124:	e1a00007 	mov	r0, r7
    4128:	e1520006 	cmp	r2, r6
    412c:	e59f10c8 	ldr	r1, [pc, #200]	; 41fc <tt_ff_trolling+0x2a4>
    4130:	e3a0300a 	mov	r3, #10	; 0xa
    4134:	e2866001 	add	r6, r6, #1	; 0x1
    4138:	1a000004 	bne	4150 <tt_ff_trolling+0x1f8>
    413c:	e59d2014 	ldr	r2, [sp, #20]
    4140:	e2422004 	sub	r2, r2, #4	; 0x4
    4144:	eb000052 	bl	4294 <tt_cmp_buffer>
    4148:	e3500000 	cmp	r0, #0	; 0x0
    414c:	0a000006 	beq	416c <tt_ff_trolling+0x214>
    4150:	e1a02004 	mov	r2, r4
    4154:	e1a03005 	mov	r3, r5
    4158:	e59f00a0 	ldr	r0, [pc, #160]	; 4200 <tt_ff_trolling+0x2a8>
    415c:	e59f1080 	ldr	r1, [pc, #128]	; 41e4 <tt_ff_trolling+0x28c>
    4160:	e1a0e00f 	mov	lr, pc
    4164:	e591f000 	ldr	pc, [r1]
    4168:	ea00001a 	b	41d8 <tt_ff_trolling+0x280>
    416c:	e0944008 	adds	r4, r4, r8
    4170:	e0a55009 	adc	r5, r5, r9
    4174:	e59d1008 	ldr	r1, [sp, #8]
    4178:	e1a02004 	mov	r2, r4
    417c:	e1510005 	cmp	r1, r5
    4180:	e1a03005 	mov	r3, r5
    4184:	e3a0044e 	mov	r0, #1308622848	; 0x4e000000
    4188:	8affffda 	bhi	40f8 <tt_ff_trolling+0x1a0>
    418c:	1a00000a 	bne	41bc <tt_ff_trolling+0x264>
    4190:	e59d100c 	ldr	r1, [sp, #12]
    4194:	e1510004 	cmp	r1, r4
    4198:	8affffd6 	bhi	40f8 <tt_ff_trolling+0x1a0>
    419c:	ea000006 	b	41bc <tt_ff_trolling+0x264>
    41a0:	e28dd01c 	add	sp, sp, #28	; 0x1c
    41a4:	e8bd8ff0 	pop	{r4, r5, r6, r7, r8, r9, sl, fp, pc}
    41a8:	e59f0054 	ldr	r0, [pc, #84]	; 4204 <tt_ff_trolling+0x2ac>
    41ac:	e59f3030 	ldr	r3, [pc, #48]	; 41e4 <tt_ff_trolling+0x28c>
    41b0:	e1a0e00f 	mov	lr, pc
    41b4:	e593f000 	ldr	pc, [r3]
    41b8:	eaffffc0 	b	40c0 <tt_ff_trolling+0x168>
    41bc:	e59f0040 	ldr	r0, [pc, #64]	; 4204 <tt_ff_trolling+0x2ac>
    41c0:	e59f401c 	ldr	r4, [pc, #28]	; 41e4 <tt_ff_trolling+0x28c>
    41c4:	e1a0e00f 	mov	lr, pc
    41c8:	e594f000 	ldr	pc, [r4]
    41cc:	e59f0034 	ldr	r0, [pc, #52]	; 4208 <tt_ff_trolling+0x2b0>
    41d0:	e1a0e00f 	mov	lr, pc
    41d4:	e594f000 	ldr	pc, [r4]
    41d8:	e3a00000 	mov	r0, #0	; 0x0
    41dc:	eaffffef 	b	41a0 <tt_ff_trolling+0x248>
    41e0:	00012ac2 	.word	0x00012ac2
    41e4:	0800d76c 	.word	0x0800d76c
    41e8:	00012adf 	.word	0x00012adf
    41ec:	00012afe 	.word	0x00012afe
    41f0:	00012b1c 	.word	0x00012b1c
    41f4:	00012b34 	.word	0x00012b34
    41f8:	00012b3b 	.word	0x00012b3b
    41fc:	4e000004 	.word	0x4e000004
    4200:	00012b5b 	.word	0x00012b5b
    4204:	00012b6b 	.word	0x00012b6b
    4208:	00012b72 	.word	0x00012b72

0000420c <do_tt_ff>:
    420c:	e92d4030 	push	{r4, r5, lr}
    4210:	e3520001 	cmp	r2, #1	; 0x1
    4214:	e24dd004 	sub	sp, sp, #4	; 0x4
    4218:	e1a05003 	mov	r5, r3
    421c:	ca000005 	bgt	4238 <do_tt_ff+0x2c>
    4220:	e59f0060 	ldr	r0, [pc, #96]	; 4288 <do_tt_ff+0x7c>
    4224:	e59f3060 	ldr	r3, [pc, #96]	; 428c <do_tt_ff+0x80>
    4228:	e1a0e00f 	mov	lr, pc
    422c:	e593f000 	ldr	pc, [r3]
    4230:	e3e00000 	mvn	r0, #0	; 0x0
    4234:	ea000011 	b	4280 <do_tt_ff+0x74>
    4238:	e3520002 	cmp	r2, #2	; 0x2
    423c:	03a04000 	moveq	r4, #0	; 0x0
    4240:	0a000009 	beq	426c <do_tt_ff+0x60>
    4244:	e3a01000 	mov	r1, #0	; 0x0
    4248:	e5930008 	ldr	r0, [r3, #8]
    424c:	e3a0200a 	mov	r2, #10	; 0xa
    4250:	eb0023a8 	bl	d0f8 <simple_strtoul>
    4254:	e1a04000 	mov	r4, r0
    4258:	e1a01004 	mov	r1, r4
    425c:	e59f002c 	ldr	r0, [pc, #44]	; 4290 <do_tt_ff+0x84>
    4260:	e59f3024 	ldr	r3, [pc, #36]	; 428c <do_tt_ff+0x80>
    4264:	e1a0e00f 	mov	lr, pc
    4268:	e593f000 	ldr	pc, [r3]
    426c:	e5950004 	ldr	r0, [r5, #4]
    4270:	e1a03624 	lsr	r3, r4, #12
    4274:	e1a02a04 	lsl	r2, r4, #20
    4278:	ebffff36 	bl	3f58 <tt_ff_trolling>
    427c:	e3a00000 	mov	r0, #0	; 0x0
    4280:	e28dd004 	add	sp, sp, #4	; 0x4
    4284:	e8bd8030 	pop	{r4, r5, pc}
    4288:	00012b8a 	.word	0x00012b8a
    428c:	0800d76c 	.word	0x0800d76c
    4290:	00012bd0 	.word	0x00012bd0

00004294 <tt_cmp_buffer>:
    4294:	e92d4ff0 	push	{r4, r5, r6, r7, r8, r9, sl, fp, lr}
    4298:	e3a04000 	mov	r4, #0	; 0x0
    429c:	e24dd004 	sub	sp, sp, #4	; 0x4
    42a0:	e1a0a002 	mov	sl, r2
    42a4:	e1a07000 	mov	r7, r0
    42a8:	e1a06001 	mov	r6, r1
    42ac:	e1a08003 	mov	r8, r3
    42b0:	e1a09142 	asr	r9, r2, #2
    42b4:	e1a05004 	mov	r5, r4
    42b8:	e59fb0e4 	ldr	fp, [pc, #228]	; 43a4 <tt_cmp_buffer+0x110>
    42bc:	ea00001f 	b	4340 <tt_cmp_buffer+0xac>
    42c0:	e5970000 	ldr	r0, [r7]
    42c4:	e5961000 	ldr	r1, [r6]
    42c8:	e1500001 	cmp	r0, r1
    42cc:	0a000018 	beq	4334 <tt_cmp_buffer+0xa0>
    42d0:	e5d72000 	ldrb	r2, [r7]
    42d4:	e5d63000 	ldrb	r3, [r6]
    42d8:	e1520003 	cmp	r2, r3
    42dc:	e5d72001 	ldrb	r2, [r7, #1]
    42e0:	e5d63001 	ldrb	r3, [r6, #1]
    42e4:	12855001 	addne	r5, r5, #1	; 0x1
    42e8:	e1520003 	cmp	r2, r3
    42ec:	e5d72002 	ldrb	r2, [r7, #2]
    42f0:	e5d63002 	ldrb	r3, [r6, #2]
    42f4:	12855001 	addne	r5, r5, #1	; 0x1
    42f8:	e1520003 	cmp	r2, r3
    42fc:	e5d72003 	ldrb	r2, [r7, #3]
    4300:	e5d63003 	ldrb	r3, [r6, #3]
    4304:	12855001 	addne	r5, r5, #1	; 0x1
    4308:	e1520003 	cmp	r2, r3
    430c:	12855001 	addne	r5, r5, #1	; 0x1
    4310:	e3580000 	cmp	r8, #0	; 0x0
    4314:	0a000006 	beq	4334 <tt_cmp_buffer+0xa0>
    4318:	e1a02000 	mov	r2, r0
    431c:	e1a03001 	mov	r3, r1
    4320:	e59f0080 	ldr	r0, [pc, #128]	; 43a8 <tt_cmp_buffer+0x114>
    4324:	e1a01104 	lsl	r1, r4, #2
    4328:	e1a0e00f 	mov	lr, pc
    432c:	e59bf000 	ldr	pc, [fp]
    4330:	e2488001 	sub	r8, r8, #1	; 0x1
    4334:	e2844001 	add	r4, r4, #1	; 0x1
    4338:	e2877004 	add	r7, r7, #4	; 0x4
    433c:	e2866004 	add	r6, r6, #4	; 0x4
    4340:	e1540009 	cmp	r4, r9
    4344:	baffffdd 	blt	42c0 <tt_cmp_buffer+0x2c>
    4348:	e3ca9003 	bic	r9, sl, #3	; 0x3
    434c:	e3a04000 	mov	r4, #0	; 0x0
    4350:	e20aa003 	and	sl, sl, #3	; 0x3
    4354:	e59fb048 	ldr	fp, [pc, #72]	; 43a4 <tt_cmp_buffer+0x110>
    4358:	ea00000c 	b	4390 <tt_cmp_buffer+0xfc>
    435c:	e7d72004 	ldrb	r2, [r7, r4]
    4360:	e7d63004 	ldrb	r3, [r6, r4]
    4364:	e1520003 	cmp	r2, r3
    4368:	0a000007 	beq	438c <tt_cmp_buffer+0xf8>
    436c:	e3580000 	cmp	r8, #0	; 0x0
    4370:	e2855001 	add	r5, r5, #1	; 0x1
    4374:	0a000004 	beq	438c <tt_cmp_buffer+0xf8>
    4378:	e0841009 	add	r1, r4, r9
    437c:	e59f0028 	ldr	r0, [pc, #40]	; 43ac <tt_cmp_buffer+0x118>
    4380:	e1a0e00f 	mov	lr, pc
    4384:	e59bf000 	ldr	pc, [fp]
    4388:	e2488001 	sub	r8, r8, #1	; 0x1
    438c:	e2844001 	add	r4, r4, #1	; 0x1
    4390:	e154000a 	cmp	r4, sl
    4394:	bafffff0 	blt	435c <tt_cmp_buffer+0xc8>
    4398:	e1a00005 	mov	r0, r5
    439c:	e28dd004 	add	sp, sp, #4	; 0x4
    43a0:	e8bd8ff0 	pop	{r4, r5, r6, r7, r8, r9, sl, fp, pc}
    43a4:	0800d76c 	.word	0x0800d76c
    43a8:	00012bf7 	.word	0x00012bf7
    43ac:	00012c22 	.word	0x00012c22

000043b0 <tt_rnd_seed>:
    43b0:	e92d4030 	push	{r4, r5, lr}
    43b4:	e59f5024 	ldr	r5, [pc, #36]	; 43e0 <tt_rnd_seed+0x30>
    43b8:	e24dd004 	sub	sp, sp, #4	; 0x4
    43bc:	e3a00000 	mov	r0, #0	; 0x0
    43c0:	e5954000 	ldr	r4, [r5]
    43c4:	eb001147 	bl	88e8 <get_timer>
    43c8:	e30f3ffc 	movw	r3, #65532	; 0xfffc
    43cc:	e6e40070 	uxtab	r0, r4, r0
    43d0:	e0003003 	and	r3, r0, r3
    43d4:	e5853000 	str	r3, [r5]
    43d8:	e28dd004 	add	sp, sp, #4	; 0x4
    43dc:	e8bd8030 	pop	{r4, r5, pc}
    43e0:	0800d1d8 	.word	0x0800d1d8

000043e4 <tt_rnd_get_int>:
    43e4:	e59fc094 	ldr	ip, [pc, #148]	; 4480 <tt_rnd_get_int+0x9c>
    43e8:	e3a02101 	mov	r2, #1073741824	; 0x40000000
    43ec:	e59c3000 	ldr	r3, [ip]
    43f0:	e92d40f0 	push	{r4, r5, r6, r7, lr}
    43f4:	e19330b2 	ldrh	r3, [r3, r2]
    43f8:	e24dd004 	sub	sp, sp, #4	; 0x4
    43fc:	e3c33003 	bic	r3, r3, #3	; 0x3
    4400:	e6ff3073 	uxth	r3, r3
    4404:	e19340b2 	ldrh	r4, [r3, r2]
    4408:	e58c3000 	str	r3, [ip]
    440c:	e1a07000 	mov	r7, r0
    4410:	e1a06001 	mov	r6, r1
    4414:	ebffffe5 	bl	43b0 <tt_rnd_seed>
    4418:	e1a00004 	mov	r0, r4
    441c:	eb003105 	bl	10838 <__aeabi_ui2d>
    4420:	e3a02000 	mov	r2, #0	; 0x0
    4424:	e59f3058 	ldr	r3, [pc, #88]	; 4484 <tt_rnd_get_int+0xa0>
    4428:	eb0031dd 	bl	10ba4 <__aeabi_ddiv>
    442c:	e1a04000 	mov	r4, r0
    4430:	e0670006 	rsb	r0, r7, r6
    4434:	e1a05001 	mov	r5, r1
    4438:	eb003107 	bl	1085c <__aeabi_i2d>
    443c:	e1a02000 	mov	r2, r0
    4440:	e1a03001 	mov	r3, r1
    4444:	e1a00004 	mov	r0, r4
    4448:	e1a01005 	mov	r1, r5
    444c:	eb003139 	bl	10938 <__aeabi_dmul>
    4450:	e1a04000 	mov	r4, r0
    4454:	e1a00007 	mov	r0, r7
    4458:	e1a05001 	mov	r5, r1
    445c:	eb0030fe 	bl	1085c <__aeabi_i2d>
    4460:	e1a02000 	mov	r2, r0
    4464:	e1a03001 	mov	r3, r1
    4468:	e1a00004 	mov	r0, r4
    446c:	e1a01005 	mov	r1, r5
    4470:	eb003045 	bl	1058c <__adddf3>
    4474:	eb00324b 	bl	10da8 <__aeabi_d2iz>
    4478:	e28dd004 	add	sp, sp, #4	; 0x4
    447c:	e8bd80f0 	pop	{r4, r5, r6, r7, pc}
    4480:	0800d1d8 	.word	0x0800d1d8
    4484:	40efffe0 	.word	0x40efffe0

00004488 <tt_rnd_get_data>:
    4488:	e92d4010 	push	{r4, lr}
    448c:	e1a04000 	mov	r4, r0
    4490:	e1a00001 	mov	r0, r1
    4494:	e1a01002 	mov	r1, r2
    4498:	ebffffd1 	bl	43e4 <tt_rnd_get_int>
    449c:	e59f3010 	ldr	r3, [pc, #16]	; 44b4 <tt_rnd_get_data+0x2c>
    44a0:	e5840000 	str	r0, [r4]
    44a4:	e5930000 	ldr	r0, [r3]
    44a8:	e3c00003 	bic	r0, r0, #3	; 0x3
    44ac:	e2800101 	add	r0, r0, #1073741824	; 0x40000000
    44b0:	e8bd8010 	pop	{r4, pc}
    44b4:	0800d1d8 	.word	0x0800d1d8

000044b8 <tt_wire_get_opt>:
    44b8:	e5900008 	ldr	r0, [r0, #8]
    44bc:	e12fff1e 	bx	lr

000044c0 <tt_wire_get_len>:
    44c0:	e590000c 	ldr	r0, [r0, #12]
    44c4:	e12fff1e 	bx	lr

000044c8 <tt_wire_make_data>:
    44c8:	e92d40f0 	push	{r4, r5, r6, r7, lr}
    44cc:	e24dd004 	sub	sp, sp, #4	; 0x4
    44d0:	e1a04000 	mov	r4, r0
    44d4:	e1a07002 	mov	r7, r2
    44d8:	e1a06003 	mov	r6, r3
    44dc:	ebfff39a 	bl	134c <memcpy>
    44e0:	e59f3040 	ldr	r3, [pc, #64]	; 4528 <tt_wire_make_data+0x60>
    44e4:	e5846008 	str	r6, [r4, #8]
    44e8:	e5843000 	str	r3, [r4]
    44ec:	e59d3018 	ldr	r3, [sp, #24]
    44f0:	e3a05000 	mov	r5, #0	; 0x0
    44f4:	e584300c 	str	r3, [r4, #12]
    44f8:	e1a01007 	mov	r1, r7
    44fc:	e5845004 	str	r5, [r4, #4]
    4500:	e1a00005 	mov	r0, r5
    4504:	eb00046a 	bl	56b4 <hash_init>
    4508:	e1a01007 	mov	r1, r7
    450c:	e1a00004 	mov	r0, r4
    4510:	eb000442 	bl	5620 <hash_data>
    4514:	e2840004 	add	r0, r4, #4	; 0x4
    4518:	eb000424 	bl	55b0 <hash_value>
    451c:	e1a00005 	mov	r0, r5
    4520:	e28dd004 	add	sp, sp, #4	; 0x4
    4524:	e8bd80f0 	pop	{r4, r5, r6, r7, pc}
    4528:	7766dd80 	.word	0x7766dd80

0000452c <tt_wire_check_valid>:
    452c:	e92d40f0 	push	{r4, r5, r6, r7, lr}
    4530:	e5903000 	ldr	r3, [r0]
    4534:	e59f2084 	ldr	r2, [pc, #132]	; 45c0 <tt_wire_check_valid+0x94>
    4538:	e24dd00c 	sub	sp, sp, #12	; 0xc
    453c:	e1530002 	cmp	r3, r2
    4540:	e1a04000 	mov	r4, r0
    4544:	e1a06001 	mov	r6, r1
    4548:	e5907004 	ldr	r7, [r0, #4]
    454c:	0a000006 	beq	456c <tt_wire_check_valid+0x40>
    4550:	e1a01003 	mov	r1, r3
    4554:	e59f0068 	ldr	r0, [pc, #104]	; 45c4 <tt_wire_check_valid+0x98>
    4558:	e59f3068 	ldr	r3, [pc, #104]	; 45c8 <tt_wire_check_valid+0x9c>
    455c:	e1a0e00f 	mov	lr, pc
    4560:	e593f000 	ldr	pc, [r3]
    4564:	e3a00000 	mov	r0, #0	; 0x0
    4568:	ea000012 	b	45b8 <tt_wire_check_valid+0x8c>
    456c:	e3a05000 	mov	r5, #0	; 0x0
    4570:	e5805004 	str	r5, [r0, #4]
    4574:	e1a00005 	mov	r0, r5
    4578:	eb00044d 	bl	56b4 <hash_init>
    457c:	e1a01006 	mov	r1, r6
    4580:	e1a00004 	mov	r0, r4
    4584:	eb000425 	bl	5620 <hash_data>
    4588:	e28d0004 	add	r0, sp, #4	; 0x4
    458c:	eb000407 	bl	55b0 <hash_value>
    4590:	e59d1004 	ldr	r1, [sp, #4]
    4594:	e1510007 	cmp	r1, r7
    4598:	03a00001 	moveq	r0, #1	; 0x1
    459c:	0a000005 	beq	45b8 <tt_wire_check_valid+0x8c>
    45a0:	e59f0024 	ldr	r0, [pc, #36]	; 45cc <tt_wire_check_valid+0xa0>
    45a4:	e1a02007 	mov	r2, r7
    45a8:	e59f3018 	ldr	r3, [pc, #24]	; 45c8 <tt_wire_check_valid+0x9c>
    45ac:	e1a0e00f 	mov	lr, pc
    45b0:	e593f000 	ldr	pc, [r3]
    45b4:	e1a00005 	mov	r0, r5
    45b8:	e28dd00c 	add	sp, sp, #12	; 0xc
    45bc:	e8bd80f0 	pop	{r4, r5, r6, r7, pc}
    45c0:	7766dd80 	.word	0x7766dd80
    45c4:	00012c4d 	.word	0x00012c4d
    45c8:	0800d76c 	.word	0x0800d76c
    45cc:	00012c76 	.word	0x00012c76

000045d0 <do_tt_wire>:
    45d0:	e92d4ff0 	push	{r4, r5, r6, r7, r8, r9, sl, fp, lr}
    45d4:	e3520001 	cmp	r2, #1	; 0x1
    45d8:	e24dd01c 	sub	sp, sp, #28	; 0x1c
    45dc:	e1a04003 	mov	r4, r3
    45e0:	d59f032c 	ldrle	r0, [pc, #812]	; 4914 <do_tt_wire+0x344>
    45e4:	da00002b 	ble	4698 <do_tt_wire+0xc8>
    45e8:	e3a02003 	mov	r2, #3	; 0x3
    45ec:	e5930004 	ldr	r0, [r3, #4]
    45f0:	e59f1320 	ldr	r1, [pc, #800]	; 4918 <do_tt_wire+0x348>
    45f4:	ebfff31b 	bl	1268 <strncmp>
    45f8:	e3500000 	cmp	r0, #0	; 0x0
    45fc:	059f2318 	ldreq	r2, [pc, #792]	; 491c <do_tt_wire+0x34c>
    4600:	0a000006 	beq	4620 <do_tt_wire+0x50>
    4604:	e5940004 	ldr	r0, [r4, #4]
    4608:	e59f1310 	ldr	r1, [pc, #784]	; 4920 <do_tt_wire+0x350>
    460c:	e3a02003 	mov	r2, #3	; 0x3
    4610:	ebfff314 	bl	1268 <strncmp>
    4614:	e3500000 	cmp	r0, #0	; 0x0
    4618:	1a000009 	bne	4644 <do_tt_wire+0x74>
    461c:	e59f2300 	ldr	r2, [pc, #768]	; 4924 <do_tt_wire+0x354>
    4620:	e59f3300 	ldr	r3, [pc, #768]	; 4928 <do_tt_wire+0x358>
    4624:	e3a00000 	mov	r0, #0	; 0x0
    4628:	e5832000 	str	r2, [r3]
    462c:	eb0010ad 	bl	88e8 <get_timer>
    4630:	e59f82f4 	ldr	r8, [pc, #756]	; 492c <do_tt_wire+0x35c>
    4634:	e59f92ec 	ldr	r9, [pc, #748]	; 4928 <do_tt_wire+0x358>
    4638:	e1a0a008 	mov	sl, r8
    463c:	e58d000c 	str	r0, [sp, #12]
    4640:	ea000006 	b	4660 <do_tt_wire+0x90>
    4644:	e5941004 	ldr	r1, [r4, #4]
    4648:	e59f02e0 	ldr	r0, [pc, #736]	; 4930 <do_tt_wire+0x360>
    464c:	e59f32d8 	ldr	r3, [pc, #728]	; 492c <do_tt_wire+0x35c>
    4650:	e1a0e00f 	mov	lr, pc
    4654:	e593f000 	ldr	pc, [r3]
    4658:	e3e00000 	mvn	r0, #0	; 0x0
    465c:	ea0000aa 	b	490c <do_tt_wire+0x33c>
    4660:	e59f02cc 	ldr	r0, [pc, #716]	; 4934 <do_tt_wire+0x364>
    4664:	eb00107b 	bl	8858 <udelay>
    4668:	e59f02c8 	ldr	r0, [pc, #712]	; 4938 <do_tt_wire+0x368>
    466c:	e1a0e00f 	mov	lr, pc
    4670:	e598f000 	ldr	pc, [r8]
    4674:	e5993000 	ldr	r3, [r9]
    4678:	e1a0e00f 	mov	lr, pc
    467c:	e593f000 	ldr	pc, [r3]
    4680:	e3500000 	cmp	r0, #0	; 0x0
    4684:	a3a07000 	movge	r7, #0	; 0x0
    4688:	a3a06020 	movge	r6, #32	; 0x20
    468c:	a59fb2a8 	ldrge	fp, [pc, #680]	; 493c <do_tt_wire+0x36c>
    4690:	aa000004 	bge	46a8 <do_tt_wire+0xd8>
    4694:	e59f02a4 	ldr	r0, [pc, #676]	; 4940 <do_tt_wire+0x370>
    4698:	e59f328c 	ldr	r3, [pc, #652]	; 492c <do_tt_wire+0x35c>
    469c:	e1a0e00f 	mov	lr, pc
    46a0:	e593f000 	ldr	pc, [r3]
    46a4:	eaffffeb 	b	4658 <do_tt_wire+0x88>
    46a8:	e3570000 	cmp	r7, #0	; 0x0
    46ac:	e1a01006 	mov	r1, r6
    46b0:	e59f028c 	ldr	r0, [pc, #652]	; 4944 <do_tt_wire+0x374>
    46b4:	1a00002f 	bne	4778 <do_tt_wire+0x1a8>
    46b8:	e59f0288 	ldr	r0, [pc, #648]	; 4948 <do_tt_wire+0x378>
    46bc:	e1a0e00f 	mov	lr, pc
    46c0:	e598f000 	ldr	pc, [r8]
    46c4:	e1a00007 	mov	r0, r7
    46c8:	eb001086 	bl	88e8 <get_timer>
    46cc:	e1a01006 	mov	r1, r6
    46d0:	e1a04000 	mov	r4, r0
    46d4:	e5993000 	ldr	r3, [r9]
    46d8:	e3a0044e 	mov	r0, #1308622848	; 0x4e000000
    46dc:	e1a0e00f 	mov	lr, pc
    46e0:	e593f004 	ldr	pc, [r3, #4]
    46e4:	e1a05000 	mov	r5, r0
    46e8:	e1a00004 	mov	r0, r4
    46ec:	eb00107d 	bl	88e8 <get_timer>
    46f0:	e3550000 	cmp	r5, #0	; 0x0
    46f4:	e1a04000 	mov	r4, r0
    46f8:	e1a01006 	mov	r1, r6
    46fc:	e3a0044e 	mov	r0, #1308622848	; 0x4e000000
    4700:	ba00003d 	blt	47fc <do_tt_wire+0x22c>
    4704:	ebffff88 	bl	452c <tt_wire_check_valid>
    4708:	e3500000 	cmp	r0, #0	; 0x0
    470c:	e1a01004 	mov	r1, r4
    4710:	e1a03546 	asr	r3, r6, #10
    4714:	1a000007 	bne	4738 <do_tt_wire+0x168>
    4718:	e2800ffa 	add	r0, r0, #1000	; 0x3e8
    471c:	e0000390 	mul	r0, r0, r3
    4720:	eb002efa 	bl	10310 <__aeabi_idiv>
    4724:	e1a01000 	mov	r1, r0
    4728:	e59f021c 	ldr	r0, [pc, #540]	; 494c <do_tt_wire+0x37c>
    472c:	e1a0e00f 	mov	lr, pc
    4730:	e59af000 	ldr	pc, [sl]
    4734:	eaffffc9 	b	4660 <do_tt_wire+0x90>
    4738:	e59fc210 	ldr	ip, [pc, #528]	; 4950 <do_tt_wire+0x380>
    473c:	e3a02ffa 	mov	r2, #1000	; 0x3e8
    4740:	e0000392 	mul	r0, r2, r3
    4744:	e89c000c 	ldm	ip, {r2, r3}
    4748:	e0922006 	adds	r2, r2, r6
    474c:	e0a33fc6 	adc	r3, r3, r6, asr #31
    4750:	e88c000c 	stm	ip, {r2, r3}
    4754:	eb002eed 	bl	10310 <__aeabi_idiv>
    4758:	e1a01000 	mov	r1, r0
    475c:	e59f01f0 	ldr	r0, [pc, #496]	; 4954 <do_tt_wire+0x384>
    4760:	e1a0e00f 	mov	lr, pc
    4764:	e598f000 	ldr	pc, [r8]
    4768:	e3a0344e 	mov	r3, #1308622848	; 0x4e000000
    476c:	e5937008 	ldr	r7, [r3, #8]
    4770:	e593600c 	ldr	r6, [r3, #12]
    4774:	ea000044 	b	488c <do_tt_wire+0x2bc>
    4778:	e3570001 	cmp	r7, #1	; 0x1
    477c:	1a000030 	bne	4844 <do_tt_wire+0x274>
    4780:	e1a0e00f 	mov	lr, pc
    4784:	e598f000 	ldr	pc, [r8]
    4788:	e1a01007 	mov	r1, r7
    478c:	e3a00000 	mov	r0, #0	; 0x0
    4790:	ebffff13 	bl	43e4 <tt_rnd_get_int>
    4794:	e3a01020 	mov	r1, #32	; 0x20
    4798:	e1a07000 	mov	r7, r0
    479c:	e3a02502 	mov	r2, #8388608	; 0x800000
    47a0:	e28d0014 	add	r0, sp, #20	; 0x14
    47a4:	ebffff37 	bl	4488 <tt_rnd_get_data>
    47a8:	e59dc014 	ldr	ip, [sp, #20]
    47ac:	e1a01000 	mov	r1, r0
    47b0:	e1a02006 	mov	r2, r6
    47b4:	e1a03007 	mov	r3, r7
    47b8:	e3a0044e 	mov	r0, #1308622848	; 0x4e000000
    47bc:	e58dc000 	str	ip, [sp]
    47c0:	ebffff40 	bl	44c8 <tt_wire_make_data>
    47c4:	e3a00000 	mov	r0, #0	; 0x0
    47c8:	eb001046 	bl	88e8 <get_timer>
    47cc:	e1a01006 	mov	r1, r6
    47d0:	e1a05000 	mov	r5, r0
    47d4:	e5993000 	ldr	r3, [r9]
    47d8:	e3a0044e 	mov	r0, #1308622848	; 0x4e000000
    47dc:	e1a0e00f 	mov	lr, pc
    47e0:	e593f008 	ldr	pc, [r3, #8]
    47e4:	e1a04000 	mov	r4, r0
    47e8:	e1a00005 	mov	r0, r5
    47ec:	eb00103d 	bl	88e8 <get_timer>
    47f0:	e3540000 	cmp	r4, #0	; 0x0
    47f4:	e1a01000 	mov	r1, r0
    47f8:	aa000003 	bge	480c <do_tt_wire+0x23c>
    47fc:	e59f0154 	ldr	r0, [pc, #340]	; 4958 <do_tt_wire+0x388>
    4800:	e1a0e00f 	mov	lr, pc
    4804:	e59af000 	ldr	pc, [sl]
    4808:	eaffff94 	b	4660 <do_tt_wire+0x90>
    480c:	e89b000c 	ldm	fp, {r2, r3}
    4810:	e0922006 	adds	r2, r2, r6
    4814:	e0a33fc6 	adc	r3, r3, r6, asr #31
    4818:	e59d6014 	ldr	r6, [sp, #20]
    481c:	e88b000c 	stm	fp, {r2, r3}
    4820:	e1a00546 	asr	r0, r6, #10
    4824:	e3a02ffa 	mov	r2, #1000	; 0x3e8
    4828:	e0000092 	mul	r0, r2, r0
    482c:	eb002eb7 	bl	10310 <__aeabi_idiv>
    4830:	e1a01000 	mov	r1, r0
    4834:	e59f0120 	ldr	r0, [pc, #288]	; 495c <do_tt_wire+0x38c>
    4838:	e1a0e00f 	mov	lr, pc
    483c:	e598f000 	ldr	pc, [r8]
    4840:	ea000011 	b	488c <do_tt_wire+0x2bc>
    4844:	e3570003 	cmp	r7, #3	; 0x3
    4848:	1a000004 	bne	4860 <do_tt_wire+0x290>
    484c:	e59f010c 	ldr	r0, [pc, #268]	; 4960 <do_tt_wire+0x390>
    4850:	e59f30d4 	ldr	r3, [pc, #212]	; 492c <do_tt_wire+0x35c>
    4854:	e1a0e00f 	mov	lr, pc
    4858:	e593f000 	ldr	pc, [r3]
    485c:	ea000010 	b	48a4 <do_tt_wire+0x2d4>
    4860:	e3570002 	cmp	r7, #2	; 0x2
    4864:	1a000003 	bne	4878 <do_tt_wire+0x2a8>
    4868:	e59f00f4 	ldr	r0, [pc, #244]	; 4964 <do_tt_wire+0x394>
    486c:	e1a0e00f 	mov	lr, pc
    4870:	e598f000 	ldr	pc, [r8]
    4874:	eaffff79 	b	4660 <do_tt_wire+0x90>
    4878:	e59f00e8 	ldr	r0, [pc, #232]	; 4968 <do_tt_wire+0x398>
    487c:	e59f30a8 	ldr	r3, [pc, #168]	; 492c <do_tt_wire+0x35c>
    4880:	e1a0e00f 	mov	lr, pc
    4884:	e593f000 	ldr	pc, [r3]
    4888:	eafffffe 	b	4888 <do_tt_wire+0x2b8>
    488c:	eb002630 	bl	e154 <tstc>
    4890:	e3500000 	cmp	r0, #0	; 0x0
    4894:	0affff83 	beq	46a8 <do_tt_wire+0xd8>
    4898:	eb00262e 	bl	e158 <getc>
    489c:	e3500003 	cmp	r0, #3	; 0x3
    48a0:	1affff80 	bne	46a8 <do_tt_wire+0xd8>
    48a4:	e59d000c 	ldr	r0, [sp, #12]
    48a8:	eb00100e 	bl	88e8 <get_timer>
    48ac:	e59f3088 	ldr	r3, [pc, #136]	; 493c <do_tt_wire+0x36c>
    48b0:	e59f4074 	ldr	r4, [pc, #116]	; 492c <do_tt_wire+0x35c>
    48b4:	e893000a 	ldm	r3, {r1, r3}
    48b8:	e1a01a21 	lsr	r1, r1, #20
    48bc:	e1811603 	orr	r1, r1, r3, lsl #12
    48c0:	e1a05000 	mov	r5, r0
    48c4:	e59f00a0 	ldr	r0, [pc, #160]	; 496c <do_tt_wire+0x39c>
    48c8:	e1a0e00f 	mov	lr, pc
    48cc:	e594f000 	ldr	pc, [r4]
    48d0:	e59f3078 	ldr	r3, [pc, #120]	; 4950 <do_tt_wire+0x380>
    48d4:	e59f0094 	ldr	r0, [pc, #148]	; 4970 <do_tt_wire+0x3a0>
    48d8:	e893000a 	ldm	r3, {r1, r3}
    48dc:	e1a01a21 	lsr	r1, r1, #20
    48e0:	e1811603 	orr	r1, r1, r3, lsl #12
    48e4:	e1a0e00f 	mov	lr, pc
    48e8:	e594f000 	ldr	pc, [r4]
    48ec:	e30e1a60 	movw	r1, #60000	; 0xea60
    48f0:	e1a00005 	mov	r0, r5
    48f4:	eb002e85 	bl	10310 <__aeabi_idiv>
    48f8:	e1a01000 	mov	r1, r0
    48fc:	e59f0070 	ldr	r0, [pc, #112]	; 4974 <do_tt_wire+0x3a4>
    4900:	e1a0e00f 	mov	lr, pc
    4904:	e594f000 	ldr	pc, [r4]
    4908:	e3a00000 	mov	r0, #0	; 0x0
    490c:	e28dd01c 	add	sp, sp, #28	; 0x1c
    4910:	e8bd8ff0 	pop	{r4, r5, r6, r7, r8, r9, sl, fp, pc}
    4914:	00012c9f 	.word	0x00012c9f
    4918:	00012ce8 	.word	0x00012ce8
    491c:	00010ed4 	.word	0x00010ed4
    4920:	00012cec 	.word	0x00012cec
    4924:	00010eec 	.word	0x00010eec
    4928:	0800d1f0 	.word	0x0800d1f0
    492c:	0800d76c 	.word	0x0800d76c
    4930:	00012cf0 	.word	0x00012cf0
    4934:	001e8480 	.word	0x001e8480
    4938:	00012d10 	.word	0x00012d10
    493c:	0800d1e8 	.word	0x0800d1e8
    4940:	00012d32 	.word	0x00012d32
    4944:	00012d9f 	.word	0x00012d9f
    4948:	00012d55 	.word	0x00012d55
    494c:	00012d81 	.word	0x00012d81
    4950:	0800d1e0 	.word	0x0800d1e0
    4954:	00012d90 	.word	0x00012d90
    4958:	00012d71 	.word	0x00012d71
    495c:	00012dbb 	.word	0x00012dbb
    4960:	00012dca 	.word	0x00012dca
    4964:	00012ddc 	.word	0x00012ddc
    4968:	00012df5 	.word	0x00012df5
    496c:	00012e22 	.word	0x00012e22
    4970:	00012e3c 	.word	0x00012e3c
    4974:	00012e5a 	.word	0x00012e5a

00004978 <vs_is_assigned>:
    4978:	e59f300c 	ldr	r3, [pc, #12]	; 498c <vs_is_assigned+0x14>
    497c:	e5930000 	ldr	r0, [r3]
    4980:	e2500000 	subs	r0, r0, #0	; 0x0
    4984:	13a00001 	movne	r0, #1	; 0x1
    4988:	e12fff1e 	bx	lr
    498c:	0800d1f8 	.word	0x0800d1f8

00004990 <vs_is_opt_available>:
    4990:	e350000d 	cmp	r0, #13	; 0xd
    4994:	959f2078 	ldrls	r2, [pc, #120]	; 4a14 <vs_is_opt_available+0x84>
    4998:	93a0302c 	movls	r3, #44	; 0x2c
    499c:	859f3074 	ldrhi	r3, [pc, #116]	; 4a18 <vs_is_opt_available+0x88>
    49a0:	90202093 	mlals	r0, r3, r0, r2
    49a4:	85930000 	ldrhi	r0, [r3]
    49a8:	e3500000 	cmp	r0, #0	; 0x0
    49ac:	0a000016 	beq	4a0c <vs_is_opt_available+0x7c>
    49b0:	e3510005 	cmp	r1, #5	; 0x5
    49b4:	979ff101 	ldrls	pc, [pc, r1, lsl #2]
    49b8:	ea000013 	b	4a0c <vs_is_opt_available+0x7c>
    49bc:	000049d4 	.word	0x000049d4
    49c0:	000049dc 	.word	0x000049dc
    49c4:	000049e4 	.word	0x000049e4
    49c8:	000049ec 	.word	0x000049ec
    49cc:	000049f4 	.word	0x000049f4
    49d0:	000049fc 	.word	0x000049fc
    49d4:	e590300c 	ldr	r3, [r0, #12]
    49d8:	ea000008 	b	4a00 <vs_is_opt_available+0x70>
    49dc:	e5903010 	ldr	r3, [r0, #16]
    49e0:	ea000006 	b	4a00 <vs_is_opt_available+0x70>
    49e4:	e5903014 	ldr	r3, [r0, #20]
    49e8:	ea000004 	b	4a00 <vs_is_opt_available+0x70>
    49ec:	e5903018 	ldr	r3, [r0, #24]
    49f0:	ea000002 	b	4a00 <vs_is_opt_available+0x70>
    49f4:	e590301c 	ldr	r3, [r0, #28]
    49f8:	ea000000 	b	4a00 <vs_is_opt_available+0x70>
    49fc:	e5903020 	ldr	r3, [r0, #32]
    4a00:	e2530000 	subs	r0, r3, #0	; 0x0
    4a04:	13a00001 	movne	r0, #1	; 0x1
    4a08:	e12fff1e 	bx	lr
    4a0c:	e3a00000 	mov	r0, #0	; 0x0
    4a10:	e12fff1e 	bx	lr
    4a14:	00010eec 	.word	0x00010eec
    4a18:	0800d1f8 	.word	0x0800d1f8

00004a1c <vs_write>:
    4a1c:	e92d4010 	push	{r4, lr}
    4a20:	e24dd008 	sub	sp, sp, #8	; 0x8
    4a24:	e59d4010 	ldr	r4, [sp, #16]
    4a28:	e3540000 	cmp	r4, #0	; 0x0
    4a2c:	01a00004 	moveq	r0, r4
    4a30:	0a00000c 	beq	4a68 <vs_write+0x4c>
    4a34:	e59f1034 	ldr	r1, [pc, #52]	; 4a70 <vs_write+0x54>
    4a38:	e5911000 	ldr	r1, [r1]
    4a3c:	e3510000 	cmp	r1, #0	; 0x0
    4a40:	03e00001 	mvneq	r0, #1	; 0x1
    4a44:	0a000007 	beq	4a68 <vs_write+0x4c>
    4a48:	e591c014 	ldr	ip, [r1, #20]
    4a4c:	e35c0000 	cmp	ip, #0	; 0x0
    4a50:	03e00002 	mvneq	r0, #2	; 0x2
    4a54:	0a000003 	beq	4a68 <vs_write+0x4c>
    4a58:	e59d1014 	ldr	r1, [sp, #20]
    4a5c:	e58d4000 	str	r4, [sp]
    4a60:	e58d1004 	str	r1, [sp, #4]
    4a64:	e12fff3c 	blx	ip
    4a68:	e28dd008 	add	sp, sp, #8	; 0x8
    4a6c:	e8bd8010 	pop	{r4, pc}
    4a70:	0800d1f8 	.word	0x0800d1f8

00004a74 <vs_erase>:
    4a74:	e52de004 	push	{lr}		; (str lr, [sp, #-4]!)
    4a78:	e59f302c 	ldr	r3, [pc, #44]	; 4aac <vs_erase+0x38>
    4a7c:	e24dd004 	sub	sp, sp, #4	; 0x4
    4a80:	e5933000 	ldr	r3, [r3]
    4a84:	e3530000 	cmp	r3, #0	; 0x0
    4a88:	03e00001 	mvneq	r0, #1	; 0x1
    4a8c:	0a000004 	beq	4aa4 <vs_erase+0x30>
    4a90:	e593301c 	ldr	r3, [r3, #28]
    4a94:	e3530000 	cmp	r3, #0	; 0x0
    4a98:	03e00002 	mvneq	r0, #2	; 0x2
    4a9c:	0a000000 	beq	4aa4 <vs_erase+0x30>
    4aa0:	e12fff33 	blx	r3
    4aa4:	e28dd004 	add	sp, sp, #4	; 0x4
    4aa8:	e8bd8000 	pop	{pc}
    4aac:	0800d1f8 	.word	0x0800d1f8

00004ab0 <vs_isbad>:
    4ab0:	e52de004 	push	{lr}		; (str lr, [sp, #-4]!)
    4ab4:	e59f302c 	ldr	r3, [pc, #44]	; 4ae8 <vs_isbad+0x38>
    4ab8:	e24dd004 	sub	sp, sp, #4	; 0x4
    4abc:	e5933000 	ldr	r3, [r3]
    4ac0:	e3530000 	cmp	r3, #0	; 0x0
    4ac4:	03e00001 	mvneq	r0, #1	; 0x1
    4ac8:	0a000004 	beq	4ae0 <vs_isbad+0x30>
    4acc:	e5933024 	ldr	r3, [r3, #36]
    4ad0:	e3530000 	cmp	r3, #0	; 0x0
    4ad4:	03e00002 	mvneq	r0, #2	; 0x2
    4ad8:	0a000000 	beq	4ae0 <vs_isbad+0x30>
    4adc:	e12fff33 	blx	r3
    4ae0:	e28dd004 	add	sp, sp, #4	; 0x4
    4ae4:	e8bd8000 	pop	{pc}
    4ae8:	0800d1f8 	.word	0x0800d1f8

00004aec <vs_scrub>:
    4aec:	e52de004 	push	{lr}		; (str lr, [sp, #-4]!)
    4af0:	e59f302c 	ldr	r3, [pc, #44]	; 4b24 <vs_scrub+0x38>
    4af4:	e24dd004 	sub	sp, sp, #4	; 0x4
    4af8:	e5933000 	ldr	r3, [r3]
    4afc:	e3530000 	cmp	r3, #0	; 0x0
    4b00:	03e00001 	mvneq	r0, #1	; 0x1
    4b04:	0a000004 	beq	4b1c <vs_scrub+0x30>
    4b08:	e5933020 	ldr	r3, [r3, #32]
    4b0c:	e3530000 	cmp	r3, #0	; 0x0
    4b10:	03e00002 	mvneq	r0, #2	; 0x2
    4b14:	0a000000 	beq	4b1c <vs_scrub+0x30>
    4b18:	e12fff33 	blx	r3
    4b1c:	e28dd004 	add	sp, sp, #4	; 0x4
    4b20:	e8bd8000 	pop	{pc}
    4b24:	0800d1f8 	.word	0x0800d1f8

00004b28 <vs_special>:
    4b28:	e52de004 	push	{lr}		; (str lr, [sp, #-4]!)
    4b2c:	e59f302c 	ldr	r3, [pc, #44]	; 4b60 <vs_special+0x38>
    4b30:	e24dd004 	sub	sp, sp, #4	; 0x4
    4b34:	e5933000 	ldr	r3, [r3]
    4b38:	e3530000 	cmp	r3, #0	; 0x0
    4b3c:	03e00001 	mvneq	r0, #1	; 0x1
    4b40:	0a000004 	beq	4b58 <vs_special+0x30>
    4b44:	e5933028 	ldr	r3, [r3, #40]
    4b48:	e3530000 	cmp	r3, #0	; 0x0
    4b4c:	03e00002 	mvneq	r0, #2	; 0x2
    4b50:	0a000000 	beq	4b58 <vs_special+0x30>
    4b54:	e12fff33 	blx	r3
    4b58:	e28dd004 	add	sp, sp, #4	; 0x4
    4b5c:	e8bd8000 	pop	{pc}
    4b60:	0800d1f8 	.word	0x0800d1f8

00004b64 <vs_align>:
    4b64:	e52de004 	push	{lr}		; (str lr, [sp, #-4]!)
    4b68:	e350000e 	cmp	r0, #14	; 0xe
    4b6c:	059f3044 	ldreq	r3, [pc, #68]	; 4bb8 <vs_align+0x54>
    4b70:	e24dd004 	sub	sp, sp, #4	; 0x4
    4b74:	05930000 	ldreq	r0, [r3]
    4b78:	0a000004 	beq	4b90 <vs_align+0x2c>
    4b7c:	e350000d 	cmp	r0, #13	; 0xd
    4b80:	8a000009 	bhi	4bac <vs_align+0x48>
    4b84:	e59f2030 	ldr	r2, [pc, #48]	; 4bbc <vs_align+0x58>
    4b88:	e3a0302c 	mov	r3, #44	; 0x2c
    4b8c:	e0202093 	mla	r0, r3, r0, r2
    4b90:	e3500000 	cmp	r0, #0	; 0x0
    4b94:	0a000004 	beq	4bac <vs_align+0x48>
    4b98:	e590000c 	ldr	r0, [r0, #12]
    4b9c:	e3500000 	cmp	r0, #0	; 0x0
    4ba0:	0a000001 	beq	4bac <vs_align+0x48>
    4ba4:	e12fff30 	blx	r0
    4ba8:	ea000000 	b	4bb0 <vs_align+0x4c>
    4bac:	e3a00000 	mov	r0, #0	; 0x0
    4bb0:	e28dd004 	add	sp, sp, #4	; 0x4
    4bb4:	e8bd8000 	pop	{pc}
    4bb8:	0800d1f8 	.word	0x0800d1f8
    4bbc:	00010eec 	.word	0x00010eec

00004bc0 <vs_device_bootable>:
    4bc0:	e350000e 	cmp	r0, #14	; 0xe
    4bc4:	059f3030 	ldreq	r3, [pc, #48]	; 4bfc <vs_device_bootable+0x3c>
    4bc8:	05930000 	ldreq	r0, [r3]
    4bcc:	0a000004 	beq	4be4 <vs_device_bootable+0x24>
    4bd0:	e350000d 	cmp	r0, #13	; 0xd
    4bd4:	8a000006 	bhi	4bf4 <vs_device_bootable+0x34>
    4bd8:	e59f2020 	ldr	r2, [pc, #32]	; 4c00 <vs_device_bootable+0x40>
    4bdc:	e3a0302c 	mov	r3, #44	; 0x2c
    4be0:	e0202093 	mla	r0, r3, r0, r2
    4be4:	e3500000 	cmp	r0, #0	; 0x0
    4be8:	15903008 	ldrne	r3, [r0, #8]
    4bec:	12030001 	andne	r0, r3, #1	; 0x1
    4bf0:	112fff1e 	bxne	lr
    4bf4:	e3a00000 	mov	r0, #0	; 0x0
    4bf8:	e12fff1e 	bx	lr
    4bfc:	0800d1f8 	.word	0x0800d1f8
    4c00:	00010eec 	.word	0x00010eec

00004c04 <vs_device_burnsrc>:
    4c04:	e350000e 	cmp	r0, #14	; 0xe
    4c08:	059f3034 	ldreq	r3, [pc, #52]	; 4c44 <vs_device_burnsrc+0x40>
    4c0c:	05930000 	ldreq	r0, [r3]
    4c10:	0a000004 	beq	4c28 <vs_device_burnsrc+0x24>
    4c14:	e350000d 	cmp	r0, #13	; 0xd
    4c18:	8a000007 	bhi	4c3c <vs_device_burnsrc+0x38>
    4c1c:	e59f2024 	ldr	r2, [pc, #36]	; 4c48 <vs_device_burnsrc+0x44>
    4c20:	e3a0302c 	mov	r3, #44	; 0x2c
    4c24:	e0202093 	mla	r0, r3, r0, r2
    4c28:	e3500000 	cmp	r0, #0	; 0x0
    4c2c:	15903008 	ldrne	r3, [r0, #8]
    4c30:	11a030a3 	lsrne	r3, r3, #1
    4c34:	12030001 	andne	r0, r3, #1	; 0x1
    4c38:	112fff1e 	bxne	lr
    4c3c:	e3a00000 	mov	r0, #0	; 0x0
    4c40:	e12fff1e 	bx	lr
    4c44:	0800d1f8 	.word	0x0800d1f8
    4c48:	00010eec 	.word	0x00010eec

00004c4c <vs_device_burndst>:
    4c4c:	e350000e 	cmp	r0, #14	; 0xe
    4c50:	059f3034 	ldreq	r3, [pc, #52]	; 4c8c <vs_device_burndst+0x40>
    4c54:	05930000 	ldreq	r0, [r3]
    4c58:	0a000004 	beq	4c70 <vs_device_burndst+0x24>
    4c5c:	e350000d 	cmp	r0, #13	; 0xd
    4c60:	8a000007 	bhi	4c84 <vs_device_burndst+0x38>
    4c64:	e59f2024 	ldr	r2, [pc, #36]	; 4c90 <vs_device_burndst+0x44>
    4c68:	e3a0302c 	mov	r3, #44	; 0x2c
    4c6c:	e0202093 	mla	r0, r3, r0, r2
    4c70:	e3500000 	cmp	r0, #0	; 0x0
    4c74:	15903008 	ldrne	r3, [r0, #8]
    4c78:	11a03123 	lsrne	r3, r3, #2
    4c7c:	12030001 	andne	r0, r3, #1	; 0x1
    4c80:	112fff1e 	bxne	lr
    4c84:	e3a00000 	mov	r0, #0	; 0x0
    4c88:	e12fff1e 	bx	lr
    4c8c:	0800d1f8 	.word	0x0800d1f8
    4c90:	00010eec 	.word	0x00010eec

00004c94 <vs_device_boot0>:
    4c94:	e350000e 	cmp	r0, #14	; 0xe
    4c98:	059f3034 	ldreq	r3, [pc, #52]	; 4cd4 <vs_device_boot0+0x40>
    4c9c:	05930000 	ldreq	r0, [r3]
    4ca0:	0a000004 	beq	4cb8 <vs_device_boot0+0x24>
    4ca4:	e350000d 	cmp	r0, #13	; 0xd
    4ca8:	8a000007 	bhi	4ccc <vs_device_boot0+0x38>
    4cac:	e59f2024 	ldr	r2, [pc, #36]	; 4cd8 <vs_device_boot0+0x44>
    4cb0:	e3a0302c 	mov	r3, #44	; 0x2c
    4cb4:	e0202093 	mla	r0, r3, r0, r2
    4cb8:	e3500000 	cmp	r0, #0	; 0x0
    4cbc:	15903008 	ldrne	r3, [r0, #8]
    4cc0:	11a031a3 	lsrne	r3, r3, #3
    4cc4:	12030001 	andne	r0, r3, #1	; 0x1
    4cc8:	112fff1e 	bxne	lr
    4ccc:	e3a00000 	mov	r0, #0	; 0x0
    4cd0:	e12fff1e 	bx	lr
    4cd4:	0800d1f8 	.word	0x0800d1f8
    4cd8:	00010eec 	.word	0x00010eec

00004cdc <vs_device_name>:
    4cdc:	e350000e 	cmp	r0, #14	; 0xe
    4ce0:	059f3028 	ldreq	r3, [pc, #40]	; 4d10 <vs_device_name+0x34>
    4ce4:	05930000 	ldreq	r0, [r3]
    4ce8:	0a000004 	beq	4d00 <vs_device_name+0x24>
    4cec:	e350000d 	cmp	r0, #13	; 0xd
    4cf0:	8a000004 	bhi	4d08 <vs_device_name+0x2c>
    4cf4:	e59f2018 	ldr	r2, [pc, #24]	; 4d14 <vs_device_name+0x38>
    4cf8:	e3a0302c 	mov	r3, #44	; 0x2c
    4cfc:	e0202093 	mla	r0, r3, r0, r2
    4d00:	e3500000 	cmp	r0, #0	; 0x0
    4d04:	112fff1e 	bxne	lr
    4d08:	e3a00000 	mov	r0, #0	; 0x0
    4d0c:	e12fff1e 	bx	lr
    4d10:	0800d1f8 	.word	0x0800d1f8
    4d14:	00010eec 	.word	0x00010eec

00004d18 <vs_device_erasable>:
    4d18:	e350000e 	cmp	r0, #14	; 0xe
    4d1c:	059f3034 	ldreq	r3, [pc, #52]	; 4d58 <vs_device_erasable+0x40>
    4d20:	05930000 	ldreq	r0, [r3]
    4d24:	0a000004 	beq	4d3c <vs_device_erasable+0x24>
    4d28:	e350000d 	cmp	r0, #13	; 0xd
    4d2c:	8a000007 	bhi	4d50 <vs_device_erasable+0x38>
    4d30:	e59f2024 	ldr	r2, [pc, #36]	; 4d5c <vs_device_erasable+0x44>
    4d34:	e3a0302c 	mov	r3, #44	; 0x2c
    4d38:	e0202093 	mla	r0, r3, r0, r2
    4d3c:	e3500000 	cmp	r0, #0	; 0x0
    4d40:	15903008 	ldrne	r3, [r0, #8]
    4d44:	11a03223 	lsrne	r3, r3, #4
    4d48:	12030001 	andne	r0, r3, #1	; 0x1
    4d4c:	112fff1e 	bxne	lr
    4d50:	e3a00000 	mov	r0, #0	; 0x0
    4d54:	e12fff1e 	bx	lr
    4d58:	0800d1f8 	.word	0x0800d1f8
    4d5c:	00010eec 	.word	0x00010eec

00004d60 <vs_device_count>:
    4d60:	e3a0000e 	mov	r0, #14	; 0xe
    4d64:	e12fff1e 	bx	lr

00004d68 <vs_device_id>:
    4d68:	e92d40f0 	push	{r4, r5, r6, r7, lr}
    4d6c:	e59f7040 	ldr	r7, [pc, #64]	; 4db4 <vs_device_id+0x4c>
    4d70:	e24dd004 	sub	sp, sp, #4	; 0x4
    4d74:	e1a05000 	mov	r5, r0
    4d78:	e3a04000 	mov	r4, #0	; 0x0
    4d7c:	e3a0602c 	mov	r6, #44	; 0x2c
    4d80:	e0217496 	mla	r1, r6, r4, r7
    4d84:	e1a00005 	mov	r0, r5
    4d88:	e3a02010 	mov	r2, #16	; 0x10
    4d8c:	ebfff135 	bl	1268 <strncmp>
    4d90:	e3500000 	cmp	r0, #0	; 0x0
    4d94:	0a000003 	beq	4da8 <vs_device_id+0x40>
    4d98:	e2844001 	add	r4, r4, #1	; 0x1
    4d9c:	e354000e 	cmp	r4, #14	; 0xe
    4da0:	1afffff6 	bne	4d80 <vs_device_id+0x18>
    4da4:	e2844001 	add	r4, r4, #1	; 0x1
    4da8:	e1a00004 	mov	r0, r4
    4dac:	e28dd004 	add	sp, sp, #4	; 0x4
    4db0:	e8bd80f0 	pop	{r4, r5, r6, r7, pc}
    4db4:	00010eec 	.word	0x00010eec

00004db8 <vs_is_device>:
    4db8:	e52de004 	push	{lr}		; (str lr, [sp, #-4]!)
    4dbc:	e350000e 	cmp	r0, #14	; 0xe
    4dc0:	059f304c 	ldreq	r3, [pc, #76]	; 4e14 <vs_is_device+0x5c>
    4dc4:	e1a0c001 	mov	ip, r1
    4dc8:	e24dd004 	sub	sp, sp, #4	; 0x4
    4dcc:	05931000 	ldreq	r1, [r3]
    4dd0:	0a000004 	beq	4de8 <vs_is_device+0x30>
    4dd4:	e350000d 	cmp	r0, #13	; 0xd
    4dd8:	8a00000a 	bhi	4e08 <vs_is_device+0x50>
    4ddc:	e59f2034 	ldr	r2, [pc, #52]	; 4e18 <vs_is_device+0x60>
    4de0:	e3a0302c 	mov	r3, #44	; 0x2c
    4de4:	e0212093 	mla	r1, r3, r0, r2
    4de8:	e3510000 	cmp	r1, #0	; 0x0
    4dec:	0a000005 	beq	4e08 <vs_is_device+0x50>
    4df0:	e1a0000c 	mov	r0, ip
    4df4:	e3a02010 	mov	r2, #16	; 0x10
    4df8:	ebfff11a 	bl	1268 <strncmp>
    4dfc:	e2700001 	rsbs	r0, r0, #1	; 0x1
    4e00:	33a00000 	movcc	r0, #0	; 0x0
    4e04:	ea000000 	b	4e0c <vs_is_device+0x54>
    4e08:	e3a00000 	mov	r0, #0	; 0x0
    4e0c:	e28dd004 	add	sp, sp, #4	; 0x4
    4e10:	e8bd8000 	pop	{pc}
    4e14:	0800d1f8 	.word	0x0800d1f8
    4e18:	00010eec 	.word	0x00010eec

00004e1c <vs_read>:
    4e1c:	e92d4ff0 	push	{r4, r5, r6, r7, r8, r9, sl, fp, lr}
    4e20:	e59f4238 	ldr	r4, [pc, #568]	; 5060 <vs_read+0x244>
    4e24:	e1a0b000 	mov	fp, r0
    4e28:	e5940000 	ldr	r0, [r4]
    4e2c:	e24dd024 	sub	sp, sp, #36	; 0x24
    4e30:	e3500000 	cmp	r0, #0	; 0x0
    4e34:	e1a06002 	mov	r6, r2
    4e38:	e1a07003 	mov	r7, r3
    4e3c:	e59d8048 	ldr	r8, [sp, #72]
    4e40:	03e05001 	mvneq	r5, #1	; 0x1
    4e44:	0a000082 	beq	5054 <vs_read+0x238>
    4e48:	e5903010 	ldr	r3, [r0, #16]
    4e4c:	e3530000 	cmp	r3, #0	; 0x0
    4e50:	03e05002 	mvneq	r5, #2	; 0x2
    4e54:	0a00007e 	beq	5054 <vs_read+0x238>
    4e58:	e3580000 	cmp	r8, #0	; 0x0
    4e5c:	01a05008 	moveq	r5, r8
    4e60:	0a00007b 	beq	5054 <vs_read+0x238>
    4e64:	e59f11f8 	ldr	r1, [pc, #504]	; 5064 <vs_read+0x248>
    4e68:	e3a02003 	mov	r2, #3	; 0x3
    4e6c:	ebfff0fd 	bl	1268 <strncmp>
    4e70:	e3500000 	cmp	r0, #0	; 0x0
    4e74:	1a00000a 	bne	4ea4 <vs_read+0x88>
    4e78:	e59d204c 	ldr	r2, [sp, #76]
    4e7c:	e58d8000 	str	r8, [sp]
    4e80:	e58d2004 	str	r2, [sp, #4]
    4e84:	e5941000 	ldr	r1, [r4]
    4e88:	e1a0000b 	mov	r0, fp
    4e8c:	e1a02006 	mov	r2, r6
    4e90:	e1a03007 	mov	r3, r7
    4e94:	e1a0e00f 	mov	lr, pc
    4e98:	e591f010 	ldr	pc, [r1, #16]
    4e9c:	e1a05000 	mov	r5, r0
    4ea0:	ea00006b 	b	5054 <vs_read+0x238>
    4ea4:	e3a0000e 	mov	r0, #14	; 0xe
    4ea8:	ebffff2d 	bl	4b64 <vs_align>
    4eac:	e2402001 	sub	r2, r0, #1	; 0x1
    4eb0:	e0124006 	ands	r4, r2, r6
    4eb4:	10644000 	rsbne	r4, r4, r0
    4eb8:	e0643008 	rsb	r3, r4, r8
    4ebc:	e0032002 	and	r2, r3, r2
    4ec0:	e1929004 	orrs	r9, r2, r4
    4ec4:	e1a0a000 	mov	sl, r0
    4ec8:	e58d3014 	str	r3, [sp, #20]
    4ecc:	e58d200c 	str	r2, [sp, #12]
    4ed0:	e58d9018 	str	r9, [sp, #24]
    4ed4:	01a05009 	moveq	r5, r9
    4ed8:	058d901c 	streq	r9, [sp, #28]
    4edc:	0a00002d 	beq	4f98 <vs_read+0x17c>
    4ee0:	ebfff17e 	bl	14e0 <malloc>
    4ee4:	e2502000 	subs	r2, r0, #0	; 0x0
    4ee8:	e58d201c 	str	r2, [sp, #28]
    4eec:	1a00000c 	bne	4f24 <vs_read+0x108>
    4ef0:	e59f4170 	ldr	r4, [pc, #368]	; 5068 <vs_read+0x24c>
    4ef4:	e59f0170 	ldr	r0, [pc, #368]	; 506c <vs_read+0x250>
    4ef8:	e3001112 	movw	r1, #274	; 0x112
    4efc:	e1a0e00f 	mov	lr, pc
    4f00:	e594f000 	ldr	pc, [r4]
    4f04:	e59f0164 	ldr	r0, [pc, #356]	; 5070 <vs_read+0x254>
    4f08:	e59f1164 	ldr	r1, [pc, #356]	; 5074 <vs_read+0x258>
    4f0c:	e1a0e00f 	mov	lr, pc
    4f10:	e594f000 	ldr	pc, [r4]
    4f14:	e59f015c 	ldr	r0, [pc, #348]	; 5078 <vs_read+0x25c>
    4f18:	e1a0e00f 	mov	lr, pc
    4f1c:	e594f000 	ldr	pc, [r4]
    4f20:	eafffffe 	b	4f20 <vs_read+0x104>
    4f24:	e3540000 	cmp	r4, #0	; 0x0
    4f28:	01a05004 	moveq	r5, r4
    4f2c:	0a000019 	beq	4f98 <vs_read+0x17c>
    4f30:	e59d804c 	ldr	r8, [sp, #76]
    4f34:	e59f2124 	ldr	r2, [pc, #292]	; 5060 <vs_read+0x244>
    4f38:	e26a3000 	rsb	r3, sl, #0	; 0x0
    4f3c:	e5921000 	ldr	r1, [r2]
    4f40:	e3a09000 	mov	r9, #0	; 0x0
    4f44:	e58d8004 	str	r8, [sp, #4]
    4f48:	e0068003 	and	r8, r6, r3
    4f4c:	e58da000 	str	sl, [sp]
    4f50:	e1a02008 	mov	r2, r8
    4f54:	e1a03009 	mov	r3, r9
    4f58:	e1a0e00f 	mov	lr, pc
    4f5c:	e591f010 	ldr	pc, [r1, #16]
    4f60:	e2505000 	subs	r5, r0, #0	; 0x0
    4f64:	ba000038 	blt	504c <vs_read+0x230>
    4f68:	e59d901c 	ldr	r9, [sp, #28]
    4f6c:	e064100a 	rsb	r1, r4, sl
    4f70:	e1a0000b 	mov	r0, fp
    4f74:	e0891001 	add	r1, r9, r1
    4f78:	e1a02004 	mov	r2, r4
    4f7c:	ebfff0f2 	bl	134c <memcpy>
    4f80:	e1550004 	cmp	r5, r4
    4f84:	21a05004 	movcs	r5, r4
    4f88:	e59d8014 	ldr	r8, [sp, #20]
    4f8c:	e0966004 	adds	r6, r6, r4
    4f90:	e2a77000 	adc	r7, r7, #0	; 0x0
    4f94:	e08bb004 	add	fp, fp, r4
    4f98:	e59d200c 	ldr	r2, [sp, #12]
    4f9c:	e0584002 	subs	r4, r8, r2
    4fa0:	0a00000f 	beq	4fe4 <vs_read+0x1c8>
    4fa4:	e59f30b4 	ldr	r3, [pc, #180]	; 5060 <vs_read+0x244>
    4fa8:	e58d4000 	str	r4, [sp]
    4fac:	e5931000 	ldr	r1, [r3]
    4fb0:	e59d304c 	ldr	r3, [sp, #76]
    4fb4:	e1a0000b 	mov	r0, fp
    4fb8:	e58d3004 	str	r3, [sp, #4]
    4fbc:	e1a02006 	mov	r2, r6
    4fc0:	e1a03007 	mov	r3, r7
    4fc4:	e1a0e00f 	mov	lr, pc
    4fc8:	e591f010 	ldr	pc, [r1, #16]
    4fcc:	e3500000 	cmp	r0, #0	; 0x0
    4fd0:	ba000012 	blt	5020 <vs_read+0x204>
    4fd4:	e0966004 	adds	r6, r6, r4
    4fd8:	e0a77fc4 	adc	r7, r7, r4, asr #31
    4fdc:	e0855000 	add	r5, r5, r0
    4fe0:	e08bb004 	add	fp, fp, r4
    4fe4:	e59d800c 	ldr	r8, [sp, #12]
    4fe8:	e3580000 	cmp	r8, #0	; 0x0
    4fec:	0a000013 	beq	5040 <vs_read+0x224>
    4ff0:	e59d904c 	ldr	r9, [sp, #76]
    4ff4:	e59f3064 	ldr	r3, [pc, #100]	; 5060 <vs_read+0x244>
    4ff8:	e58da000 	str	sl, [sp]
    4ffc:	e58d9004 	str	r9, [sp, #4]
    5000:	e5931000 	ldr	r1, [r3]
    5004:	e1a02006 	mov	r2, r6
    5008:	e1a03007 	mov	r3, r7
    500c:	e59d001c 	ldr	r0, [sp, #28]
    5010:	e1a0e00f 	mov	lr, pc
    5014:	e591f010 	ldr	pc, [r1, #16]
    5018:	e3500000 	cmp	r0, #0	; 0x0
    501c:	aa000001 	bge	5028 <vs_read+0x20c>
    5020:	e1a05000 	mov	r5, r0
    5024:	ea000005 	b	5040 <vs_read+0x224>
    5028:	e59d200c 	ldr	r2, [sp, #12]
    502c:	e1a0000b 	mov	r0, fp
    5030:	e59d101c 	ldr	r1, [sp, #28]
    5034:	ebfff0c4 	bl	134c <memcpy>
    5038:	e59d200c 	ldr	r2, [sp, #12]
    503c:	e0855002 	add	r5, r5, r2
    5040:	e59d3018 	ldr	r3, [sp, #24]
    5044:	e3530000 	cmp	r3, #0	; 0x0
    5048:	0a000001 	beq	5054 <vs_read+0x238>
    504c:	e59d001c 	ldr	r0, [sp, #28]
    5050:	ebfff18a 	bl	1680 <free>
    5054:	e1a00005 	mov	r0, r5
    5058:	e28dd024 	add	sp, sp, #36	; 0x24
    505c:	e8bd8ff0 	pop	{r4, r5, r6, r7, r8, r9, sl, fp, pc}
    5060:	0800d1f8 	.word	0x0800d1f8
    5064:	00012e83 	.word	0x00012e83
    5068:	0800d76c 	.word	0x0800d76c
    506c:	00012e87 	.word	0x00012e87
    5070:	00011d14 	.word	0x00011d14
    5074:	00012e99 	.word	0x00012e99
    5078:	00012ea4 	.word	0x00012ea4

0000507c <vs_reset>:
    507c:	e92d4010 	push	{r4, lr}
    5080:	e59f402c 	ldr	r4, [pc, #44]	; 50b4 <vs_reset+0x38>
    5084:	e5940000 	ldr	r0, [r4]
    5088:	ebffef49 	bl	db4 <cpu_recase>
    508c:	e5944000 	ldr	r4, [r4]
    5090:	e3540000 	cmp	r4, #0	; 0x0
    5094:	03e00001 	mvneq	r0, #1	; 0x1
    5098:	08bd8010 	popeq	{r4, pc}
    509c:	e5944018 	ldr	r4, [r4, #24]
    50a0:	e3540000 	cmp	r4, #0	; 0x0
    50a4:	03e00002 	mvneq	r0, #2	; 0x2
    50a8:	08bd8010 	popeq	{r4, pc}
    50ac:	e12fff34 	blx	r4
    50b0:	e8bd8010 	pop	{r4, pc}
    50b4:	0800d1f8 	.word	0x0800d1f8

000050b8 <vs_assign_by_id>:
    50b8:	e52de004 	push	{lr}		; (str lr, [sp, #-4]!)
    50bc:	e59fc05c 	ldr	ip, [pc, #92]	; 5120 <vs_assign_by_id+0x68>
    50c0:	e3a03000 	mov	r3, #0	; 0x0
    50c4:	e350000d 	cmp	r0, #13	; 0xd
    50c8:	e24dd004 	sub	sp, sp, #4	; 0x4
    50cc:	e58c3000 	str	r3, [ip]
    50d0:	8a00000b 	bhi	5104 <vs_assign_by_id+0x4c>
    50d4:	e59f2048 	ldr	r2, [pc, #72]	; 5124 <vs_assign_by_id+0x6c>
    50d8:	e283302c 	add	r3, r3, #44	; 0x2c
    50dc:	e0232093 	mla	r3, r3, r0, r2
    50e0:	e3510000 	cmp	r1, #0	; 0x0
    50e4:	e58c3000 	str	r3, [ip]
    50e8:	01a00001 	moveq	r0, r1
    50ec:	0a000002 	beq	50fc <vs_assign_by_id+0x44>
    50f0:	e28dd004 	add	sp, sp, #4	; 0x4
    50f4:	e49de004 	pop	{lr}		; (ldr lr, [sp], #4)
    50f8:	eaffffdf 	b	507c <vs_reset>
    50fc:	e28dd004 	add	sp, sp, #4	; 0x4
    5100:	e8bd8000 	pop	{pc}
    5104:	e1a01000 	mov	r1, r0
    5108:	e59f3018 	ldr	r3, [pc, #24]	; 5128 <vs_assign_by_id+0x70>
    510c:	e59f0018 	ldr	r0, [pc, #24]	; 512c <vs_assign_by_id+0x74>
    5110:	e1a0e00f 	mov	lr, pc
    5114:	e593f000 	ldr	pc, [r3]
    5118:	e3e00000 	mvn	r0, #0	; 0x0
    511c:	eafffff6 	b	50fc <vs_assign_by_id+0x44>
    5120:	0800d1f8 	.word	0x0800d1f8
    5124:	00010eec 	.word	0x00010eec
    5128:	0800d76c 	.word	0x0800d76c
    512c:	00012ed5 	.word	0x00012ed5

00005130 <vs_assign_by_name>:
    5130:	e92d45f0 	push	{r4, r5, r6, r7, r8, sl, lr}
    5134:	e59f3084 	ldr	r3, [pc, #132]	; 51c0 <vs_assign_by_name+0x90>
    5138:	e3a02000 	mov	r2, #0	; 0x0
    513c:	e24dd004 	sub	sp, sp, #4	; 0x4
    5140:	e5832000 	str	r2, [r3]
    5144:	e1a06000 	mov	r6, r0
    5148:	e1a07001 	mov	r7, r1
    514c:	e1a04002 	mov	r4, r2
    5150:	e3a0a02c 	mov	sl, #44	; 0x2c
    5154:	e59f8068 	ldr	r8, [pc, #104]	; 51c4 <vs_assign_by_name+0x94>
    5158:	ea00000d 	b	5194 <vs_assign_by_name+0x64>
    515c:	e025849a 	mla	r5, sl, r4, r8
    5160:	e1a00005 	mov	r0, r5
    5164:	ebfff03f 	bl	1268 <strncmp>
    5168:	e3500000 	cmp	r0, #0	; 0x0
    516c:	1a000007 	bne	5190 <vs_assign_by_name+0x60>
    5170:	e59f3048 	ldr	r3, [pc, #72]	; 51c0 <vs_assign_by_name+0x90>
    5174:	e3570000 	cmp	r7, #0	; 0x0
    5178:	e5835000 	str	r5, [r3]
    517c:	01a00007 	moveq	r0, r7
    5180:	0a00000c 	beq	51b8 <vs_assign_by_name+0x88>
    5184:	e28dd004 	add	sp, sp, #4	; 0x4
    5188:	e8bd45f0 	pop	{r4, r5, r6, r7, r8, sl, lr}
    518c:	eaffffba 	b	507c <vs_reset>
    5190:	e2844001 	add	r4, r4, #1	; 0x1
    5194:	e354000e 	cmp	r4, #14	; 0xe
    5198:	e1a01006 	mov	r1, r6
    519c:	e3a02010 	mov	r2, #16	; 0x10
    51a0:	1affffed 	bne	515c <vs_assign_by_name+0x2c>
    51a4:	e59f001c 	ldr	r0, [pc, #28]	; 51c8 <vs_assign_by_name+0x98>
    51a8:	e59f301c 	ldr	r3, [pc, #28]	; 51cc <vs_assign_by_name+0x9c>
    51ac:	e1a0e00f 	mov	lr, pc
    51b0:	e593f000 	ldr	pc, [r3]
    51b4:	e3e00000 	mvn	r0, #0	; 0x0
    51b8:	e28dd004 	add	sp, sp, #4	; 0x4
    51bc:	e8bd85f0 	pop	{r4, r5, r6, r7, r8, sl, pc}
    51c0:	0800d1f8 	.word	0x0800d1f8
    51c4:	00010eec 	.word	0x00010eec
    51c8:	00012eee 	.word	0x00012eee
    51cc:	0800d76c 	.word	0x0800d76c

000051d0 <ss_lock_isk>:
    51d0:	e52de004 	push	{lr}		; (str lr, [sp, #-4]!)
    51d4:	e24dd004 	sub	sp, sp, #4	; 0x4
    51d8:	eb0001d5 	bl	5934 <security_enabled>
    51dc:	e3500000 	cmp	r0, #0	; 0x0
    51e0:	0a000002 	beq	51f0 <ss_lock_isk+0x20>
    51e4:	e28dd004 	add	sp, sp, #4	; 0x4
    51e8:	e49de004 	pop	{lr}		; (ldr lr, [sp], #4)
    51ec:	ea00002e 	b	52ac <block_cipher_lock_isk>
    51f0:	e28dd004 	add	sp, sp, #4	; 0x4
    51f4:	e8bd8000 	pop	{pc}

000051f8 <ss_aes_data>:
    51f8:	e92d4070 	push	{r4, r5, r6, lr}
    51fc:	e1a05000 	mov	r5, r0
    5200:	e1a06001 	mov	r6, r1
    5204:	e1a04002 	mov	r4, r2
    5208:	eb0001c9 	bl	5934 <security_enabled>
    520c:	e3500000 	cmp	r0, #0	; 0x0
    5210:	0a000007 	beq	5234 <ss_aes_data+0x3c>
    5214:	e284200f 	add	r2, r4, #15	; 0xf
    5218:	e1a00005 	mov	r0, r5
    521c:	e1a01006 	mov	r1, r6
    5220:	e3c2200f 	bic	r2, r2, #15	; 0xf
    5224:	eb0000a0 	bl	54ac <block_cipher_operation>
    5228:	e3500000 	cmp	r0, #0	; 0x0
    522c:	13e00000 	mvnne	r0, #0	; 0x0
    5230:	18bd8070 	popne	{r4, r5, r6, pc}
    5234:	e3a00000 	mov	r0, #0	; 0x0
    5238:	e8bd8070 	pop	{r4, r5, r6, pc}

0000523c <ss_aes_init>:
    523c:	e92d4070 	push	{r4, r5, r6, lr}
    5240:	e1a05000 	mov	r5, r0
    5244:	e1a04001 	mov	r4, r1
    5248:	e1a06002 	mov	r6, r2
    524c:	eb0001b8 	bl	5934 <security_enabled>
    5250:	e3500000 	cmp	r0, #0	; 0x0
    5254:	0a00000b 	beq	5288 <ss_aes_init+0x4c>
    5258:	e3540000 	cmp	r4, #0	; 0x0
    525c:	01a00005 	moveq	r0, r5
    5260:	01a02004 	moveq	r2, r4
    5264:	01a03006 	moveq	r3, r6
    5268:	03a01001 	moveq	r1, #1	; 0x1
    526c:	11a00005 	movne	r0, r5
    5270:	11a02004 	movne	r2, r4
    5274:	11a03006 	movne	r3, r6
    5278:	13a01000 	movne	r1, #0	; 0x0
    527c:	eb00002c 	bl	5334 <block_cipher_aes_init>
    5280:	e3500000 	cmp	r0, #0	; 0x0
    5284:	1a000001 	bne	5290 <ss_aes_init+0x54>
    5288:	e3a00000 	mov	r0, #0	; 0x0
    528c:	e8bd8070 	pop	{r4, r5, r6, pc}
    5290:	e3e00000 	mvn	r0, #0	; 0x0
    5294:	e8bd8070 	pop	{r4, r5, r6, pc}

00005298 <check_register_bit>:
    5298:	e3a03001 	mov	r3, #1	; 0x1
    529c:	e0103113 	ands	r3, r0, r3, lsl r1
    52a0:	03a00000 	moveq	r0, #0	; 0x0
    52a4:	13a00001 	movne	r0, #1	; 0x1
    52a8:	e12fff1e 	bx	lr

000052ac <block_cipher_lock_isk>:
    52ac:	e59f200c 	ldr	r2, [pc, #12]	; 52c0 <block_cipher_lock_isk+0x14>
    52b0:	e5923400 	ldr	r3, [r2, #1024]
    52b4:	e3833706 	orr	r3, r3, #1572864	; 0x180000
    52b8:	e5823400 	str	r3, [r2, #1024]
    52bc:	e12fff1e 	bx	lr
    52c0:	27700000 	.word	0x27700000

000052c4 <block_cipher_reset>:
    52c4:	e92d40f0 	push	{r4, r5, r6, r7, lr}
    52c8:	e59f4060 	ldr	r4, [pc, #96]	; 5330 <block_cipher_reset+0x6c>
    52cc:	e3a03102 	mov	r3, #-2147483648	; 0x80000000
    52d0:	e5843400 	str	r3, [r4, #1024]
    52d4:	e24dd004 	sub	sp, sp, #4	; 0x4
    52d8:	eb000d4d 	bl	8814 <get_ticks>
    52dc:	e3a06e7d 	mov	r6, #2000	; 0x7d0
    52e0:	e3a07000 	mov	r7, #0	; 0x0
    52e4:	e0966000 	adds	r6, r6, r0
    52e8:	e1a05004 	mov	r5, r4
    52ec:	e0a77001 	adc	r7, r7, r1
    52f0:	e5944400 	ldr	r4, [r4, #1024]
    52f4:	ea000008 	b	531c <block_cipher_reset+0x58>
    52f8:	e5954400 	ldr	r4, [r5, #1024]
    52fc:	eb000d44 	bl	8814 <get_ticks>
    5300:	e1510007 	cmp	r1, r7
    5304:	8a000002 	bhi	5314 <block_cipher_reset+0x50>
    5308:	1a000003 	bne	531c <block_cipher_reset+0x58>
    530c:	e1500006 	cmp	r0, r6
    5310:	9a000001 	bls	531c <block_cipher_reset+0x58>
    5314:	e3a00001 	mov	r0, #1	; 0x1
    5318:	ea000002 	b	5328 <block_cipher_reset+0x64>
    531c:	e3540000 	cmp	r4, #0	; 0x0
    5320:	bafffff4 	blt	52f8 <block_cipher_reset+0x34>
    5324:	e3a00000 	mov	r0, #0	; 0x0
    5328:	e28dd004 	add	sp, sp, #4	; 0x4
    532c:	e8bd80f0 	pop	{r4, r5, r6, r7, pc}
    5330:	27700000 	.word	0x27700000

00005334 <block_cipher_aes_init>:
    5334:	e92d40f0 	push	{r4, r5, r6, r7, lr}
    5338:	e24dd004 	sub	sp, sp, #4	; 0x4
    533c:	e1a05000 	mov	r5, r0
    5340:	e1a04001 	mov	r4, r1
    5344:	e1a06002 	mov	r6, r2
    5348:	e1a07003 	mov	r7, r3
    534c:	ebffffdc 	bl	52c4 <block_cipher_reset>
    5350:	e3500000 	cmp	r0, #0	; 0x0
    5354:	1a00003d 	bne	5450 <block_cipher_aes_init+0x11c>
    5358:	e59f3134 	ldr	r3, [pc, #308]	; 5494 <block_cipher_aes_init+0x160>
    535c:	e3a02001 	mov	r2, #1	; 0x1
    5360:	e3550001 	cmp	r5, #1	; 0x1
    5364:	e5832404 	str	r2, [r3, #1028]
    5368:	8a000038 	bhi	5450 <block_cipher_aes_init+0x11c>
    536c:	e3540003 	cmp	r4, #3	; 0x3
    5370:	13540000 	cmpne	r4, #0	; 0x0
    5374:	0a000001 	beq	5380 <block_cipher_aes_init+0x4c>
    5378:	e1540002 	cmp	r4, r2
    537c:	1a000033 	bne	5450 <block_cipher_aes_init+0x11c>
    5380:	e1a03305 	lsl	r3, r5, #6
    5384:	e3833901 	orr	r3, r3, #16384	; 0x4000
    5388:	e3833004 	orr	r3, r3, #4	; 0x4
    538c:	e59f2100 	ldr	r2, [pc, #256]	; 5494 <block_cipher_aes_init+0x160>
    5390:	e1833984 	orr	r3, r3, r4, lsl #19
    5394:	e3540000 	cmp	r4, #0	; 0x0
    5398:	e5823400 	str	r3, [r2, #1024]
    539c:	1a000008 	bne	53c4 <block_cipher_aes_init+0x90>
    53a0:	e59f10f0 	ldr	r1, [pc, #240]	; 5498 <block_cipher_aes_init+0x164>
    53a4:	e59f00f0 	ldr	r0, [pc, #240]	; 549c <block_cipher_aes_init+0x168>
    53a8:	e59f30f0 	ldr	r3, [pc, #240]	; 54a0 <block_cipher_aes_init+0x16c>
    53ac:	e0862001 	add	r2, r6, r1
    53b0:	e0823003 	add	r3, r2, r3
    53b4:	e5933000 	ldr	r3, [r3]
    53b8:	e4813004 	str	r3, [r1], #4
    53bc:	e1510000 	cmp	r1, r0
    53c0:	1afffff8 	bne	53a8 <block_cipher_aes_init+0x74>
    53c4:	e59f10d0 	ldr	r1, [pc, #208]	; 549c <block_cipher_aes_init+0x168>
    53c8:	e59f00d4 	ldr	r0, [pc, #212]	; 54a4 <block_cipher_aes_init+0x170>
    53cc:	e59f30d4 	ldr	r3, [pc, #212]	; 54a8 <block_cipher_aes_init+0x174>
    53d0:	e0872001 	add	r2, r7, r1
    53d4:	e0823003 	add	r3, r2, r3
    53d8:	e5933000 	ldr	r3, [r3]
    53dc:	e4813004 	str	r3, [r1], #4
    53e0:	e1510000 	cmp	r1, r0
    53e4:	1afffff8 	bne	53cc <block_cipher_aes_init+0x98>
    53e8:	e3540000 	cmp	r4, #0	; 0x0
    53ec:	1a000008 	bne	5414 <block_cipher_aes_init+0xe0>
    53f0:	eb000d07 	bl	8814 <get_ticks>
    53f4:	e3a04ffa 	mov	r4, #1000	; 0x3e8
    53f8:	e3a05000 	mov	r5, #0	; 0x0
    53fc:	e0944000 	adds	r4, r4, r0
    5400:	e59f608c 	ldr	r6, [pc, #140]	; 5494 <block_cipher_aes_init+0x160>
    5404:	e0a55001 	adc	r5, r5, r1
    5408:	e596340c 	ldr	r3, [r6, #1036]
    540c:	e3130008 	tst	r3, #8	; 0x8
    5410:	0a000011 	beq	545c <block_cipher_aes_init+0x128>
    5414:	eb000cfe 	bl	8814 <get_ticks>
    5418:	e3a04ffa 	mov	r4, #1000	; 0x3e8
    541c:	e3a05000 	mov	r5, #0	; 0x0
    5420:	e0944000 	adds	r4, r4, r0
    5424:	e59f6068 	ldr	r6, [pc, #104]	; 5494 <block_cipher_aes_init+0x160>
    5428:	e0a55001 	adc	r5, r5, r1
    542c:	e596340c 	ldr	r3, [r6, #1036]
    5430:	e59f205c 	ldr	r2, [pc, #92]	; 5494 <block_cipher_aes_init+0x160>
    5434:	e3130010 	tst	r3, #16	; 0x10
    5438:	0a00000e 	beq	5478 <block_cipher_aes_init+0x144>
    543c:	e5923400 	ldr	r3, [r2, #1024]
    5440:	e3a00000 	mov	r0, #0	; 0x0
    5444:	e3833001 	orr	r3, r3, #1	; 0x1
    5448:	e5823400 	str	r3, [r2, #1024]
    544c:	ea000000 	b	5454 <block_cipher_aes_init+0x120>
    5450:	e3a00001 	mov	r0, #1	; 0x1
    5454:	e28dd004 	add	sp, sp, #4	; 0x4
    5458:	e8bd80f0 	pop	{r4, r5, r6, r7, pc}
    545c:	eb000cec 	bl	8814 <get_ticks>
    5460:	e1510005 	cmp	r1, r5
    5464:	8afffff9 	bhi	5450 <block_cipher_aes_init+0x11c>
    5468:	1affffe6 	bne	5408 <block_cipher_aes_init+0xd4>
    546c:	e1500004 	cmp	r0, r4
    5470:	8afffff6 	bhi	5450 <block_cipher_aes_init+0x11c>
    5474:	eaffffe3 	b	5408 <block_cipher_aes_init+0xd4>
    5478:	eb000ce5 	bl	8814 <get_ticks>
    547c:	e1510005 	cmp	r1, r5
    5480:	8afffff2 	bhi	5450 <block_cipher_aes_init+0x11c>
    5484:	1affffe8 	bne	542c <block_cipher_aes_init+0xf8>
    5488:	e1500004 	cmp	r0, r4
    548c:	8affffef 	bhi	5450 <block_cipher_aes_init+0x11c>
    5490:	eaffffe5 	b	542c <block_cipher_aes_init+0xf8>
    5494:	27700000 	.word	0x27700000
    5498:	27700420 	.word	0x27700420
    549c:	27700440 	.word	0x27700440
    54a0:	d88ffbe0 	.word	0xd88ffbe0
    54a4:	27700450 	.word	0x27700450
    54a8:	d88ffbc0 	.word	0xd88ffbc0

000054ac <block_cipher_operation>:
    54ac:	e92d4ff0 	push	{r4, r5, r6, r7, r8, r9, sl, fp, lr}
    54b0:	e24dd00c 	sub	sp, sp, #12	; 0xc
    54b4:	e1a08002 	mov	r8, r2
    54b8:	e58d0004 	str	r0, [sp, #4]
    54bc:	e1a09001 	mov	r9, r1
    54c0:	e1a06002 	mov	r6, r2
    54c4:	e59fa0c4 	ldr	sl, [pc, #196]	; 5590 <block_cipher_operation+0xe4>
    54c8:	e3a0b000 	mov	fp, #0	; 0x0
    54cc:	ea000028 	b	5574 <block_cipher_operation+0xc8>
    54d0:	e59d3004 	ldr	r3, [sp, #4]
    54d4:	e3560902 	cmp	r6, #32768	; 0x8000
    54d8:	b1a07006 	movlt	r7, r6
    54dc:	a3a07902 	movge	r7, #32768	; 0x8000
    54e0:	e0664008 	rsb	r4, r6, r8
    54e4:	e3a00000 	mov	r0, #0	; 0x0
    54e8:	e0831004 	add	r1, r3, r4
    54ec:	e1a02007 	mov	r2, r7
    54f0:	eb0000ed 	bl	58ac <dma_sdma_init>
    54f4:	e3500000 	cmp	r0, #0	; 0x0
    54f8:	1a000021 	bne	5584 <block_cipher_operation+0xd8>
    54fc:	e0891004 	add	r1, r9, r4
    5500:	e2800001 	add	r0, r0, #1	; 0x1
    5504:	e1a02007 	mov	r2, r7
    5508:	eb0000e7 	bl	58ac <dma_sdma_init>
    550c:	e3500000 	cmp	r0, #0	; 0x0
    5510:	1a00001b 	bne	5584 <block_cipher_operation+0xd8>
    5514:	eb0000d4 	bl	586c <dma_start>
    5518:	e3a00001 	mov	r0, #1	; 0x1
    551c:	eb0000d2 	bl	586c <dma_start>
    5520:	eb000cbb 	bl	8814 <get_ticks>
    5524:	e090400a 	adds	r4, r0, sl
    5528:	e0a1500b 	adc	r5, r1, fp
    552c:	ea000005 	b	5548 <block_cipher_operation+0x9c>
    5530:	eb000cb7 	bl	8814 <get_ticks>
    5534:	e1510005 	cmp	r1, r5
    5538:	8a000011 	bhi	5584 <block_cipher_operation+0xd8>
    553c:	1a000001 	bne	5548 <block_cipher_operation+0x9c>
    5540:	e1500004 	cmp	r0, r4
    5544:	8a00000e 	bhi	5584 <block_cipher_operation+0xd8>
    5548:	e3a01003 	mov	r1, #3	; 0x3
    554c:	e3a00001 	mov	r0, #1	; 0x1
    5550:	eb0000cb 	bl	5884 <dma_get_status>
    5554:	e3500000 	cmp	r0, #0	; 0x0
    5558:	0afffff4 	beq	5530 <block_cipher_operation+0x84>
    555c:	e3a00000 	mov	r0, #0	; 0x0
    5560:	e3a01003 	mov	r1, #3	; 0x3
    5564:	eb0000c6 	bl	5884 <dma_get_status>
    5568:	e3500000 	cmp	r0, #0	; 0x0
    556c:	0a000004 	beq	5584 <block_cipher_operation+0xd8>
    5570:	e0676006 	rsb	r6, r7, r6
    5574:	e3560000 	cmp	r6, #0	; 0x0
    5578:	1affffd4 	bne	54d0 <block_cipher_operation+0x24>
    557c:	e1a00006 	mov	r0, r6
    5580:	ea000000 	b	5588 <block_cipher_operation+0xdc>
    5584:	e3a00001 	mov	r0, #1	; 0x1
    5588:	e28dd00c 	add	sp, sp, #12	; 0xc
    558c:	e8bd8ff0 	pop	{r4, r5, r6, r7, r8, r9, sl, fp, pc}
    5590:	000f4240 	.word	0x000f4240

00005594 <hash_len>:
    5594:	e59f300c 	ldr	r3, [pc, #12]	; 55a8 <hash_len+0x14>
    5598:	e5932000 	ldr	r2, [r3]
    559c:	e59f3008 	ldr	r3, [pc, #8]	; 55ac <hash_len+0x18>
    55a0:	e7930202 	ldr	r0, [r3, r2, lsl #4]
    55a4:	e12fff1e 	bx	lr
    55a8:	0800d1fc 	.word	0x0800d1fc
    55ac:	00011154 	.word	0x00011154

000055b0 <hash_value>:
    55b0:	e92d4070 	push	{r4, r5, r6, lr}
    55b4:	e59f6054 	ldr	r6, [pc, #84]	; 5610 <hash_value+0x60>
    55b8:	e1a05000 	mov	r5, r0
    55bc:	e5963000 	ldr	r3, [r6]
    55c0:	e3530000 	cmp	r3, #0	; 0x0
    55c4:	0a000009 	beq	55f0 <hash_value+0x40>
    55c8:	eb0000d9 	bl	5934 <security_enabled>
    55cc:	e2504000 	subs	r4, r0, #0	; 0x0
    55d0:	1a000006 	bne	55f0 <hash_value+0x40>
    55d4:	e59f0038 	ldr	r0, [pc, #56]	; 5614 <hash_value+0x64>
    55d8:	e5961000 	ldr	r1, [r6]
    55dc:	e59f3034 	ldr	r3, [pc, #52]	; 5618 <hash_value+0x68>
    55e0:	e1a0e00f 	mov	lr, pc
    55e4:	e593f000 	ldr	pc, [r3]
    55e8:	e1a00004 	mov	r0, r4
    55ec:	e8bd8070 	pop	{r4, r5, r6, pc}
    55f0:	e59f3018 	ldr	r3, [pc, #24]	; 5610 <hash_value+0x60>
    55f4:	e1a00005 	mov	r0, r5
    55f8:	e5932000 	ldr	r2, [r3]
    55fc:	e59f3018 	ldr	r3, [pc, #24]	; 561c <hash_value+0x6c>
    5600:	e0833202 	add	r3, r3, r2, lsl #4
    5604:	e1a0e00f 	mov	lr, pc
    5608:	e593f00c 	ldr	pc, [r3, #12]
    560c:	e8bd8070 	pop	{r4, r5, r6, pc}
    5610:	0800d1fc 	.word	0x0800d1fc
    5614:	00012f09 	.word	0x00012f09
    5618:	0800d76c 	.word	0x0800d76c
    561c:	00011154 	.word	0x00011154

00005620 <hash_data>:
    5620:	e92d40f0 	push	{r4, r5, r6, r7, lr}
    5624:	e59f5074 	ldr	r5, [pc, #116]	; 56a0 <hash_data+0x80>
    5628:	e24dd004 	sub	sp, sp, #4	; 0x4
    562c:	e5953000 	ldr	r3, [r5]
    5630:	e1a06000 	mov	r6, r0
    5634:	e3530000 	cmp	r3, #0	; 0x0
    5638:	e1a07001 	mov	r7, r1
    563c:	0a000009 	beq	5668 <hash_data+0x48>
    5640:	eb0000bb 	bl	5934 <security_enabled>
    5644:	e2504000 	subs	r4, r0, #0	; 0x0
    5648:	1a000006 	bne	5668 <hash_data+0x48>
    564c:	e59f0050 	ldr	r0, [pc, #80]	; 56a4 <hash_data+0x84>
    5650:	e5951000 	ldr	r1, [r5]
    5654:	e59f304c 	ldr	r3, [pc, #76]	; 56a8 <hash_data+0x88>
    5658:	e1a0e00f 	mov	lr, pc
    565c:	e593f000 	ldr	pc, [r3]
    5660:	e1a00004 	mov	r0, r4
    5664:	ea00000b 	b	5698 <hash_data+0x78>
    5668:	e59f003c 	ldr	r0, [pc, #60]	; 56ac <hash_data+0x8c>
    566c:	e59f3034 	ldr	r3, [pc, #52]	; 56a8 <hash_data+0x88>
    5670:	e1a0e00f 	mov	lr, pc
    5674:	e593f000 	ldr	pc, [r3]
    5678:	e59f3020 	ldr	r3, [pc, #32]	; 56a0 <hash_data+0x80>
    567c:	e1a00006 	mov	r0, r6
    5680:	e5932000 	ldr	r2, [r3]
    5684:	e59f3024 	ldr	r3, [pc, #36]	; 56b0 <hash_data+0x90>
    5688:	e1a01007 	mov	r1, r7
    568c:	e0833202 	add	r3, r3, r2, lsl #4
    5690:	e1a0e00f 	mov	lr, pc
    5694:	e593f008 	ldr	pc, [r3, #8]
    5698:	e28dd004 	add	sp, sp, #4	; 0x4
    569c:	e8bd80f0 	pop	{r4, r5, r6, r7, pc}
    56a0:	0800d1fc 	.word	0x0800d1fc
    56a4:	00012f09 	.word	0x00012f09
    56a8:	0800d76c 	.word	0x0800d76c
    56ac:	00012f2a 	.word	0x00012f2a
    56b0:	00011154 	.word	0x00011154

000056b4 <hash_init>:
    56b4:	e92d40f0 	push	{r4, r5, r6, r7, lr}
    56b8:	e3500003 	cmp	r0, #3	; 0x3
    56bc:	e24dd004 	sub	sp, sp, #4	; 0x4
    56c0:	e1a04000 	mov	r4, r0
    56c4:	e1a07001 	mov	r7, r1
    56c8:	9a000005 	bls	56e4 <hash_init+0x30>
    56cc:	e59f0064 	ldr	r0, [pc, #100]	; 5738 <hash_init+0x84>
    56d0:	e59f3064 	ldr	r3, [pc, #100]	; 573c <hash_init+0x88>
    56d4:	e1a0e00f 	mov	lr, pc
    56d8:	e593f000 	ldr	pc, [r3]
    56dc:	e3e00000 	mvn	r0, #0	; 0x0
    56e0:	ea000012 	b	5730 <hash_init+0x7c>
    56e4:	e59f6054 	ldr	r6, [pc, #84]	; 5740 <hash_init+0x8c>
    56e8:	e3500000 	cmp	r0, #0	; 0x0
    56ec:	e5860000 	str	r0, [r6]
    56f0:	0a000009 	beq	571c <hash_init+0x68>
    56f4:	eb00008e 	bl	5934 <security_enabled>
    56f8:	e2505000 	subs	r5, r0, #0	; 0x0
    56fc:	1a000006 	bne	571c <hash_init+0x68>
    5700:	e59f003c 	ldr	r0, [pc, #60]	; 5744 <hash_init+0x90>
    5704:	e5961000 	ldr	r1, [r6]
    5708:	e59f302c 	ldr	r3, [pc, #44]	; 573c <hash_init+0x88>
    570c:	e1a0e00f 	mov	lr, pc
    5710:	e593f000 	ldr	pc, [r3]
    5714:	e1a00005 	mov	r0, r5
    5718:	ea000004 	b	5730 <hash_init+0x7c>
    571c:	e59f3024 	ldr	r3, [pc, #36]	; 5748 <hash_init+0x94>
    5720:	e1a00007 	mov	r0, r7
    5724:	e0833204 	add	r3, r3, r4, lsl #4
    5728:	e1a0e00f 	mov	lr, pc
    572c:	e593f004 	ldr	pc, [r3, #4]
    5730:	e28dd004 	add	sp, sp, #4	; 0x4
    5734:	e8bd80f0 	pop	{r4, r5, r6, r7, pc}
    5738:	00012f35 	.word	0x00012f35
    573c:	0800d76c 	.word	0x0800d76c
    5740:	0800d1fc 	.word	0x0800d1fc
    5744:	00012f09 	.word	0x00012f09
    5748:	00011154 	.word	0x00011154

0000574c <md5_value>:
    574c:	e92d4030 	push	{r4, r5, lr}
    5750:	e59f3054 	ldr	r3, [pc, #84]	; 57ac <md5_value+0x60>
    5754:	e1a05000 	mov	r5, r0
    5758:	e893000c 	ldm	r3, {r2, r3}
    575c:	e1823003 	orr	r3, r2, r3
    5760:	e24dd024 	sub	sp, sp, #36	; 0x24
    5764:	e3530000 	cmp	r3, #0	; 0x0
    5768:	13e00000 	mvnne	r0, #0	; 0x0
    576c:	1a00000c 	bne	57a4 <md5_value+0x58>
    5770:	e1a0000d 	mov	r0, sp
    5774:	eb000178 	bl	5d5c <hash_module_get_result>
    5778:	e3500000 	cmp	r0, #0	; 0x0
    577c:	e1a0400d 	mov	r4, sp
    5780:	13e00001 	mvnne	r0, #1	; 0x1
    5784:	1a000006 	bne	57a4 <md5_value+0x58>
    5788:	e1a0200d 	mov	r2, sp
    578c:	e7d23000 	ldrb	r3, [r2, r0]
    5790:	e7c53000 	strb	r3, [r5, r0]
    5794:	e2800001 	add	r0, r0, #1	; 0x1
    5798:	e3500010 	cmp	r0, #16	; 0x10
    579c:	1afffffa 	bne	578c <md5_value+0x40>
    57a0:	e3a00000 	mov	r0, #0	; 0x0
    57a4:	e28dd024 	add	sp, sp, #36	; 0x24
    57a8:	e8bd8030 	pop	{r4, r5, pc}
    57ac:	0800d200 	.word	0x0800d200

000057b0 <md5_data>:
    57b0:	e59f305c 	ldr	r3, [pc, #92]	; 5814 <md5_data+0x64>
    57b4:	e92d4070 	push	{r4, r5, r6, lr}
    57b8:	e1a06001 	mov	r6, r1
    57bc:	e5931004 	ldr	r1, [r3, #4]
    57c0:	e1a04006 	mov	r4, r6
    57c4:	e3a05000 	mov	r5, #0	; 0x0
    57c8:	e1550001 	cmp	r5, r1
    57cc:	e593c000 	ldr	ip, [r3]
    57d0:	8a000002 	bhi	57e0 <md5_data+0x30>
    57d4:	1a000003 	bne	57e8 <md5_data+0x38>
    57d8:	e154000c 	cmp	r4, ip
    57dc:	9a000001 	bls	57e8 <md5_data+0x38>
    57e0:	e3e00000 	mvn	r0, #0	; 0x0
    57e4:	e8bd8070 	pop	{r4, r5, r6, pc}
    57e8:	e1a0200c 	mov	r2, ip
    57ec:	e1a03001 	mov	r3, r1
    57f0:	e59fc01c 	ldr	ip, [pc, #28]	; 5814 <md5_data+0x64>
    57f4:	e0522004 	subs	r2, r2, r4
    57f8:	e0c33005 	sbc	r3, r3, r5
    57fc:	e1a01006 	mov	r1, r6
    5800:	e88c000c 	stm	ip, {r2, r3}
    5804:	eb0001b7 	bl	5ee8 <hash_dma_transfer>
    5808:	e3500000 	cmp	r0, #0	; 0x0
    580c:	13e00001 	mvnne	r0, #1	; 0x1
    5810:	e8bd8070 	pop	{r4, r5, r6, pc}
    5814:	0800d200 	.word	0x0800d200

00005818 <md5_init>:
    5818:	e1a03ea0 	lsr	r3, r0, #29
    581c:	e1a0c180 	lsl	ip, r0, #3
    5820:	e92d4010 	push	{r4, lr}
    5824:	e59f403c 	ldr	r4, [pc, #60]	; 5868 <md5_init+0x50>
    5828:	e1a0200c 	mov	r2, ip
    582c:	e1a01003 	mov	r1, r3
    5830:	e3a00000 	mov	r0, #0	; 0x0
    5834:	e5843004 	str	r3, [r4, #4]
    5838:	e584c000 	str	ip, [r4]
    583c:	eb00018d 	bl	5e78 <hash_module_init>
    5840:	e3500000 	cmp	r0, #0	; 0x0
    5844:	05942000 	ldreq	r2, [r4]
    5848:	05943004 	ldreq	r3, [r4, #4]
    584c:	01a021a2 	lsreq	r2, r2, #3
    5850:	01822e83 	orreq	r2, r2, r3, lsl #29
    5854:	01a031a3 	lsreq	r3, r3, #3
    5858:	13e00000 	mvnne	r0, #0	; 0x0
    585c:	05843004 	streq	r3, [r4, #4]
    5860:	05842000 	streq	r2, [r4]
    5864:	e8bd8010 	pop	{r4, pc}
    5868:	0800d200 	.word	0x0800d200

0000586c <dma_start>:
    586c:	e280099d 	add	r0, r0, #2572288	; 0x274000
    5870:	e2800a03 	add	r0, r0, #12288	; 0x3000
    5874:	e1a00400 	lsl	r0, r0, #8
    5878:	e3a03001 	mov	r3, #1	; 0x1
    587c:	e5803000 	str	r3, [r0]
    5880:	e12fff1e 	bx	lr

00005884 <dma_get_status>:
    5884:	e3a0c001 	mov	ip, #1	; 0x1
    5888:	e1a0211c 	lsl	r2, ip, r1
    588c:	e280099d 	add	r0, r0, #2572288	; 0x274000
    5890:	e2800a03 	add	r0, r0, #12288	; 0x3000
    5894:	e1a01400 	lsl	r1, r0, #8
    5898:	e5913024 	ldr	r3, [r1, #36]
    589c:	e0130002 	ands	r0, r3, r2
    58a0:	15812024 	strne	r2, [r1, #36]
    58a4:	11a0000c 	movne	r0, ip
    58a8:	e12fff1e 	bx	lr

000058ac <dma_sdma_init>:
    58ac:	e280c99d 	add	ip, r0, #2572288	; 0x274000
    58b0:	e28cca03 	add	ip, ip, #12288	; 0x3000
    58b4:	e1a0040c 	lsl	r0, ip, #8
    58b8:	e2800004 	add	r0, r0, #4	; 0x4
    58bc:	e5903000 	ldr	r3, [r0]
    58c0:	e3520801 	cmp	r2, #65536	; 0x10000
    58c4:	e3833001 	orr	r3, r3, #1	; 0x1
    58c8:	e5803000 	str	r3, [r0]
    58cc:	e92d4010 	push	{r4, lr}
    58d0:	e3a03341 	mov	r3, #67108865	; 0x4000001
    58d4:	e1a0440c 	lsl	r4, ip, #8
    58d8:	e584300c 	str	r3, [r4, #12]
    58dc:	31a02802 	lslcc	r2, r2, #16
    58e0:	31a0340c 	lslcc	r3, ip, #8
    58e4:	31a02822 	lsrcc	r2, r2, #16
    58e8:	32833010 	addcc	r3, r3, #16	; 0x10
    58ec:	35832000 	strcc	r2, [r3]
    58f0:	23a00001 	movcs	r0, #1	; 0x1
    58f4:	35841014 	strcc	r1, [r4, #20]
    58f8:	33a00000 	movcc	r0, #0	; 0x0
    58fc:	e8bd8010 	pop	{r4, pc}

00005900 <security_cke_control>:
    5900:	e59fc014 	ldr	ip, [pc, #20]	; 591c <security_cke_control+0x1c>
    5904:	e3a02001 	mov	r2, #1	; 0x1
    5908:	e59c3000 	ldr	r3, [ip]
    590c:	e1c33012 	bic	r3, r3, r2, lsl r0
    5910:	e1833011 	orr	r3, r3, r1, lsl r0
    5914:	e58c3000 	str	r3, [ip]
    5918:	e12fff1e 	bx	lr
    591c:	27702000 	.word	0x27702000

00005920 <security_enable>:
    5920:	e59f3008 	ldr	r3, [pc, #8]	; 5930 <security_enable+0x10>
    5924:	e3a02001 	mov	r2, #1	; 0x1
    5928:	e5832000 	str	r2, [r3]
    592c:	e12fff1e 	bx	lr
    5930:	0800d208 	.word	0x0800d208

00005934 <security_enabled>:
    5934:	e59f300c 	ldr	r3, [pc, #12]	; 5948 <security_enabled+0x14>
    5938:	e5930000 	ldr	r0, [r3]
    593c:	e2500000 	subs	r0, r0, #0	; 0x0
    5940:	13a00001 	movne	r0, #1	; 0x1
    5944:	e12fff1e 	bx	lr
    5948:	0800d208 	.word	0x0800d208

0000594c <dma_reset>:
    594c:	e92d40f0 	push	{r4, r5, r6, r7, lr}
    5950:	e280099d 	add	r0, r0, #2572288	; 0x274000
    5954:	e2800a03 	add	r0, r0, #12288	; 0x3000
    5958:	e1a07400 	lsl	r7, r0, #8
    595c:	e3a03002 	mov	r3, #2	; 0x2
    5960:	e24dd004 	sub	sp, sp, #4	; 0x4
    5964:	e5873000 	str	r3, [r7]
    5968:	eb000ba9 	bl	8814 <get_ticks>
    596c:	e3a04e7d 	mov	r4, #2000	; 0x7d0
    5970:	e3a05000 	mov	r5, #0	; 0x0
    5974:	e0944000 	adds	r4, r4, r0
    5978:	e0a55001 	adc	r5, r5, r1
    597c:	e5976000 	ldr	r6, [r7]
    5980:	ea000008 	b	59a8 <dma_reset+0x5c>
    5984:	e5976000 	ldr	r6, [r7]
    5988:	eb000ba1 	bl	8814 <get_ticks>
    598c:	e1510005 	cmp	r1, r5
    5990:	8a000002 	bhi	59a0 <dma_reset+0x54>
    5994:	1a000003 	bne	59a8 <dma_reset+0x5c>
    5998:	e1500004 	cmp	r0, r4
    599c:	9a000001 	bls	59a8 <dma_reset+0x5c>
    59a0:	e3a00001 	mov	r0, #1	; 0x1
    59a4:	ea000002 	b	59b4 <dma_reset+0x68>
    59a8:	e3560000 	cmp	r6, #0	; 0x0
    59ac:	1afffff4 	bne	5984 <dma_reset+0x38>
    59b0:	e1a00006 	mov	r0, r6
    59b4:	e28dd004 	add	sp, sp, #4	; 0x4
    59b8:	e8bd80f0 	pop	{r4, r5, r6, r7, pc}

000059bc <sha1_value>:
    59bc:	e92d4030 	push	{r4, r5, lr}
    59c0:	e59f3054 	ldr	r3, [pc, #84]	; 5a1c <sha1_value+0x60>
    59c4:	e1a05000 	mov	r5, r0
    59c8:	e893000c 	ldm	r3, {r2, r3}
    59cc:	e1823003 	orr	r3, r2, r3
    59d0:	e24dd024 	sub	sp, sp, #36	; 0x24
    59d4:	e3530000 	cmp	r3, #0	; 0x0
    59d8:	13e00000 	mvnne	r0, #0	; 0x0
    59dc:	1a00000c 	bne	5a14 <sha1_value+0x58>
    59e0:	e1a0000d 	mov	r0, sp
    59e4:	eb0000dc 	bl	5d5c <hash_module_get_result>
    59e8:	e3500000 	cmp	r0, #0	; 0x0
    59ec:	e1a0400d 	mov	r4, sp
    59f0:	13e00001 	mvnne	r0, #1	; 0x1
    59f4:	1a000006 	bne	5a14 <sha1_value+0x58>
    59f8:	e1a0200d 	mov	r2, sp
    59fc:	e7d23000 	ldrb	r3, [r2, r0]
    5a00:	e7c53000 	strb	r3, [r5, r0]
    5a04:	e2800001 	add	r0, r0, #1	; 0x1
    5a08:	e3500014 	cmp	r0, #20	; 0x14
    5a0c:	1afffffa 	bne	59fc <sha1_value+0x40>
    5a10:	e3a00000 	mov	r0, #0	; 0x0
    5a14:	e28dd024 	add	sp, sp, #36	; 0x24
    5a18:	e8bd8030 	pop	{r4, r5, pc}
    5a1c:	0800d210 	.word	0x0800d210

00005a20 <sha1_data>:
    5a20:	e59f305c 	ldr	r3, [pc, #92]	; 5a84 <sha1_data+0x64>
    5a24:	e92d4070 	push	{r4, r5, r6, lr}
    5a28:	e1a06001 	mov	r6, r1
    5a2c:	e5931004 	ldr	r1, [r3, #4]
    5a30:	e1a04006 	mov	r4, r6
    5a34:	e3a05000 	mov	r5, #0	; 0x0
    5a38:	e1550001 	cmp	r5, r1
    5a3c:	e593c000 	ldr	ip, [r3]
    5a40:	8a000002 	bhi	5a50 <sha1_data+0x30>
    5a44:	1a000003 	bne	5a58 <sha1_data+0x38>
    5a48:	e154000c 	cmp	r4, ip
    5a4c:	9a000001 	bls	5a58 <sha1_data+0x38>
    5a50:	e3e00000 	mvn	r0, #0	; 0x0
    5a54:	e8bd8070 	pop	{r4, r5, r6, pc}
    5a58:	e1a0200c 	mov	r2, ip
    5a5c:	e1a03001 	mov	r3, r1
    5a60:	e59fc01c 	ldr	ip, [pc, #28]	; 5a84 <sha1_data+0x64>
    5a64:	e0522004 	subs	r2, r2, r4
    5a68:	e0c33005 	sbc	r3, r3, r5
    5a6c:	e1a01006 	mov	r1, r6
    5a70:	e88c000c 	stm	ip, {r2, r3}
    5a74:	eb00011b 	bl	5ee8 <hash_dma_transfer>
    5a78:	e3500000 	cmp	r0, #0	; 0x0
    5a7c:	13e00001 	mvnne	r0, #1	; 0x1
    5a80:	e8bd8070 	pop	{r4, r5, r6, pc}
    5a84:	0800d210 	.word	0x0800d210

00005a88 <sha1_init>:
    5a88:	e1a03ea0 	lsr	r3, r0, #29
    5a8c:	e1a0c180 	lsl	ip, r0, #3
    5a90:	e92d4010 	push	{r4, lr}
    5a94:	e59f403c 	ldr	r4, [pc, #60]	; 5ad8 <sha1_init+0x50>
    5a98:	e1a0200c 	mov	r2, ip
    5a9c:	e1a01003 	mov	r1, r3
    5aa0:	e3a00001 	mov	r0, #1	; 0x1
    5aa4:	e5843004 	str	r3, [r4, #4]
    5aa8:	e584c000 	str	ip, [r4]
    5aac:	eb0000f1 	bl	5e78 <hash_module_init>
    5ab0:	e3500000 	cmp	r0, #0	; 0x0
    5ab4:	05942000 	ldreq	r2, [r4]
    5ab8:	05943004 	ldreq	r3, [r4, #4]
    5abc:	01a021a2 	lsreq	r2, r2, #3
    5ac0:	01822e83 	orreq	r2, r2, r3, lsl #29
    5ac4:	01a031a3 	lsreq	r3, r3, #3
    5ac8:	13e00000 	mvnne	r0, #0	; 0x0
    5acc:	05843004 	streq	r3, [r4, #4]
    5ad0:	05842000 	streq	r2, [r4]
    5ad4:	e8bd8010 	pop	{r4, pc}
    5ad8:	0800d210 	.word	0x0800d210

00005adc <sha256_value>:
    5adc:	e52de004 	push	{lr}		; (str lr, [sp, #-4]!)
    5ae0:	e59f3028 	ldr	r3, [pc, #40]	; 5b10 <sha256_value+0x34>
    5ae4:	e24dd004 	sub	sp, sp, #4	; 0x4
    5ae8:	e893000c 	ldm	r3, {r2, r3}
    5aec:	e1823003 	orr	r3, r2, r3
    5af0:	e3530000 	cmp	r3, #0	; 0x0
    5af4:	13e00000 	mvnne	r0, #0	; 0x0
    5af8:	1a000002 	bne	5b08 <sha256_value+0x2c>
    5afc:	eb000096 	bl	5d5c <hash_module_get_result>
    5b00:	e3500000 	cmp	r0, #0	; 0x0
    5b04:	13e00001 	mvnne	r0, #1	; 0x1
    5b08:	e28dd004 	add	sp, sp, #4	; 0x4
    5b0c:	e8bd8000 	pop	{pc}
    5b10:	0800d218 	.word	0x0800d218

00005b14 <sha256_data>:
    5b14:	e59f305c 	ldr	r3, [pc, #92]	; 5b78 <sha256_data+0x64>
    5b18:	e92d4070 	push	{r4, r5, r6, lr}
    5b1c:	e1a06001 	mov	r6, r1
    5b20:	e5931004 	ldr	r1, [r3, #4]
    5b24:	e1a04006 	mov	r4, r6
    5b28:	e3a05000 	mov	r5, #0	; 0x0
    5b2c:	e1550001 	cmp	r5, r1
    5b30:	e593c000 	ldr	ip, [r3]
    5b34:	8a000002 	bhi	5b44 <sha256_data+0x30>
    5b38:	1a000003 	bne	5b4c <sha256_data+0x38>
    5b3c:	e154000c 	cmp	r4, ip
    5b40:	9a000001 	bls	5b4c <sha256_data+0x38>
    5b44:	e3e00000 	mvn	r0, #0	; 0x0
    5b48:	e8bd8070 	pop	{r4, r5, r6, pc}
    5b4c:	e1a0200c 	mov	r2, ip
    5b50:	e1a03001 	mov	r3, r1
    5b54:	e59fc01c 	ldr	ip, [pc, #28]	; 5b78 <sha256_data+0x64>
    5b58:	e0522004 	subs	r2, r2, r4
    5b5c:	e0c33005 	sbc	r3, r3, r5
    5b60:	e1a01006 	mov	r1, r6
    5b64:	e88c000c 	stm	ip, {r2, r3}
    5b68:	eb0000de 	bl	5ee8 <hash_dma_transfer>
    5b6c:	e3500000 	cmp	r0, #0	; 0x0
    5b70:	13e00001 	mvnne	r0, #1	; 0x1
    5b74:	e8bd8070 	pop	{r4, r5, r6, pc}
    5b78:	0800d218 	.word	0x0800d218

00005b7c <sha256_init>:
    5b7c:	e1a03ea0 	lsr	r3, r0, #29
    5b80:	e1a0c180 	lsl	ip, r0, #3
    5b84:	e92d4010 	push	{r4, lr}
    5b88:	e59f403c 	ldr	r4, [pc, #60]	; 5bcc <sha256_init+0x50>
    5b8c:	e1a0200c 	mov	r2, ip
    5b90:	e1a01003 	mov	r1, r3
    5b94:	e3a00003 	mov	r0, #3	; 0x3
    5b98:	e5843004 	str	r3, [r4, #4]
    5b9c:	e584c000 	str	ip, [r4]
    5ba0:	eb0000b4 	bl	5e78 <hash_module_init>
    5ba4:	e3500000 	cmp	r0, #0	; 0x0
    5ba8:	05942000 	ldreq	r2, [r4]
    5bac:	05943004 	ldreq	r3, [r4, #4]
    5bb0:	01a021a2 	lsreq	r2, r2, #3
    5bb4:	01822e83 	orreq	r2, r2, r3, lsl #29
    5bb8:	01a031a3 	lsreq	r3, r3, #3
    5bbc:	13e00000 	mvnne	r0, #0	; 0x0
    5bc0:	05843004 	streq	r3, [r4, #4]
    5bc4:	05842000 	streq	r2, [r4]
    5bc8:	e8bd8010 	pop	{r4, pc}
    5bcc:	0800d218 	.word	0x0800d218

00005bd0 <crc32_init>:
    5bd0:	e59f300c 	ldr	r3, [pc, #12]	; 5be4 <crc32_init+0x14>
    5bd4:	e3e02000 	mvn	r2, #0	; 0x0
    5bd8:	e5832000 	str	r2, [r3]
    5bdc:	e3a00000 	mov	r0, #0	; 0x0
    5be0:	e12fff1e 	bx	lr
    5be4:	0800d220 	.word	0x0800d220

00005be8 <crc32_data>:
    5be8:	e59f311c 	ldr	r3, [pc, #284]	; 5d0c <crc32_data+0x124>
    5bec:	e92d41f0 	push	{r4, r5, r6, r7, r8, lr}
    5bf0:	e593c000 	ldr	ip, [r3]
    5bf4:	e1a08000 	mov	r8, r0
    5bf8:	e1a06001 	mov	r6, r1
    5bfc:	e1a04000 	mov	r4, r0
    5c00:	e1a07001 	mov	r7, r1
    5c04:	e59f5104 	ldr	r5, [pc, #260]	; 5d10 <crc32_data+0x128>
    5c08:	ea000027 	b	5cac <crc32_data+0xc4>
    5c0c:	e5543008 	ldrb	r3, [r4, #-8]
    5c10:	e5542007 	ldrb	r2, [r4, #-7]
    5c14:	e02c3003 	eor	r3, ip, r3
    5c18:	e20330ff 	and	r3, r3, #255	; 0xff
    5c1c:	e7953103 	ldr	r3, [r5, r3, lsl #2]
    5c20:	e5541006 	ldrb	r1, [r4, #-6]
    5c24:	e023342c 	eor	r3, r3, ip, lsr #8
    5c28:	e0232002 	eor	r2, r3, r2
    5c2c:	e20220ff 	and	r2, r2, #255	; 0xff
    5c30:	e7952102 	ldr	r2, [r5, r2, lsl #2]
    5c34:	e5540005 	ldrb	r0, [r4, #-5]
    5c38:	e0222423 	eor	r2, r2, r3, lsr #8
    5c3c:	e0221001 	eor	r1, r2, r1
    5c40:	e20110ff 	and	r1, r1, #255	; 0xff
    5c44:	e7953101 	ldr	r3, [r5, r1, lsl #2]
    5c48:	e5541004 	ldrb	r1, [r4, #-4]
    5c4c:	e0233422 	eor	r3, r3, r2, lsr #8
    5c50:	e0230000 	eor	r0, r3, r0
    5c54:	e20000ff 	and	r0, r0, #255	; 0xff
    5c58:	e7952100 	ldr	r2, [r5, r0, lsl #2]
    5c5c:	e5540003 	ldrb	r0, [r4, #-3]
    5c60:	e0222423 	eor	r2, r2, r3, lsr #8
    5c64:	e0221001 	eor	r1, r2, r1
    5c68:	e20110ff 	and	r1, r1, #255	; 0xff
    5c6c:	e7953101 	ldr	r3, [r5, r1, lsl #2]
    5c70:	e554c002 	ldrb	ip, [r4, #-2]
    5c74:	e0233422 	eor	r3, r3, r2, lsr #8
    5c78:	e0230000 	eor	r0, r3, r0
    5c7c:	e20000ff 	and	r0, r0, #255	; 0xff
    5c80:	e7952100 	ldr	r2, [r5, r0, lsl #2]
    5c84:	e5541001 	ldrb	r1, [r4, #-1]
    5c88:	e0222423 	eor	r2, r2, r3, lsr #8
    5c8c:	e022c00c 	eor	ip, r2, ip
    5c90:	e20cc0ff 	and	ip, ip, #255	; 0xff
    5c94:	e795310c 	ldr	r3, [r5, ip, lsl #2]
    5c98:	e0233422 	eor	r3, r3, r2, lsr #8
    5c9c:	e0231001 	eor	r1, r3, r1
    5ca0:	e20110ff 	and	r1, r1, #255	; 0xff
    5ca4:	e7952101 	ldr	r2, [r5, r1, lsl #2]
    5ca8:	e022c423 	eor	ip, r2, r3, lsr #8
    5cac:	e3570007 	cmp	r7, #7	; 0x7
    5cb0:	e2844008 	add	r4, r4, #8	; 0x8
    5cb4:	e2477008 	sub	r7, r7, #8	; 0x8
    5cb8:	8affffd3 	bhi	5c0c <crc32_data+0x24>
    5cbc:	e3c63007 	bic	r3, r6, #7	; 0x7
    5cc0:	e0880003 	add	r0, r8, r3
    5cc4:	e59f3040 	ldr	r3, [pc, #64]	; 5d0c <crc32_data+0x124>
    5cc8:	e2161007 	ands	r1, r6, #7	; 0x7
    5ccc:	e583c000 	str	ip, [r3]
    5cd0:	0a00000b 	beq	5d04 <crc32_data+0x11c>
    5cd4:	e59f4034 	ldr	r4, [pc, #52]	; 5d10 <crc32_data+0x128>
    5cd8:	e3a02000 	mov	r2, #0	; 0x0
    5cdc:	e7d03002 	ldrb	r3, [r0, r2]
    5ce0:	e2822001 	add	r2, r2, #1	; 0x1
    5ce4:	e02c3003 	eor	r3, ip, r3
    5ce8:	e20330ff 	and	r3, r3, #255	; 0xff
    5cec:	e7943103 	ldr	r3, [r4, r3, lsl #2]
    5cf0:	e1510002 	cmp	r1, r2
    5cf4:	e023c42c 	eor	ip, r3, ip, lsr #8
    5cf8:	1afffff7 	bne	5cdc <crc32_data+0xf4>
    5cfc:	e59f3008 	ldr	r3, [pc, #8]	; 5d0c <crc32_data+0x124>
    5d00:	e583c000 	str	ip, [r3]
    5d04:	e3a00000 	mov	r0, #0	; 0x0
    5d08:	e8bd81f0 	pop	{r4, r5, r6, r7, r8, pc}
    5d0c:	0800d220 	.word	0x0800d220
    5d10:	00011194 	.word	0x00011194

00005d14 <crc32_value>:
    5d14:	e59f3010 	ldr	r3, [pc, #16]	; 5d2c <crc32_value+0x18>
    5d18:	e5933000 	ldr	r3, [r3]
    5d1c:	e1e03003 	mvn	r3, r3
    5d20:	e5803000 	str	r3, [r0]
    5d24:	e3a00000 	mov	r0, #0	; 0x0
    5d28:	e12fff1e 	bx	lr
    5d2c:	0800d220 	.word	0x0800d220

00005d30 <crc32_le>:
    5d30:	e92d4010 	push	{r4, lr}
    5d34:	e59f401c 	ldr	r4, [pc, #28]	; 5d58 <crc32_le+0x28>
    5d38:	e3e03000 	mvn	r3, #0	; 0x0
    5d3c:	e1a00001 	mov	r0, r1
    5d40:	e1a01002 	mov	r1, r2
    5d44:	e5843000 	str	r3, [r4]
    5d48:	ebffffa6 	bl	5be8 <crc32_data>
    5d4c:	e5940000 	ldr	r0, [r4]
    5d50:	e1e00000 	mvn	r0, r0
    5d54:	e8bd8010 	pop	{r4, pc}
    5d58:	0800d220 	.word	0x0800d220

00005d5c <hash_module_get_result>:
    5d5c:	e92d41f0 	push	{r4, r5, r6, r7, r8, lr}
    5d60:	e1a08000 	mov	r8, r0
    5d64:	eb000aaa 	bl	8814 <get_ticks>
    5d68:	e3a04e7d 	mov	r4, #2000	; 0x7d0
    5d6c:	e59f3088 	ldr	r3, [pc, #136]	; 5dfc <hash_module_get_result+0xa0>
    5d70:	e3a05000 	mov	r5, #0	; 0x0
    5d74:	e0944000 	adds	r4, r4, r0
    5d78:	e0a55001 	adc	r5, r5, r1
    5d7c:	e1a07003 	mov	r7, r3
    5d80:	e593680c 	ldr	r6, [r3, #2060]
    5d84:	ea000008 	b	5dac <hash_module_get_result+0x50>
    5d88:	e597680c 	ldr	r6, [r7, #2060]
    5d8c:	eb000aa0 	bl	8814 <get_ticks>
    5d90:	e1510005 	cmp	r1, r5
    5d94:	8a000002 	bhi	5da4 <hash_module_get_result+0x48>
    5d98:	1a000003 	bne	5dac <hash_module_get_result+0x50>
    5d9c:	e1500004 	cmp	r0, r4
    5da0:	9a000001 	bls	5dac <hash_module_get_result+0x50>
    5da4:	e3a00001 	mov	r0, #1	; 0x1
    5da8:	e8bd81f0 	pop	{r4, r5, r6, r7, r8, pc}
    5dac:	e3160001 	tst	r6, #1	; 0x1
    5db0:	0afffff4 	beq	5d88 <hash_module_get_result+0x2c>
    5db4:	e59f0044 	ldr	r0, [pc, #68]	; 5e00 <hash_module_get_result+0xa4>
    5db8:	e59fc044 	ldr	ip, [pc, #68]	; 5e04 <hash_module_get_result+0xa8>
    5dbc:	e1a03000 	mov	r3, r0
    5dc0:	e6931008 	ldr	r1, [r3], r8
    5dc4:	e59f203c 	ldr	r2, [pc, #60]	; 5e08 <hash_module_get_result+0xac>
    5dc8:	e2800004 	add	r0, r0, #4	; 0x4
    5dcc:	e0832002 	add	r2, r3, r2
    5dd0:	e150000c 	cmp	r0, ip
    5dd4:	e5821000 	str	r1, [r2]
    5dd8:	1afffff7 	bne	5dbc <hash_module_get_result+0x60>
    5ddc:	e59f2018 	ldr	r2, [pc, #24]	; 5dfc <hash_module_get_result+0xa0>
    5de0:	e3a03001 	mov	r3, #1	; 0x1
    5de4:	e582380c 	str	r3, [r2, #2060]
    5de8:	e5923800 	ldr	r3, [r2, #2048]
    5dec:	e3a00000 	mov	r0, #0	; 0x0
    5df0:	e3c33080 	bic	r3, r3, #128	; 0x80
    5df4:	e5823800 	str	r3, [r2, #2048]
    5df8:	e8bd81f0 	pop	{r4, r5, r6, r7, r8, pc}
    5dfc:	27700000 	.word	0x27700000
    5e00:	27700858 	.word	0x27700858
    5e04:	27700878 	.word	0x27700878
    5e08:	d88ff7a8 	.word	0xd88ff7a8

00005e0c <hash_module_clear>:
    5e0c:	e92d40f0 	push	{r4, r5, r6, r7, lr}
    5e10:	e59f405c 	ldr	r4, [pc, #92]	; 5e74 <hash_module_clear+0x68>
    5e14:	e3a03002 	mov	r3, #2	; 0x2
    5e18:	e5843800 	str	r3, [r4, #2048]
    5e1c:	e24dd004 	sub	sp, sp, #4	; 0x4
    5e20:	eb000a7b 	bl	8814 <get_ticks>
    5e24:	e3a06e7d 	mov	r6, #2000	; 0x7d0
    5e28:	e3a07000 	mov	r7, #0	; 0x0
    5e2c:	e0966000 	adds	r6, r6, r0
    5e30:	e1a05004 	mov	r5, r4
    5e34:	e0a77001 	adc	r7, r7, r1
    5e38:	e5944800 	ldr	r4, [r4, #2048]
    5e3c:	ea000008 	b	5e64 <hash_module_clear+0x58>
    5e40:	e5954800 	ldr	r4, [r5, #2048]
    5e44:	eb000a72 	bl	8814 <get_ticks>
